

HI-TECH Software PIC LITE Macro Assembler V9.83 build 10920 
                                                                                               Wed Apr 17 00:32:37 2013

HI-TECH Software Omniscient Code Generator (Lite mode) build 10920
     1  0000                     opt subtitle "HI-TECH Software Omniscient Code Generator (Lite mode) build 10920"
     2                           
     3                           opt pagewidth 120
     4                           
     5                           	opt lm
     6                           
     7                           	processor	16F887
     8                           clrc	macro
     9                           	bcf	3,0
    10  0000                     	endm
    11                           clrz	macro
    12                           	bcf	3,2
    13  0000                     	endm
    14                           setc	macro
    15                           	bsf	3,0
    16  0000                     	endm
    17                           setz	macro
    18                           	bsf	3,2
    19  0000                     	endm
    20                           skipc	macro
    21                           	btfss	3,0
    22  0000                     	endm
    23                           skipz	macro
    24                           	btfss	3,2
    25  0000                     	endm
    26                           skipnc	macro
    27                           	btfsc	3,0
    28  0000                     	endm
    29                           skipnz	macro
    30                           	btfsc	3,2
    31  0000                     	endm
    32  0000                     indf	equ	0
    33  0000                     indf0	equ	0
    34  0002                     pc	equ	2
    35  0002                     pcl	equ	2
    36  0003                     status	equ	3
    37  0004                     fsr	equ	4
    38  0004                     fsr0	equ	4
    39  0001                     c	equ	1
    40  0000                     z	equ	0
    41  000A                     pclath	equ	10
    42                           # 33 "primary887main.c"
    43                           	psect config,class=CONFIG,delta=2 ;#
    44                           # 33 "primary887main.c"
    45  2007  E0E2               	dw 0xFFFA & 0xFFF7 & 0xFFEF & 0xFFFF & 0xFFFF & 0xFFFF & 0xFCFF & 0xFBFF & 0xF7FF & 0xE
                                 FFF ;#
    46                           # 35 "primary887main.c"
    47                           	psect config,class=CONFIG,delta=2 ;#
    48                           # 35 "primary887main.c"
    49  2008  FFFF               	dw 0xFFFF & 0xFFFF ;#
    50                           	FNCALL	_main,_Initialise
    51                           	FNCALL	_main,_SetPulse
    52                           	FNCALL	_main,_delay1sec
    53                           	FNCALL	_main,_setDirection
    54                           	FNCALL	_main,_EncUpdate
    55                           	FNCALL	_main,_UpdateData
    56                           	FNCALL	_main,___awtoft
    57                           	FNCALL	_main,___ftmul
    58                           	FNCALL	_main,___ftadd
    59                           	FNCALL	_main,___fttol
    60                           	FNCALL	___awtoft,___ftpack
    61                           	FNCALL	___ftmul,___ftpack
    62                           	FNCALL	___ftadd,___ftpack
    63                           	FNCALL	_Initialise,_BeginEncoder
    64                           	FNCALL	_Initialise,_i2cInit
    65                           	FNROOT	_main
    66                           	FNCALL	_isr,_i2cIsrHandler
    67                           	FNCALL	_i2cIsrHandler,_i2cSend
    68                           	FNCALL	_i2cIsrHandler,_i2cDataUpdate
    69                           	FNCALL	intlevel1,_isr
    70                           	global	intlevel1
    71                           	FNROOT	intlevel1
    72                           	global	_TMR0_OverflowTarget
    73                           psect	idataBANK1l,class=CODE,space=0,delta=2
    74                           global __pidataBANK1l
    75  00E7                     __pidataBANK1l:
    76                           	file	"primary887main.c"
    77                           	line	84
    78                           
    79                           ;initializer for _TMR0_OverflowTarget
    80  00E7  3408               	retlw	08h
    81  00E8  3400               	retlw	0
    82                           
    83                           	global	_DIR_READ
    84                           	global	_TARGET
    85                           	global	_i2cDirection
    86                           	global	_i2cSpeed
    87                           	global	_DIRECTION
    88                           	global	_i2cBufferVal
    89                           	global	_i2cRequest
    90                           	global	_i2cWriteInt
    91                           	global	_i2cBuffer
    92                           	global	_COUNTS
    93                           	global	_TMR0_OverflowCount
    94                           	global	_TMR1
    95  000E                     _TMR1	set	14
    96                           	global	_CCP2CON
    97  001D                     _CCP2CON	set	29
    98                           	global	_CCP2CONbits
    99  001D                     _CCP2CONbits	set	29
   100                           	global	_CCPR2L
   101  001B                     _CCPR2L	set	27
   102                           	global	_PIR1bits
   103  000C                     _PIR1bits	set	12
   104                           	global	_PORTBbits
   105  0006                     _PORTBbits	set	6
   106                           	global	_PORTCbits
   107  0007                     _PORTCbits	set	7
   108                           	global	_PORTD
   109  0008                     _PORTD	set	8
   110                           	global	_SSPBUF
   111  0013                     _SSPBUF	set	19
   112                           	global	_SSPCONbits
   113  0014                     _SSPCONbits	set	20
   114                           	global	_T1CON
   115  0010                     _T1CON	set	16
   116                           	global	_T2CON
   117  0012                     _T2CON	set	18
   118                           	global	_T2CONbits
   119  0012                     _T2CONbits	set	18
   120                           	global	_CARRY
   121  0018                     _CARRY	set	24
   122                           	global	_CKP
   123  00A4                     _CKP	set	164
   124                           	global	_GIE
   125  005F                     _GIE	set	95
   126                           	global	_PEIE
   127  005E                     _PEIE	set	94
   128                           	global	_RB5
   129  0035                     _RB5	set	53
   130                           	global	_RBIE
   131  005B                     _RBIE	set	91
   132                           	global	_RBIF
   133  0058                     _RBIF	set	88
   134                           	global	_SSPEN
   135  00A5                     _SSPEN	set	165
   136                           	global	_SSPIF
   137  0063                     _SSPIF	set	99
   138                           	global	_SSPM0
   139  00A0                     _SSPM0	set	160
   140                           	global	_SSPM1
   141  00A1                     _SSPM1	set	161
   142                           	global	_SSPM2
   143  00A2                     _SSPM2	set	162
   144                           	global	_SSPM3
   145  00A3                     _SSPM3	set	163
   146                           	global	_T0IE
   147  005D                     _T0IE	set	93
   148                           	global	_T0IF
   149  005A                     _T0IF	set	90
   150                           	global	_TMR1IF
   151  0060                     _TMR1IF	set	96
   152                           	global	_TMR2IF
   153  0061                     _TMR2IF	set	97
   154                           	global	_OPTION_REG
   155  0081                     _OPTION_REG	set	129
   156                           	global	_PIE1
   157  008C                     _PIE1	set	140
   158                           	global	_PIE1bits
   159  008C                     _PIE1bits	set	140
   160                           	global	_PIE2
   161  008D                     _PIE2	set	141
   162                           	global	_PR2
   163  0092                     _PR2	set	146
   164                           	global	_SSPADD
   165  0093                     _SSPADD	set	147
   166                           	global	_SSPSTAT
   167  0094                     _SSPSTAT	set	148
   168                           	global	_TRISB
   169  0086                     _TRISB	set	134
   170                           	global	_TRISC
   171  0087                     _TRISC	set	135
   172                           	global	_TRISCbits
   173  0087                     _TRISCbits	set	135
   174                           	global	_TRISD
   175  0088                     _TRISD	set	136
   176                           	global	_CKE
   177  04A6                     _CKE	set	1190
   178                           	global	_SMP
   179  04A7                     _SMP	set	1191
   180                           	global	_TRISC3
   181  043B                     _TRISC3	set	1083
   182                           	global	_TRISC4
   183  043C                     _TRISC4	set	1084
   184                           	global	_EEADR
   185  010D                     _EEADR	set	269
   186                           	global	_EEDATA
   187  010C                     _EEDATA	set	268
   188                           	global	_EECON1
   189  018C                     _EECON1	set	396
   190                           	global	_EECON2
   191  018D                     _EECON2	set	397
   192                           	global	_RD
   193  0C60                     _RD	set	3168
   194                           	global	_WR
   195  0C61                     _WR	set	3169
   196                           	global	_WREN
   197  0C62                     _WREN	set	3170
   198                           	global	_FLAG
   199  00AA                     _FLAG	set	170
   200                           	DABS	1,170,1	;_FLAG
   201                           
   202                           	global	_F
   203  00AA                     _F	set	170
   204                           	DABS	1,170,1	;_F
   205                           
   206                           	global	_DIR
   207  0553                     _DIR	set	1363
   208                           	DABS	1,170,1	;_DIR
   209                           
   210                           	global	_ERR
   211  0554                     _ERR	set	1364
   212                           	DABS	1,170,1	;_ERR
   213                           
   214                           	global	_I2C
   215  0550                     _I2C	set	1360
   216                           	DABS	1,170,1	;_I2C
   217                           
   218                           	global	_T0
   219  0551                     _T0	set	1361
   220                           	DABS	1,170,1	;_T0
   221                           
   222                           	global	_T1
   223  0552                     _T1	set	1362
   224                           	DABS	1,170,1	;_T1
   225                           
   226                           	file	"C:\Users\Alan\AppData\Local\Temp\s4v4."
   227                           	line	#
   228                           psect cinit,class=CODE,delta=2
   229                           global start_initialization
   230  0195                     start_initialization:
   231                           
   232                           psect	bssCOMMON,class=COMMON,space=1
   233                           global __pbssCOMMON
   234  007B                     __pbssCOMMON:
   235  007B                     _i2cBufferVal:
   236  007B                            ds      1
   237                           
   238  007C                     _i2cRequest:
   239  007C                            ds      1
   240                           
   241  007D                     _i2cWriteInt:
   242  007D                            ds      1
   243                           
   244                           psect	bssBANK0,class=BANK0,space=1
   245                           global __pbssBANK0
   246  0069                     __pbssBANK0:
   247  0069                     _DIR_READ:
   248  0069                            ds      2
   249                           
   250  006B                     _TARGET:
   251  006B                            ds      2
   252                           
   253  006D                     _i2cDirection:
   254  006D                            ds      1
   255                           
   256  006E                     _i2cSpeed:
   257  006E                            ds      1
   258                           
   259                           psect	bssBANK1l,class=BANK1,space=1
   260                           global __pbssBANK1l
   261  00AB                     __pbssBANK1l:
   262  00AB                     _i2cBuffer:
   263  00AB                            ds      3
   264                           
   265  00AE                     _COUNTS:
   266  00AE                            ds      2
   267                           
   268  00B0                     _TMR0_OverflowCount:
   269  00B0                            ds      2
   270                           
   271                           psect	dataBANK1l,class=BANK1,space=1
   272                           global __pdataBANK1l
   273  00B2                     __pdataBANK1l:
   274                           	file	"primary887main.c"
   275  00B2                     _TMR0_OverflowTarget:
   276  00B2                            ds      2
   277                           
   278                           psect	bssBANK3,class=BANK3,space=1
   279                           global __pbssBANK3
   280  0190                     __pbssBANK3:
   281  0190                     _DIRECTION:
   282  0190                            ds      2
   283                           
   284                           ; Clear objects allocated to COMMON
   285                           psect cinit,class=CODE,delta=2
   286  0195  01FB               	clrf	((__pbssCOMMON)+0)&07Fh
   287  0196  01FC               	clrf	((__pbssCOMMON)+1)&07Fh
   288  0197  01FD               	clrf	((__pbssCOMMON)+2)&07Fh
   289                           ; Clear objects allocated to BANK0
   290                           psect cinit,class=CODE,delta=2
   291  0198  01E9               	clrf	((__pbssBANK0)+0)&07Fh
   292  0199  01EA               	clrf	((__pbssBANK0)+1)&07Fh
   293  019A  01EB               	clrf	((__pbssBANK0)+2)&07Fh
   294  019B  01EC               	clrf	((__pbssBANK0)+3)&07Fh
   295  019C  01ED               	clrf	((__pbssBANK0)+4)&07Fh
   296  019D  01EE               	clrf	((__pbssBANK0)+5)&07Fh
   297                           ; Clear objects allocated to BANK1l
   298                           psect cinit,class=CODE,delta=2
   299  019E  1683               	bsf	status, 5	;RP0=1, select bank1
   300  019F  1303               	bcf	status, 6	;RP1=0, select bank1
   301  01A0  01AB               	clrf	((__pbssBANK1l)+0)&07Fh
   302  01A1  01AC               	clrf	((__pbssBANK1l)+1)&07Fh
   303  01A2  01AD               	clrf	((__pbssBANK1l)+2)&07Fh
   304  01A3  01AE               	clrf	((__pbssBANK1l)+3)&07Fh
   305  01A4  01AF               	clrf	((__pbssBANK1l)+4)&07Fh
   306  01A5  01B0               	clrf	((__pbssBANK1l)+5)&07Fh
   307  01A6  01B1               	clrf	((__pbssBANK1l)+6)&07Fh
   308                           ; Clear objects allocated to BANK3
   309                           psect cinit,class=CODE,delta=2
   310  01A7  1683               	bsf	status, 5	;RP0=1, select bank3
   311  01A8  1703               	bsf	status, 6	;RP1=1, select bank3
   312  01A9  0190               	clrf	((__pbssBANK3)+0)&07Fh
   313  01AA  0191               	clrf	((__pbssBANK3)+1)&07Fh
   314                           ; Initialize objects allocated to BANK1l
   315                           	global __pidataBANK1l
   316                           psect cinit,class=CODE,delta=2
   317  01AB  1683               	bsf	status, 5	;RP0=1, select bank1
   318  01AC  1303               	bcf	status, 6	;RP1=0, select bank1
   319  01AD  120A  118A  20E7   	fcall	__pidataBANK1l+0		;fetch initializer
              120A  118A         
   320  01B2  00B2               	movwf	__pdataBANK1l+0&07fh		
   321  01B3  120A  118A  20E8   	fcall	__pidataBANK1l+1		;fetch initializer
              120A  118A         
   322  01B8  00B3               	movwf	__pdataBANK1l+1&07fh		
   323                           psect cinit,class=CODE,delta=2
   324                           global end_of_initialization
   325                           
   326                           ;End of C runtime variable initialization code
   327                           
   328  01B9                     end_of_initialization:
   329  01B9  0183               clrf status
   330  01BA  120A  118A  2E90   ljmp _main	;jump to C main() function
   331                           psect	cstackCOMMON,class=COMMON,space=1
   332                           global __pcstackCOMMON
   333  0071                     __pcstackCOMMON:
   334                           	global	?_Initialise
   335  0071                     ?_Initialise:	; 0 bytes @ 0x0
   336                           	global	?_delay1sec
   337  0071                     ?_delay1sec:	; 0 bytes @ 0x0
   338                           	global	?_EncUpdate
   339  0071                     ?_EncUpdate:	; 0 bytes @ 0x0
   340                           	global	?_BeginEncoder
   341  0071                     ?_BeginEncoder:	; 0 bytes @ 0x0
   342                           	global	?_i2cInit
   343  0071                     ?_i2cInit:	; 0 bytes @ 0x0
   344                           	global	?_i2cIsrHandler
   345  0071                     ?_i2cIsrHandler:	; 0 bytes @ 0x0
   346                           	global	?_i2cSend
   347  0071                     ?_i2cSend:	; 0 bytes @ 0x0
   348                           	global	??_i2cSend
   349  0071                     ??_i2cSend:	; 0 bytes @ 0x0
   350                           	global	?_i2cDataUpdate
   351  0071                     ?_i2cDataUpdate:	; 0 bytes @ 0x0
   352                           	global	??_i2cDataUpdate
   353  0071                     ??_i2cDataUpdate:	; 0 bytes @ 0x0
   354                           	global	?_isr
   355  0071                     ?_isr:	; 0 bytes @ 0x0
   356                           	global	?_main
   357  0071                     ?_main:	; 2 bytes @ 0x0
   358                           	global	i2cSend@msg
   359  0071                     i2cSend@msg:	; 1 bytes @ 0x0
   360  0071                     	ds	1
   361                           	global	??_i2cIsrHandler
   362  0072                     ??_i2cIsrHandler:	; 0 bytes @ 0x1
   363  0072                     	ds	1
   364                           	global	i2cIsrHandler@i
   365  0073                     i2cIsrHandler@i:	; 2 bytes @ 0x2
   366  0073                     	ds	2
   367                           	global	??_isr
   368  0075                     ??_isr:	; 0 bytes @ 0x4
   369  0075                     	ds	6
   370                           psect	cstackBANK0,class=BANK0,space=1
   371                           global __pcstackBANK0
   372  0020                     __pcstackBANK0:
   373                           	global	?_SetPulse
   374  0020                     ?_SetPulse:	; 0 bytes @ 0x0
   375                           	global	??_delay1sec
   376  0020                     ??_delay1sec:	; 0 bytes @ 0x0
   377                           	global	?_setDirection
   378  0020                     ?_setDirection:	; 0 bytes @ 0x0
   379                           	global	??_EncUpdate
   380  0020                     ??_EncUpdate:	; 0 bytes @ 0x0
   381                           	global	?_UpdateData
   382  0020                     ?_UpdateData:	; 0 bytes @ 0x0
   383                           	global	??_BeginEncoder
   384  0020                     ??_BeginEncoder:	; 0 bytes @ 0x0
   385                           	global	??_i2cInit
   386  0020                     ??_i2cInit:	; 0 bytes @ 0x0
   387                           	global	?___ftpack
   388  0020                     ?___ftpack:	; 3 bytes @ 0x0
   389                           	global	EncUpdate@t1
   390  0020                     EncUpdate@t1:	; 1 bytes @ 0x0
   391                           	global	i2cInit@address
   392  0020                     i2cInit@address:	; 1 bytes @ 0x0
   393                           	global	UpdateData@c
   394  0020                     UpdateData@c:	; 2 bytes @ 0x0
   395                           	global	setDirection@dir
   396  0020                     setDirection@dir:	; 2 bytes @ 0x0
   397                           	global	delay1sec@i
   398  0020                     delay1sec@i:	; 2 bytes @ 0x0
   399                           	global	SetPulse@length
   400  0020                     SetPulse@length:	; 2 bytes @ 0x0
   401                           	global	___ftpack@arg
   402  0020                     ___ftpack@arg:	; 3 bytes @ 0x0
   403  0020                     	ds	1
   404                           	global	??_Initialise
   405  0021                     ??_Initialise:	; 0 bytes @ 0x1
   406  0021                     	ds	1
   407                           	global	??_SetPulse
   408  0022                     ??_SetPulse:	; 0 bytes @ 0x2
   409                           	global	??_setDirection
   410  0022                     ??_setDirection:	; 0 bytes @ 0x2
   411                           	global	??_UpdateData
   412  0022                     ??_UpdateData:	; 0 bytes @ 0x2
   413                           	global	SetPulse@temp
   414  0022                     SetPulse@temp:	; 2 bytes @ 0x2
   415  0022                     	ds	1
   416                           	global	___ftpack@exp
   417  0023                     ___ftpack@exp:	; 1 bytes @ 0x3
   418  0023                     	ds	1
   419                           	global	___ftpack@sign
   420  0024                     ___ftpack@sign:	; 1 bytes @ 0x4
   421  0024                     	ds	1
   422                           	global	??___ftpack
   423  0025                     ??___ftpack:	; 0 bytes @ 0x5
   424  0025                     	ds	3
   425                           	global	?___fttol
   426  0028                     ?___fttol:	; 4 bytes @ 0x8
   427                           	global	___fttol@f1
   428  0028                     ___fttol@f1:	; 3 bytes @ 0x8
   429  0028                     	ds	4
   430                           	global	??___fttol
   431  002C                     ??___fttol:	; 0 bytes @ 0xC
   432  002C                     	ds	4
   433                           	global	___fttol@sign1
   434  0030                     ___fttol@sign1:	; 1 bytes @ 0x10
   435  0030                     	ds	1
   436                           	global	___fttol@lval
   437  0031                     ___fttol@lval:	; 4 bytes @ 0x11
   438  0031                     	ds	4
   439                           	global	___fttol@exp1
   440  0035                     ___fttol@exp1:	; 1 bytes @ 0x15
   441  0035                     	ds	1
   442                           	global	?___awtoft
   443  0036                     ?___awtoft:	; 3 bytes @ 0x16
   444                           	global	___awtoft@c
   445  0036                     ___awtoft@c:	; 2 bytes @ 0x16
   446  0036                     	ds	3
   447                           	global	??___awtoft
   448  0039                     ??___awtoft:	; 0 bytes @ 0x19
   449  0039                     	ds	2
   450                           	global	___awtoft@sign
   451  003B                     ___awtoft@sign:	; 1 bytes @ 0x1B
   452  003B                     	ds	1
   453                           	global	?___ftmul
   454  003C                     ?___ftmul:	; 3 bytes @ 0x1C
   455                           	global	___ftmul@f1
   456  003C                     ___ftmul@f1:	; 3 bytes @ 0x1C
   457  003C                     	ds	3
   458                           	global	___ftmul@f2
   459  003F                     ___ftmul@f2:	; 3 bytes @ 0x1F
   460  003F                     	ds	3
   461                           	global	??___ftmul
   462  0042                     ??___ftmul:	; 0 bytes @ 0x22
   463  0042                     	ds	4
   464                           	global	___ftmul@exp
   465  0046                     ___ftmul@exp:	; 1 bytes @ 0x26
   466  0046                     	ds	1
   467                           	global	___ftmul@f3_as_product
   468  0047                     ___ftmul@f3_as_product:	; 3 bytes @ 0x27
   469  0047                     	ds	3
   470                           	global	___ftmul@cntr
   471  004A                     ___ftmul@cntr:	; 1 bytes @ 0x2A
   472  004A                     	ds	1
   473                           	global	___ftmul@sign
   474  004B                     ___ftmul@sign:	; 1 bytes @ 0x2B
   475  004B                     	ds	1
   476                           	global	?___ftadd
   477  004C                     ?___ftadd:	; 3 bytes @ 0x2C
   478                           	global	___ftadd@f1
   479  004C                     ___ftadd@f1:	; 3 bytes @ 0x2C
   480  004C                     	ds	3
   481                           	global	___ftadd@f2
   482  004F                     ___ftadd@f2:	; 3 bytes @ 0x2F
   483  004F                     	ds	3
   484                           	global	??___ftadd
   485  0052                     ??___ftadd:	; 0 bytes @ 0x32
   486  0052                     	ds	4
   487                           	global	___ftadd@sign
   488  0056                     ___ftadd@sign:	; 1 bytes @ 0x36
   489  0056                     	ds	1
   490                           	global	___ftadd@exp2
   491  0057                     ___ftadd@exp2:	; 1 bytes @ 0x37
   492  0057                     	ds	1
   493                           	global	___ftadd@exp1
   494  0058                     ___ftadd@exp1:	; 1 bytes @ 0x38
   495  0058                     	ds	1
   496                           	global	??_main
   497  0059                     ??_main:	; 0 bytes @ 0x39
   498  0059                     	ds	2
   499                           	global	main@D
   500  005B                     main@D:	; 2 bytes @ 0x3B
   501  005B                     	ds	2
   502                           	global	main@currentPWM
   503  005D                     main@currentPWM:	; 2 bytes @ 0x3D
   504  005D                     	ds	2
   505                           	global	main@P_old
   506  005F                     main@P_old:	; 2 bytes @ 0x3F
   507  005F                     	ds	2
   508                           	global	main@PID
   509  0061                     main@PID:	; 2 bytes @ 0x41
   510  0061                     	ds	2
   511                           	global	main@P
   512  0063                     main@P:	; 2 bytes @ 0x43
   513  0063                     	ds	2
   514                           	global	main@I
   515  0065                     main@I:	; 2 bytes @ 0x45
   516  0065                     	ds	2
   517                           	global	main@counts
   518  0067                     main@counts:	; 2 bytes @ 0x47
   519  0067                     	ds	2
   520 ;;Data sizes: Strings 0, constant 0, data 2, bss 18, persistent 0 stack 0
   521 ;;Auto spaces:   Size  Autos    Used
   522 ;; COMMON          13     10      13
   523 ;; BANK0           80     73      79
   524 ;; BANK1h          69      0       0
   525 ;; BANK1l          10      0       9
   526 ;; BANK3           85      0       2
   527 ;; BANK2           96      0       0
   528                           
   529 ;;
   530 ;; Pointer list with targets:
   531                           
   532 ;; ?___ftpack	float  size(1) Largest target is 0
   533 ;;
   534 ;; ?___fttol	long  size(1) Largest target is 0
   535 ;;
   536 ;; ?___ftmul	float  size(1) Largest target is 0
   537 ;;
   538 ;; ?___awtoft	float  size(1) Largest target is 0
   539 ;;
   540 ;; ?___ftadd	float  size(1) Largest target is 0
   541 ;;
   542 ;; EncUpdate@t1	PTR int  size(1) Largest target is 2
   543 ;;		 -> main@counts(BANK0[2]), 
   544 ;;
   545                           
   546                           
   547 ;;
   548 ;; Critical Paths under _main in COMMON
   549 ;;
   550 ;;   None.
   551 ;;
   552 ;; Critical Paths under _isr in COMMON
   553 ;;
   554 ;;   _isr->_i2cIsrHandler
   555 ;;   _i2cIsrHandler->_i2cSend
   556 ;;   _i2cIsrHandler->_i2cDataUpdate
   557 ;;
   558 ;; Critical Paths under _main in BANK0
   559 ;;
   560 ;;   _main->___ftadd
   561 ;;   ___awtoft->___fttol
   562 ;;   ___ftmul->___awtoft
   563 ;;   ___ftadd->___ftmul
   564 ;;   _Initialise->_i2cInit
   565 ;;   ___fttol->___ftpack
   566 ;;
   567 ;; Critical Paths under _isr in BANK0
   568 ;;
   569 ;;   None.
   570 ;;
   571 ;; Critical Paths under _main in BANK1h
   572 ;;
   573 ;;   None.
   574 ;;
   575 ;; Critical Paths under _isr in BANK1h
   576 ;;
   577 ;;   None.
   578 ;;
   579 ;; Critical Paths under _main in BANK1l
   580 ;;
   581 ;;   None.
   582 ;;
   583 ;; Critical Paths under _isr in BANK1l
   584 ;;
   585 ;;   None.
   586 ;;
   587 ;; Critical Paths under _main in BANK3
   588 ;;
   589 ;;   None.
   590 ;;
   591 ;; Critical Paths under _isr in BANK3
   592 ;;
   593 ;;   None.
   594 ;;
   595 ;; Critical Paths under _main in BANK2
   596 ;;
   597 ;;   None.
   598 ;;
   599 ;; Critical Paths under _isr in BANK2
   600 ;;
   601 ;;   None.
   602                           
   603 ;;
   604 ;;Main: autosize = 0, tempsize = 2, incstack = 0, save=0
   605 ;;
   606                           
   607 ;;
   608 ;;Call Graph Tables:
   609 ;;
   610 ;; ---------------------------------------------------------------------------------
   611 ;; (Depth) Function   	        Calls       Base Space   Used Autos Params    Refs
   612 ;; ---------------------------------------------------------------------------------
   613 ;; (0) _main                                                16    16      0    2705
   614 ;;                                             57 BANK0     16    16      0
   615 ;;                         _Initialise
   616 ;;                           _SetPulse
   617 ;;                          _delay1sec
   618 ;;                       _setDirection
   619 ;;                          _EncUpdate
   620 ;;                         _UpdateData
   621 ;;                           ___awtoft
   622 ;;                            ___ftmul
   623 ;;                            ___ftadd
   624 ;;                            ___fttol
   625 ;; ---------------------------------------------------------------------------------
   626 ;; (1) ___awtoft                                             6     3      3     300
   627 ;;                                             22 BANK0      6     3      3
   628 ;;                           ___ftpack
   629 ;;                            ___fttol (ARG)
   630 ;; ---------------------------------------------------------------------------------
   631 ;; (1) ___ftmul                                             16    10      6     535
   632 ;;                                             28 BANK0     16    10      6
   633 ;;                           ___ftpack
   634 ;;                           ___awtoft (ARG)
   635 ;;                            ___fttol (ARG)
   636 ;; ---------------------------------------------------------------------------------
   637 ;; (1) ___ftadd                                             13     7      6    1049
   638 ;;                                             44 BANK0     13     7      6
   639 ;;                           ___ftpack
   640 ;;                            ___ftmul (ARG)
   641 ;;                           ___awtoft (ARG)
   642 ;;                            ___fttol (ARG)
   643 ;; ---------------------------------------------------------------------------------
   644 ;; (1) _Initialise                                           0     0      0      22
   645 ;;                       _BeginEncoder
   646 ;;                            _i2cInit
   647 ;; ---------------------------------------------------------------------------------
   648 ;; (1) ___fttol                                             14    10      4     252
   649 ;;                                              8 BANK0     14    10      4
   650 ;;                           ___ftpack (ARG)
   651 ;; ---------------------------------------------------------------------------------
   652 ;; (2) ___ftpack                                             8     3      5     209
   653 ;;                                              0 BANK0      8     3      5
   654 ;; ---------------------------------------------------------------------------------
   655 ;; (2) _i2cInit                                              1     1      0      22
   656 ;;                                              0 BANK0      1     1      0
   657 ;; ---------------------------------------------------------------------------------
   658 ;; (2) _BeginEncoder                                         0     0      0       0
   659 ;; ---------------------------------------------------------------------------------
   660 ;; (1) _UpdateData                                           2     0      2      44
   661 ;;                                              0 BANK0      2     0      2
   662 ;; ---------------------------------------------------------------------------------
   663 ;; (1) _EncUpdate                                            1     1      0      22
   664 ;;                                              0 BANK0      1     1      0
   665 ;; ---------------------------------------------------------------------------------
   666 ;; (1) _setDirection                                         2     0      2      44
   667 ;;                                              0 BANK0      2     0      2
   668 ;; ---------------------------------------------------------------------------------
   669 ;; (1) _delay1sec                                            2     2      0      46
   670 ;;                                              0 BANK0      2     2      0
   671 ;; ---------------------------------------------------------------------------------
   672 ;; (1) _SetPulse                                             4     2      2      68
   673 ;;                                              0 BANK0      4     2      2
   674 ;; ---------------------------------------------------------------------------------
   675 ;; Estimated maximum stack depth 2
   676 ;; ---------------------------------------------------------------------------------
   677 ;; (Depth) Function   	        Calls       Base Space   Used Autos Params    Refs
   678 ;; ---------------------------------------------------------------------------------
   679 ;; (3) _isr                                                  6     6      0      24
   680 ;;                                              4 COMMON     6     6      0
   681 ;;                      _i2cIsrHandler
   682 ;; ---------------------------------------------------------------------------------
   683 ;; (4) _i2cIsrHandler                                        3     3      0      24
   684 ;;                                              1 COMMON     3     3      0
   685 ;;                            _i2cSend
   686 ;;                      _i2cDataUpdate
   687 ;; ---------------------------------------------------------------------------------
   688 ;; (5) _i2cDataUpdate                                        1     1      0       0
   689 ;;                                              0 COMMON     1     1      0
   690 ;; ---------------------------------------------------------------------------------
   691 ;; (5) _i2cSend                                              1     1      0      22
   692 ;;                                              0 COMMON     1     1      0
   693 ;; ---------------------------------------------------------------------------------
   694 ;; Estimated maximum stack depth 5
   695 ;; ---------------------------------------------------------------------------------
   696                           
   697 ;; Call Graph Graphs:
   698                           
   699 ;; _main (ROOT)
   700 ;;   _Initialise
   701 ;;     _BeginEncoder
   702 ;;     _i2cInit
   703 ;;   _SetPulse
   704 ;;   _delay1sec
   705 ;;   _setDirection
   706 ;;   _EncUpdate
   707 ;;   _UpdateData
   708 ;;   ___awtoft
   709 ;;     ___ftpack
   710 ;;     ___fttol (ARG)
   711 ;;       ___ftpack (ARG)
   712 ;;   ___ftmul
   713 ;;     ___ftpack
   714 ;;     ___awtoft (ARG)
   715 ;;       ___ftpack
   716 ;;       ___fttol (ARG)
   717 ;;         ___ftpack (ARG)
   718 ;;     ___fttol (ARG)
   719 ;;       ___ftpack (ARG)
   720 ;;   ___ftadd
   721 ;;     ___ftpack
   722 ;;     ___ftmul (ARG)
   723 ;;       ___ftpack
   724 ;;       ___awtoft (ARG)
   725 ;;         ___ftpack
   726 ;;         ___fttol (ARG)
   727 ;;           ___ftpack (ARG)
   728 ;;       ___fttol (ARG)
   729 ;;         ___ftpack (ARG)
   730 ;;     ___awtoft (ARG)
   731 ;;       ___ftpack
   732 ;;       ___fttol (ARG)
   733 ;;         ___ftpack (ARG)
   734 ;;     ___fttol (ARG)
   735 ;;       ___ftpack (ARG)
   736 ;;   ___fttol
   737 ;;     ___ftpack (ARG)
   738 ;;
   739 ;; _isr (ROOT)
   740 ;;   _i2cIsrHandler
   741 ;;     _i2cSend
   742 ;;     _i2cDataUpdate
   743 ;;
   744                           
   745 ;; Address spaces:
   746                           
   747 ;;Name               Size   Autos  Total    Cost      Usage
   748 ;;BANK3               55      0       2      10        2.4%
   749 ;;BITBANK3            55      0       0       9        0.0%
   750 ;;SFR3                 0      0       0       4        0.0%
   751 ;;BITSFR3              0      0       0       4        0.0%
   752 ;;BANK2               60      0       0      12        0.0%
   753 ;;BITBANK2            60      0       0      11        0.0%
   754 ;;SFR2                 0      0       0       5        0.0%
   755 ;;BITSFR2              0      0       0       5        0.0%
   756 ;;SFR1                 0      0       0       2        0.0%
   757 ;;BITSFR1              0      0       0       2        0.0%
   758 ;;BANK1l               A      0       9       8       90.0%
   759 ;;BITBANK1l            A      0       0       6        0.0%
   760 ;;BITBANK1h           45      0       0       5        0.0%
   761 ;;BANK1h              45      0       0       7        0.0%
   762 ;;CODE                 0      0       0       0        0.0%
   763 ;;DATA                 0      0      6F      14        0.0%
   764 ;;ABS                  0      0      67      13        0.0%
   765 ;;NULL                 0      0       0       0        0.0%
   766 ;;STACK                0      0       8       2        0.0%
   767 ;;BANK0               50     49      4F       4       98.8%
   768 ;;BITBANK0            50      0       0       3        0.0%
   769 ;;SFR0                 0      0       0       1        0.0%
   770 ;;BITSFR0              0      0       0       1        0.0%
   771 ;;COMMON               D      A       D       1      100.0%
   772 ;;BITCOMMON            D      0       0       0        0.0%
   773 ;;EEDATA             100      0       0       0        0.0%
   774                           
   775                           	global	_main
   776                           psect	maintext,global,class=CODE,delta=2
   777                           global __pmaintext
   778  0690                     __pmaintext:
   779                           
   780 ;; *************** function _main *****************
   781 ;; Defined at:
   782 ;;		line 111 in file "primary887main.c"
   783 ;; Parameters:    Size  Location     Type
   784 ;;		None
   785 ;; Auto vars:     Size  Location     Type
   786 ;;  counts          2   71[BANK0 ] int 
   787 ;;  I               2   69[BANK0 ] int 
   788 ;;  P               2   67[BANK0 ] int 
   789 ;;  PID             2   65[BANK0 ] int 
   790 ;;  P_old           2   63[BANK0 ] int 
   791 ;;  currentPWM      2   61[BANK0 ] int 
   792 ;;  D               2   59[BANK0 ] int 
   793 ;; Return value:  Size  Location     Type
   794 ;;                  2  1080[COMMON] int 
   795 ;; Registers used:
   796 ;;		wreg, fsr0l, fsr0h, status,2, status,0, btemp+1, pclath, cstack
   797 ;; Tracked objects:
   798 ;;		On entry : 17F/0
   799 ;;		On exit  : 0/0
   800 ;;		Unchanged: 0/0
   801 ;; Data sizes:     COMMON   BANK0  BANK1h  BANK1l   BANK3   BANK2
   802 ;;      Params:         0       0       0       0       0       0
   803 ;;      Locals:         0      14       0       0       0       0
   804 ;;      Temps:          0       2       0       0       0       0
   805 ;;      Totals:         0      16       0       0       0       0
   806 ;;Total ram usage:       16 bytes
   807 ;; Hardware stack levels required when called:    5
   808 ;; This function calls:
   809 ;;		_Initialise
   810 ;;		_SetPulse
   811 ;;		_delay1sec
   812 ;;		_setDirection
   813 ;;		_EncUpdate
   814 ;;		_UpdateData
   815 ;;		___awtoft
   816 ;;		___ftmul
   817 ;;		___ftadd
   818 ;;		___fttol
   819 ;; This function is called by:
   820 ;;		Startup code after reset
   821 ;; This function uses a non-reentrant model
   822 ;;
   823                           psect	maintext
   824                           	file	"primary887main.c"
   825                           	line	111
   826                           	global	__size_of_main
   827  0170                     	__size_of_main	equ	__end_of_main-_main
   828                           	
   829  0690                     _main:	
   830                           	opt	stack 3
   831                           ; Regs used in _main: [wreg-fsr0h+status,2+status,0+btemp+1+pclath+cstack]
   832                           	line	113
   833                           	
   834  0690                     l7325:	
   835                           ;primary887main.c: 113: int counts = 0,
   836  0690  1283               	bcf	status, 5	;RP0=0, select bank0
   837  0691  1303               	bcf	status, 6	;RP1=0, select bank0
   838  0692  01E7               	clrf	(main@counts)
   839  0693  01E8               	clrf	(main@counts+1)
   840                           	line	117
   841                           ;primary887main.c: 114: P,
   842                           ;primary887main.c: 115: I,
   843                           ;primary887main.c: 116: D,
   844                           ;primary887main.c: 117: P_old = 0,
   845  0694  01DF               	clrf	(main@P_old)
   846  0695  01E0               	clrf	(main@P_old+1)
   847                           	line	120
   848                           ;primary887main.c: 118: PID;
   849                           ;primary887main.c: 120: int currentPWM = 0;
   850  0696  01DD               	clrf	(main@currentPWM)
   851  0697  01DE               	clrf	(main@currentPWM+1)
   852                           	line	124
   853                           	
   854  0698                     l7327:	
   855                           ;primary887main.c: 124: Initialise();
   856  0698  120A  118A  21BD   	fcall	_Initialise
              120A  118A         
   857                           	line	126
   858                           	
   859  069D                     l7329:	
   860                           ;primary887main.c: 126: TARGET = 0;
   861  069D  1283               	bcf	status, 5	;RP0=0, select bank0
   862  069E  1303               	bcf	status, 6	;RP1=0, select bank0
   863  069F  01EB               	clrf	(_TARGET)
   864  06A0  01EC               	clrf	(_TARGET+1)
   865                           	line	127
   866                           	
   867  06A1                     l7331:	
   868                           ;primary887main.c: 127: SetPulse(0);
   869  06A1  3000               	movlw	low(0)
   870  06A2  00A0               	movwf	(?_SetPulse)
   871  06A3  3000               	movlw	high(0)
   872  06A4  00A1               	movwf	((?_SetPulse))+1
   873  06A5  120A  118A  2151   	fcall	_SetPulse
              120A  118A         
   874                           	line	128
   875                           	
   876  06AA                     l7333:	
   877                           ;primary887main.c: 128: T0IE = 0;
   878  06AA  128B               	bcf	(93/8),(93)&7
   879                           	line	129
   880                           	
   881  06AB                     l7335:	
   882                           ;primary887main.c: 129: delay1sec();
   883  06AB  120A  118A  2215   	fcall	_delay1sec
              120A  118A         
   884                           	line	130
   885                           	
   886  06B0                     l7337:	
   887                           ;primary887main.c: 130: T0IE = 1;
   888  06B0  168B               	bsf	(93/8),(93)&7
   889                           	line	131
   890                           	
   891  06B1                     l7339:	
   892                           ;primary887main.c: 131: TMR1 = 0;
   893  06B1  1283               	bcf	status, 5	;RP0=0, select bank0
   894  06B2  1303               	bcf	status, 6	;RP1=0, select bank0
   895  06B3  018E               	clrf	(14)	;volatile
   896  06B4  018F               	clrf	(14+1)	;volatile
   897  06B5  2EB6               	goto	l7341
   898                           	line	133
   899                           ;primary887main.c: 133: while(1)
   900                           	
   901  06B6                     l1081:	
   902                           	line	143
   903                           	
   904  06B6                     l7341:	
   905                           ;primary887main.c: 134: {
   906                           ;primary887main.c: 143: PORTD = TMR1;
   907  06B6  1283               	bcf	status, 5	;RP0=0, select bank0
   908  06B7  080E               	movf	(14),w	;volatile
   909  06B8  0088               	movwf	(8)	;volatile
   910                           	line	148
   911                           	
   912  06B9                     l7343:	
   913                           ;primary887main.c: 148: if (F.I2C == 1)
   914  06B9  1683               	bsf	status, 5	;RP0=1, select bank1
   915  06BA  1303               	bcf	status, 6	;RP1=0, select bank1
   916  06BB  1C2A               	btfss	(170)^080h,0
   917  06BC  2EBE               	goto	u3461
   918  06BD  2EBF               	goto	u3460
   919  06BE                     u3461:
   920  06BE  2EF2               	goto	l7361
   921  06BF                     u3460:
   922                           	line	157
   923                           	
   924  06BF                     l7345:	
   925                           ;primary887main.c: 149: {
   926                           ;primary887main.c: 157: TARGET = i2cSpeed;
   927  06BF  1283               	bcf	status, 5	;RP0=0, select bank0
   928  06C0  1303               	bcf	status, 6	;RP1=0, select bank0
   929  06C1  086E               	movf	(_i2cSpeed),w
   930  06C2  00D9               	movwf	(??_main+0)+0
   931  06C3  01DA               	clrf	(??_main+0)+0+1
   932  06C4  0859               	movf	0+(??_main+0)+0,w
   933  06C5  00EB               	movwf	(_TARGET)
   934  06C6  085A               	movf	1+(??_main+0)+0,w
   935  06C7  00EC               	movwf	(_TARGET+1)
   936                           	line	158
   937                           	
   938  06C8                     l7347:	
   939                           ;primary887main.c: 158: setDirection(i2cDirection);
   940  06C8  086D               	movf	(_i2cDirection),w
   941  06C9  00D9               	movwf	(??_main+0)+0
   942  06CA  01DA               	clrf	(??_main+0)+0+1
   943  06CB  0859               	movf	0+(??_main+0)+0,w
   944  06CC  00A0               	movwf	(?_setDirection)
   945  06CD  085A               	movf	1+(??_main+0)+0,w
   946  06CE  00A1               	movwf	(?_setDirection+1)
   947  06CF  120A  118A  211E   	fcall	_setDirection
              120A  118A         
   948                           	line	159
   949                           	
   950  06D4                     l7349:	
   951                           ;primary887main.c: 159: SetPulse(i2cSpeed);
   952  06D4  1283               	bcf	status, 5	;RP0=0, select bank0
   953  06D5  1303               	bcf	status, 6	;RP1=0, select bank0
   954  06D6  086E               	movf	(_i2cSpeed),w
   955  06D7  00D9               	movwf	(??_main+0)+0
   956  06D8  01DA               	clrf	(??_main+0)+0+1
   957  06D9  0859               	movf	0+(??_main+0)+0,w
   958  06DA  00A0               	movwf	(?_SetPulse)
   959  06DB  085A               	movf	1+(??_main+0)+0,w
   960  06DC  00A1               	movwf	(?_SetPulse+1)
   961  06DD  120A  118A  2151   	fcall	_SetPulse
              120A  118A         
   962                           	line	161
   963                           	
   964  06E2                     l7351:	
   965                           ;primary887main.c: 161: COUNTS = 0;
   966  06E2  1683               	bsf	status, 5	;RP0=1, select bank1
   967  06E3  1303               	bcf	status, 6	;RP1=0, select bank1
   968  06E4  01AE               	clrf	(_COUNTS)^080h
   969  06E5  01AF               	clrf	(_COUNTS+1)^080h
   970                           	line	162
   971                           	
   972  06E6                     l7353:	
   973                           ;primary887main.c: 162: I = 0;
   974  06E6  1283               	bcf	status, 5	;RP0=0, select bank0
   975  06E7  1303               	bcf	status, 6	;RP1=0, select bank0
   976  06E8  01E5               	clrf	(main@I)
   977  06E9  01E6               	clrf	(main@I+1)
   978                           	line	163
   979                           	
   980  06EA                     l7355:	
   981                           ;primary887main.c: 163: D = 0;
   982  06EA  01DB               	clrf	(main@D)
   983  06EB  01DC               	clrf	(main@D+1)
   984                           	line	164
   985                           	
   986  06EC                     l7357:	
   987                           ;primary887main.c: 164: P_old = 0;
   988  06EC  01DF               	clrf	(main@P_old)
   989  06ED  01E0               	clrf	(main@P_old+1)
   990                           	line	167
   991                           	
   992  06EE                     l7359:	
   993                           ;primary887main.c: 167: F.I2C = 0;
   994  06EE  1683               	bsf	status, 5	;RP0=1, select bank1
   995  06EF  1303               	bcf	status, 6	;RP1=0, select bank1
   996  06F0  102A               	bcf	(170)^080h,0
   997  06F1  2EF2               	goto	l7361
   998                           	line	168
   999                           	
  1000  06F2                     l1082:	
  1001                           	line	170
  1002                           	
  1003  06F2                     l7361:	
  1004                           ;primary887main.c: 168: }
  1005                           ;primary887main.c: 170: if (F.DIR == 1)
  1006  06F2  1DAA               	btfss	(170)^080h,3
  1007  06F3  2EF5               	goto	u3471
  1008  06F4  2EF6               	goto	u3470
  1009  06F5                     u3471:
  1010  06F5  2F1B               	goto	l7371
  1011  06F6                     u3470:
  1012                           	line	173
  1013                           	
  1014  06F6                     l7363:	
  1015                           ;primary887main.c: 171: {
  1016                           ;primary887main.c: 173: EncUpdate(&counts);
  1017  06F6  3067               	movlw	(main@counts)&0ffh
  1018  06F7  120A  118A  20FB   	fcall	_EncUpdate
              120A  118A         
  1019                           	line	174
  1020                           	
  1021  06FC                     l7365:	
  1022                           ;primary887main.c: 174: UpdateData(counts);
  1023  06FC  1283               	bcf	status, 5	;RP0=0, select bank0
  1024  06FD  1303               	bcf	status, 6	;RP1=0, select bank0
  1025  06FE  0868               	movf	(main@counts+1),w
  1026  06FF  01A1               	clrf	(?_UpdateData+1)
  1027  0700  07A1               	addwf	(?_UpdateData+1)
  1028  0701  0867               	movf	(main@counts),w
  1029  0702  01A0               	clrf	(?_UpdateData)
  1030  0703  07A0               	addwf	(?_UpdateData)
  1031                           
  1032  0704  120A  118A  2171   	fcall	_UpdateData
              120A  118A         
  1033                           	line	177
  1034                           	
  1035  0709                     l7367:	
  1036                           ;primary887main.c: 177: DIR_READ = RB5;
  1037  0709  1003               	clrc
  1038  070A  1283               	bcf	status, 5	;RP0=0, select bank0
  1039  070B  1303               	bcf	status, 6	;RP1=0, select bank0
  1040  070C  1A86               	btfsc	(53/8),(53)&7
  1041  070D  1403               	setc
  1042  070E  3000               	movlw	0
  1043  070F  1803               	skipnc
  1044  0710  3001               	movlw	1
  1045                           
  1046  0711  00D9               	movwf	(??_main+0)+0
  1047  0712  01DA               	clrf	(??_main+0)+0+1
  1048  0713  0859               	movf	0+(??_main+0)+0,w
  1049  0714  00E9               	movwf	(_DIR_READ)
  1050  0715  085A               	movf	1+(??_main+0)+0,w
  1051  0716  00EA               	movwf	(_DIR_READ+1)
  1052                           	line	180
  1053                           	
  1054  0717                     l7369:	
  1055                           ;primary887main.c: 180: F.DIR = 0;
  1056  0717  1683               	bsf	status, 5	;RP0=1, select bank1
  1057  0718  1303               	bcf	status, 6	;RP1=0, select bank1
  1058  0719  11AA               	bcf	(170)^080h,3
  1059  071A  2F1B               	goto	l7371
  1060                           	line	181
  1061                           	
  1062  071B                     l1083:	
  1063                           	line	186
  1064                           	
  1065  071B                     l7371:	
  1066                           ;primary887main.c: 181: }
  1067                           ;primary887main.c: 186: if (F.T0 == 1)
  1068  071B  1CAA               	btfss	(170)^080h,1
  1069  071C  2F1E               	goto	u3481
  1070  071D  2F1F               	goto	u3480
  1071  071E                     u3481:
  1072  071E  2EB6               	goto	l7341
  1073  071F                     u3480:
  1074                           	line	190
  1075                           	
  1076  071F                     l7373:	
  1077                           ;primary887main.c: 187: {
  1078                           ;primary887main.c: 190: EncUpdate(&counts);
  1079  071F  3067               	movlw	(main@counts)&0ffh
  1080  0720  120A  118A  20FB   	fcall	_EncUpdate
              120A  118A         
  1081                           	line	191
  1082                           	
  1083  0725                     l7375:	
  1084                           ;primary887main.c: 191: UpdateData(counts);
  1085  0725  1283               	bcf	status, 5	;RP0=0, select bank0
  1086  0726  1303               	bcf	status, 6	;RP1=0, select bank0
  1087  0727  0868               	movf	(main@counts+1),w
  1088  0728  01A1               	clrf	(?_UpdateData+1)
  1089  0729  07A1               	addwf	(?_UpdateData+1)
  1090  072A  0867               	movf	(main@counts),w
  1091  072B  01A0               	clrf	(?_UpdateData)
  1092  072C  07A0               	addwf	(?_UpdateData)
  1093                           
  1094  072D  120A  118A  2171   	fcall	_UpdateData
              120A  118A         
  1095                           	line	194
  1096                           	
  1097  0732                     l7377:	
  1098                           ;primary887main.c: 194: P = TARGET - counts;
  1099  0732  1283               	bcf	status, 5	;RP0=0, select bank0
  1100  0733  1303               	bcf	status, 6	;RP1=0, select bank0
  1101  0734  0967               	comf	(main@counts),w
  1102  0735  00D9               	movwf	(??_main+0)+0
  1103  0736  0968               	comf	(main@counts+1),w
  1104  0737  00DA               	movwf	((??_main+0)+0+1)
  1105  0738  0AD9               	incf	(??_main+0)+0,f
  1106  0739  1903               	skipnz
  1107  073A  0ADA               	incf	((??_main+0)+0+1),f
  1108  073B  086B               	movf	(_TARGET),w
  1109  073C  0759               	addwf	0+(??_main+0)+0,w
  1110  073D  00E3               	movwf	(main@P)
  1111  073E  086C               	movf	(_TARGET+1),w
  1112  073F  1803               	skipnc
  1113  0740  0A6C               	incf	(_TARGET+1),w
  1114  0741  075A               	addwf	1+(??_main+0)+0,w
  1115  0742  00E4               	movwf	1+(main@P)
  1116                           	line	195
  1117                           	
  1118  0743                     l7379:	
  1119                           ;primary887main.c: 195: I = I + P;
  1120  0743  0863               	movf	(main@P),w
  1121  0744  0765               	addwf	(main@I),w
  1122  0745  00E5               	movwf	(main@I)
  1123  0746  0864               	movf	(main@P+1),w
  1124  0747  1803               	skipnc
  1125  0748  0A64               	incf	(main@P+1),w
  1126  0749  0766               	addwf	(main@I+1),w
  1127  074A  00E6               	movwf	1+(main@I)
  1128                           	line	197
  1129                           	
  1130  074B                     l7381:	
  1131                           ;primary887main.c: 197: if (I > 200)
  1132  074B  0866               	movf	(main@I+1),w
  1133  074C  3A80               	xorlw	80h
  1134  074D  00FF               	movwf	btemp+1
  1135  074E  3080               	movlw	(high(0C9h))^80h
  1136  074F  027F               	subwf	btemp+1,w
  1137  0750  1D03               	skipz
  1138  0751  2F54               	goto	u3495
  1139  0752  30C9               	movlw	low(0C9h)
  1140  0753  0265               	subwf	(main@I),w
  1141  0754                     u3495:
  1142                           
  1143  0754  1C03               	skipc
  1144  0755  2F57               	goto	u3491
  1145  0756  2F58               	goto	u3490
  1146  0757                     u3491:
  1147  0757  2F5F               	goto	l7385
  1148  0758                     u3490:
  1149                           	line	198
  1150                           	
  1151  0758                     l7383:	
  1152                           ;primary887main.c: 198: I = 200;
  1153  0758  30C8               	movlw	low(0C8h)
  1154  0759  1283               	bcf	status, 5	;RP0=0, select bank0
  1155  075A  1303               	bcf	status, 6	;RP1=0, select bank0
  1156  075B  00E5               	movwf	(main@I)
  1157  075C  3000               	movlw	high(0C8h)
  1158  075D  00E6               	movwf	((main@I))+1
  1159  075E  2F76               	goto	l7389
  1160                           	line	199
  1161                           	
  1162  075F                     l1085:	
  1163                           	
  1164  075F                     l7385:	
  1165                           ;primary887main.c: 199: else if (I < -200)
  1166  075F  1283               	bcf	status, 5	;RP0=0, select bank0
  1167  0760  1303               	bcf	status, 6	;RP1=0, select bank0
  1168  0761  0866               	movf	(main@I+1),w
  1169  0762  3A80               	xorlw	80h
  1170  0763  00FF               	movwf	btemp+1
  1171  0764  307F               	movlw	(high(-200))^80h
  1172  0765  027F               	subwf	btemp+1,w
  1173  0766  1D03               	skipz
  1174  0767  2F6A               	goto	u3505
  1175  0768  3038               	movlw	low(-200)
  1176  0769  0265               	subwf	(main@I),w
  1177  076A                     u3505:
  1178                           
  1179  076A  1803               	skipnc
  1180  076B  2F6D               	goto	u3501
  1181  076C  2F6E               	goto	u3500
  1182  076D                     u3501:
  1183  076D  2F76               	goto	l7389
  1184  076E                     u3500:
  1185                           	line	200
  1186                           	
  1187  076E                     l7387:	
  1188                           ;primary887main.c: 200: I = -200;
  1189  076E  3038               	movlw	low(-200)
  1190  076F  1283               	bcf	status, 5	;RP0=0, select bank0
  1191  0770  1303               	bcf	status, 6	;RP1=0, select bank0
  1192  0771  00E5               	movwf	(main@I)
  1193  0772  30FF               	movlw	high(-200)
  1194  0773  00E6               	movwf	((main@I))+1
  1195  0774  2F76               	goto	l7389
  1196                           	
  1197  0775                     l1087:	
  1198  0775  2F76               	goto	l7389
  1199                           	line	203
  1200                           	
  1201  0776                     l1086:	
  1202                           	
  1203  0776                     l7389:	
  1204                           ;primary887main.c: 203: PID = (P * 3.0) + (I * 0.4);
  1205  0776  1283               	bcf	status, 5	;RP0=0, select bank0
  1206  0777  1303               	bcf	status, 6	;RP1=0, select bank0
  1207  0778  0864               	movf	(main@P+1),w
  1208  0779  01B7               	clrf	(?___awtoft+1)
  1209  077A  07B7               	addwf	(?___awtoft+1)
  1210  077B  0863               	movf	(main@P),w
  1211  077C  01B6               	clrf	(?___awtoft)
  1212  077D  07B6               	addwf	(?___awtoft)
  1213                           
  1214  077E  120A  118A  21E9   	fcall	___awtoft
              120A  118A         
  1215  0783  1283               	bcf	status, 5	;RP0=0, select bank0
  1216  0784  1303               	bcf	status, 6	;RP1=0, select bank0
  1217  0785  0836               	movf	(0+(?___awtoft)),w
  1218  0786  00BF               	movwf	0+(?___ftmul)+03h
  1219  0787  0837               	movf	(1+(?___awtoft)),w
  1220  0788  00C0               	movwf	1+(?___ftmul)+03h
  1221  0789  0838               	movf	(2+(?___awtoft)),w
  1222  078A  00C1               	movwf	2+(?___ftmul)+03h
  1223  078B  3000               	movlw	0x0
  1224  078C  00BC               	movwf	(?___ftmul)
  1225  078D  3040               	movlw	0x40
  1226  078E  00BD               	movwf	(?___ftmul+1)
  1227  078F  3040               	movlw	0x40
  1228  0790  00BE               	movwf	(?___ftmul+2)
  1229  0791  120A  118A  245C   	fcall	___ftmul
              120A  118A         
  1230  0796  1283               	bcf	status, 5	;RP0=0, select bank0
  1231  0797  1303               	bcf	status, 6	;RP1=0, select bank0
  1232  0798  083C               	movf	(0+(?___ftmul)),w
  1233  0799  00CF               	movwf	0+(?___ftadd)+03h
  1234  079A  083D               	movf	(1+(?___ftmul)),w
  1235  079B  00D0               	movwf	1+(?___ftadd)+03h
  1236  079C  083E               	movf	(2+(?___ftmul)),w
  1237  079D  00D1               	movwf	2+(?___ftadd)+03h
  1238  079E  0866               	movf	(main@I+1),w
  1239  079F  01B7               	clrf	(?___awtoft+1)
  1240  07A0  07B7               	addwf	(?___awtoft+1)
  1241  07A1  0865               	movf	(main@I),w
  1242  07A2  01B6               	clrf	(?___awtoft)
  1243  07A3  07B6               	addwf	(?___awtoft)
  1244                           
  1245  07A4  120A  118A  21E9   	fcall	___awtoft
              120A  118A         
  1246  07A9  1283               	bcf	status, 5	;RP0=0, select bank0
  1247  07AA  1303               	bcf	status, 6	;RP1=0, select bank0
  1248  07AB  0836               	movf	(0+(?___awtoft)),w
  1249  07AC  00BF               	movwf	0+(?___ftmul)+03h
  1250  07AD  0837               	movf	(1+(?___awtoft)),w
  1251  07AE  00C0               	movwf	1+(?___ftmul)+03h
  1252  07AF  0838               	movf	(2+(?___awtoft)),w
  1253  07B0  00C1               	movwf	2+(?___ftmul)+03h
  1254  07B1  30CD               	movlw	0xcd
  1255  07B2  00BC               	movwf	(?___ftmul)
  1256  07B3  30CC               	movlw	0xcc
  1257  07B4  00BD               	movwf	(?___ftmul+1)
  1258  07B5  303E               	movlw	0x3e
  1259  07B6  00BE               	movwf	(?___ftmul+2)
  1260  07B7  120A  118A  245C   	fcall	___ftmul
              120A  118A         
  1261  07BC  1283               	bcf	status, 5	;RP0=0, select bank0
  1262  07BD  1303               	bcf	status, 6	;RP1=0, select bank0
  1263  07BE  083C               	movf	(0+(?___ftmul)),w
  1264  07BF  00CC               	movwf	(?___ftadd)
  1265  07C0  083D               	movf	(1+(?___ftmul)),w
  1266  07C1  00CD               	movwf	(?___ftadd+1)
  1267  07C2  083E               	movf	(2+(?___ftmul)),w
  1268  07C3  00CE               	movwf	(?___ftadd+2)
  1269  07C4  120A  118A  254A   	fcall	___ftadd
              120A  118A         
  1270  07C9  1283               	bcf	status, 5	;RP0=0, select bank0
  1271  07CA  1303               	bcf	status, 6	;RP1=0, select bank0
  1272  07CB  084C               	movf	(0+(?___ftadd)),w
  1273  07CC  00A8               	movwf	(?___fttol)
  1274  07CD  084D               	movf	(1+(?___ftadd)),w
  1275  07CE  00A9               	movwf	(?___fttol+1)
  1276  07CF  084E               	movf	(2+(?___ftadd)),w
  1277  07D0  00AA               	movwf	(?___fttol+2)
  1278  07D1  120A  118A  23B6   	fcall	___fttol
              120A  118A         
  1279  07D6  1283               	bcf	status, 5	;RP0=0, select bank0
  1280  07D7  1303               	bcf	status, 6	;RP1=0, select bank0
  1281  07D8  0829               	movf	1+(((0+(?___fttol)))),w
  1282  07D9  01E2               	clrf	(main@PID+1)
  1283  07DA  07E2               	addwf	(main@PID+1)
  1284  07DB  0828               	movf	0+(((0+(?___fttol)))),w
  1285  07DC  01E1               	clrf	(main@PID)
  1286  07DD  07E1               	addwf	(main@PID)
  1287                           
  1288                           	line	204
  1289                           	
  1290  07DE                     l7391:	
  1291                           ;primary887main.c: 204: P_old = P;
  1292  07DE  0864               	movf	(main@P+1),w
  1293  07DF  01E0               	clrf	(main@P_old+1)
  1294  07E0  07E0               	addwf	(main@P_old+1)
  1295  07E1  0863               	movf	(main@P),w
  1296  07E2  01DF               	clrf	(main@P_old)
  1297  07E3  07DF               	addwf	(main@P_old)
  1298                           
  1299                           	line	206
  1300                           	
  1301  07E4                     l7393:	
  1302                           ;primary887main.c: 206: if (P != 0)
  1303  07E4  0864               	movf	(main@P+1),w
  1304  07E5  0463               	iorwf	(main@P),w
  1305  07E6  1903               	skipnz
  1306  07E7  2FE9               	goto	u3511
  1307  07E8  2FEA               	goto	u3510
  1308  07E9                     u3511:
  1309  07E9  2FF1               	goto	l7397
  1310  07EA                     u3510:
  1311                           	line	208
  1312                           	
  1313  07EA                     l7395:	
  1314                           ;primary887main.c: 207: {
  1315                           ;primary887main.c: 208: currentPWM = PID;
  1316  07EA  0862               	movf	(main@PID+1),w
  1317  07EB  01DE               	clrf	(main@currentPWM+1)
  1318  07EC  07DE               	addwf	(main@currentPWM+1)
  1319  07ED  0861               	movf	(main@PID),w
  1320  07EE  01DD               	clrf	(main@currentPWM)
  1321  07EF  07DD               	addwf	(main@currentPWM)
  1322                           
  1323  07F0  2FF1               	goto	l7397
  1324                           	line	210
  1325                           	
  1326  07F1                     l1088:	
  1327                           	line	212
  1328                           	
  1329  07F1                     l7397:	
  1330                           ;primary887main.c: 210: }
  1331                           ;primary887main.c: 212: PORTD = COUNTS;
  1332  07F1  1683               	bsf	status, 5	;RP0=1, select bank1
  1333  07F2  1303               	bcf	status, 6	;RP1=0, select bank1
  1334  07F3  082E               	movf	(_COUNTS)^080h,w
  1335  07F4  1283               	bcf	status, 5	;RP0=0, select bank0
  1336  07F5  1303               	bcf	status, 6	;RP1=0, select bank0
  1337  07F6  0088               	movwf	(8)	;volatile
  1338                           	line	213
  1339                           	
  1340  07F7                     l7399:	
  1341                           ;primary887main.c: 213: F.T0 = 0;
  1342  07F7  1683               	bsf	status, 5	;RP0=1, select bank1
  1343  07F8  1303               	bcf	status, 6	;RP1=0, select bank1
  1344  07F9  10AA               	bcf	(170)^080h,1
  1345  07FA  2EB6               	goto	l7341
  1346                           	line	214
  1347                           	
  1348  07FB                     l1084:	
  1349  07FB  2EB6               	goto	l7341
  1350                           	line	216
  1351                           	
  1352  07FC                     l1089:	
  1353                           	line	133
  1354  07FC  2EB6               	goto	l7341
  1355                           	
  1356  07FD                     l1090:	
  1357                           	line	219
  1358                           ;primary887main.c: 214: }
  1359                           ;primary887main.c: 216: }
  1360                           ;primary887main.c: 218: return 1;
  1361                           ;	Return value of _main is never used
  1362                           	
  1363  07FD                     l1091:	
  1364                           	global	start
  1365  07FD  120A  118A  2812   	ljmp	start
  1366                           	opt stack 0
  1367                           GLOBAL	__end_of_main
  1368  0800                     	__end_of_main:
  1369 ;; =============== function _main ends ============
  1370                           
  1371                           	signat	_main,90
  1372                           	global	___awtoft
  1373                           psect	text472,local,class=CODE,delta=2
  1374                           global __ptext472
  1375  01E9                     __ptext472:
  1376                           
  1377 ;; *************** function ___awtoft *****************
  1378 ;; Defined at:
  1379 ;;		line 33 in file "C:\Program Files (x86)\HI-TECH Software\PICC\9.83\sources\awtoft.c"
  1380 ;; Parameters:    Size  Location     Type
  1381 ;;  c               2   22[BANK0 ] int 
  1382 ;; Auto vars:     Size  Location     Type
  1383 ;;  sign            1   27[BANK0 ] unsigned char 
  1384 ;; Return value:  Size  Location     Type
  1385 ;;                  3   22[BANK0 ] float 
  1386 ;; Registers used:
  1387 ;;		wreg, status,2, status,0, pclath, cstack
  1388 ;; Tracked objects:
  1389 ;;		On entry : 0/0
  1390 ;;		On exit  : 0/0
  1391 ;;		Unchanged: 0/0
  1392 ;; Data sizes:     COMMON   BANK0  BANK1h  BANK1l   BANK3   BANK2
  1393 ;;      Params:         0       3       0       0       0       0
  1394 ;;      Locals:         0       1       0       0       0       0
  1395 ;;      Temps:          0       2       0       0       0       0
  1396 ;;      Totals:         0       6       0       0       0       0
  1397 ;;Total ram usage:        6 bytes
  1398 ;; Hardware stack levels used:    1
  1399 ;; Hardware stack levels required when called:    4
  1400 ;; This function calls:
  1401 ;;		___ftpack
  1402 ;; This function is called by:
  1403 ;;		_main
  1404 ;; This function uses a non-reentrant model
  1405 ;;
  1406                           psect	text472
  1407                           	file	"C:\Program Files (x86)\HI-TECH Software\PICC\9.83\sources\awtoft.c"
  1408                           	line	33
  1409                           	global	__size_of___awtoft
  1410  002C                     	__size_of___awtoft	equ	__end_of___awtoft-___awtoft
  1411                           	
  1412  01E9                     ___awtoft:	
  1413                           	opt	stack 3
  1414                           ; Regs used in ___awtoft: [wreg+status,2+status,0+pclath+cstack]
  1415                           	line	36
  1416                           	
  1417  01E9                     l7317:	
  1418  01E9  1283               	bcf	status, 5	;RP0=0, select bank0
  1419  01EA  1303               	bcf	status, 6	;RP1=0, select bank0
  1420  01EB  01BB               	clrf	(___awtoft@sign)
  1421                           	line	37
  1422  01EC  1FB7               	btfss	(___awtoft@c+1),7
  1423  01ED  29EF               	goto	u3451
  1424  01EE  29F0               	goto	u3450
  1425  01EF                     u3451:
  1426  01EF  29F9               	goto	l7321
  1427  01F0                     u3450:
  1428                           	line	38
  1429                           	
  1430  01F0                     l7319:	
  1431  01F0  09B6               	comf	(___awtoft@c),f
  1432  01F1  09B7               	comf	(___awtoft@c+1),f
  1433  01F2  0AB6               	incf	(___awtoft@c),f
  1434  01F3  1903               	skipnz
  1435  01F4  0AB7               	incf	(___awtoft@c+1),f
  1436                           	line	39
  1437  01F5  01BB               	clrf	(___awtoft@sign)
  1438  01F6  1403               	bsf	status,0
  1439  01F7  0DBB               	rlf	(___awtoft@sign),f
  1440  01F8  29F9               	goto	l7321
  1441                           	line	40
  1442                           	
  1443  01F9                     l5391:	
  1444                           	line	41
  1445                           	
  1446  01F9                     l7321:	
  1447  01F9  0836               	movf	(___awtoft@c),w
  1448  01FA  00A0               	movwf	(?___ftpack)
  1449  01FB  0837               	movf	(___awtoft@c+1),w
  1450  01FC  00A1               	movwf	(?___ftpack+1)
  1451  01FD  01A2               	clrf	(?___ftpack+2)
  1452  01FE  308E               	movlw	(08Eh)
  1453  01FF  00B9               	movwf	(??___awtoft+0)+0
  1454  0200  0839               	movf	(??___awtoft+0)+0,w
  1455  0201  00A3               	movwf	0+(?___ftpack)+03h
  1456  0202  083B               	movf	(___awtoft@sign),w
  1457  0203  00BA               	movwf	(??___awtoft+1)+0
  1458  0204  083A               	movf	(??___awtoft+1)+0,w
  1459  0205  00A4               	movwf	0+(?___ftpack)+04h
  1460  0206  120A  118A  22B2   	fcall	___ftpack
              120A  118A         
  1461  020B  1283               	bcf	status, 5	;RP0=0, select bank0
  1462  020C  1303               	bcf	status, 6	;RP1=0, select bank0
  1463  020D  0820               	movf	(0+(?___ftpack)),w
  1464  020E  00B6               	movwf	(?___awtoft)
  1465  020F  0821               	movf	(1+(?___ftpack)),w
  1466  0210  00B7               	movwf	(?___awtoft+1)
  1467  0211  0822               	movf	(2+(?___ftpack)),w
  1468  0212  00B8               	movwf	(?___awtoft+2)
  1469  0213  2A14               	goto	l5392
  1470                           	
  1471  0214                     l7323:	
  1472                           	line	42
  1473                           	
  1474  0214                     l5392:	
  1475  0214  0008               	return
  1476                           	opt stack 0
  1477                           GLOBAL	__end_of___awtoft
  1478  0215                     	__end_of___awtoft:
  1479 ;; =============== function ___awtoft ends ============
  1480                           
  1481                           	signat	___awtoft,4219
  1482                           	global	___ftmul
  1483                           psect	text473,local,class=CODE,delta=2
  1484                           global __ptext473
  1485  045C                     __ptext473:
  1486                           
  1487 ;; *************** function ___ftmul *****************
  1488 ;; Defined at:
  1489 ;;		line 52 in file "C:\Program Files (x86)\HI-TECH Software\PICC\9.83\sources\ftmul.c"
  1490 ;; Parameters:    Size  Location     Type
  1491 ;;  f1              3   28[BANK0 ] float 
  1492 ;;  f2              3   31[BANK0 ] float 
  1493 ;; Auto vars:     Size  Location     Type
  1494 ;;  f3_as_produc    3   39[BANK0 ] unsigned um
  1495 ;;  sign            1   43[BANK0 ] unsigned char 
  1496 ;;  cntr            1   42[BANK0 ] unsigned char 
  1497 ;;  exp             1   38[BANK0 ] unsigned char 
  1498 ;; Return value:  Size  Location     Type
  1499 ;;                  3   28[BANK0 ] float 
  1500 ;; Registers used:
  1501 ;;		wreg, status,2, status,0, pclath, cstack
  1502 ;; Tracked objects:
  1503 ;;		On entry : 0/0
  1504 ;;		On exit  : 0/0
  1505 ;;		Unchanged: 0/0
  1506 ;; Data sizes:     COMMON   BANK0  BANK1h  BANK1l   BANK3   BANK2
  1507 ;;      Params:         0       6       0       0       0       0
  1508 ;;      Locals:         0       6       0       0       0       0
  1509 ;;      Temps:          0       4       0       0       0       0
  1510 ;;      Totals:         0      16       0       0       0       0
  1511 ;;Total ram usage:       16 bytes
  1512 ;; Hardware stack levels used:    1
  1513 ;; Hardware stack levels required when called:    4
  1514 ;; This function calls:
  1515 ;;		___ftpack
  1516 ;; This function is called by:
  1517 ;;		_main
  1518 ;; This function uses a non-reentrant model
  1519 ;;
  1520                           psect	text473
  1521                           	file	"C:\Program Files (x86)\HI-TECH Software\PICC\9.83\sources\ftmul.c"
  1522                           	line	52
  1523                           	global	__size_of___ftmul
  1524  00EE                     	__size_of___ftmul	equ	__end_of___ftmul-___ftmul
  1525                           	
  1526  045C                     ___ftmul:	
  1527                           	opt	stack 3
  1528                           ; Regs used in ___ftmul: [wreg+status,2+status,0+pclath+cstack]
  1529                           	line	56
  1530                           	
  1531  045C                     l7267:	
  1532  045C  1283               	bcf	status, 5	;RP0=0, select bank0
  1533  045D  1303               	bcf	status, 6	;RP1=0, select bank0
  1534  045E  083C               	movf	(___ftmul@f1),w
  1535  045F  00C2               	movwf	((??___ftmul+0)+0)
  1536  0460  083D               	movf	(___ftmul@f1+1),w
  1537  0461  00C3               	movwf	((??___ftmul+0)+0+1)
  1538  0462  083E               	movf	(___ftmul@f1+2),w
  1539  0463  00C4               	movwf	((??___ftmul+0)+0+2)
  1540  0464  1003               	clrc
  1541  0465  0D43               	rlf	(??___ftmul+0)+1,w
  1542  0466  0D44               	rlf	(??___ftmul+0)+2,w
  1543  0467  00C5               	movwf	(??___ftmul+3)+0
  1544  0468  0845               	movf	(??___ftmul+3)+0,w
  1545  0469  00C6               	movwf	(___ftmul@exp)
  1546  046A  08C6               	movf	((___ftmul@exp)),f
  1547  046B  1D03               	skipz
  1548  046C  2C6E               	goto	u3311
  1549  046D  2C6F               	goto	u3310
  1550  046E                     u3311:
  1551  046E  2C77               	goto	l7273
  1552  046F                     u3310:
  1553                           	line	57
  1554                           	
  1555  046F                     l7269:	
  1556  046F  3000               	movlw	0x0
  1557  0470  00BC               	movwf	(?___ftmul)
  1558  0471  3000               	movlw	0x0
  1559  0472  00BD               	movwf	(?___ftmul+1)
  1560  0473  3000               	movlw	0x0
  1561  0474  00BE               	movwf	(?___ftmul+2)
  1562  0475  2D49               	goto	l5354
  1563                           	
  1564  0476                     l7271:	
  1565  0476  2D49               	goto	l5354
  1566                           	
  1567  0477                     l5353:	
  1568                           	line	58
  1569                           	
  1570  0477                     l7273:	
  1571  0477  083F               	movf	(___ftmul@f2),w
  1572  0478  00C2               	movwf	((??___ftmul+0)+0)
  1573  0479  0840               	movf	(___ftmul@f2+1),w
  1574  047A  00C3               	movwf	((??___ftmul+0)+0+1)
  1575  047B  0841               	movf	(___ftmul@f2+2),w
  1576  047C  00C4               	movwf	((??___ftmul+0)+0+2)
  1577  047D  1003               	clrc
  1578  047E  0D43               	rlf	(??___ftmul+0)+1,w
  1579  047F  0D44               	rlf	(??___ftmul+0)+2,w
  1580  0480  00C5               	movwf	(??___ftmul+3)+0
  1581  0481  0845               	movf	(??___ftmul+3)+0,w
  1582  0482  00CB               	movwf	(___ftmul@sign)
  1583  0483  08CB               	movf	((___ftmul@sign)),f
  1584  0484  1D03               	skipz
  1585  0485  2C87               	goto	u3321
  1586  0486  2C88               	goto	u3320
  1587  0487                     u3321:
  1588  0487  2C90               	goto	l7279
  1589  0488                     u3320:
  1590                           	line	59
  1591                           	
  1592  0488                     l7275:	
  1593  0488  3000               	movlw	0x0
  1594  0489  00BC               	movwf	(?___ftmul)
  1595  048A  3000               	movlw	0x0
  1596  048B  00BD               	movwf	(?___ftmul+1)
  1597  048C  3000               	movlw	0x0
  1598  048D  00BE               	movwf	(?___ftmul+2)
  1599  048E  2D49               	goto	l5354
  1600                           	
  1601  048F                     l7277:	
  1602  048F  2D49               	goto	l5354
  1603                           	
  1604  0490                     l5355:	
  1605                           	line	60
  1606                           	
  1607  0490                     l7279:	
  1608  0490  084B               	movf	(___ftmul@sign),w
  1609  0491  3E7B               	addlw	07Bh
  1610  0492  00C2               	movwf	(??___ftmul+0)+0
  1611  0493  0842               	movf	(??___ftmul+0)+0,w
  1612  0494  07C6               	addwf	(___ftmul@exp),f
  1613                           	line	61
  1614  0495  083C               	movf	(___ftmul@f1),w
  1615  0496  00C2               	movwf	((??___ftmul+0)+0)
  1616  0497  083D               	movf	(___ftmul@f1+1),w
  1617  0498  00C3               	movwf	((??___ftmul+0)+0+1)
  1618  0499  083E               	movf	(___ftmul@f1+2),w
  1619  049A  00C4               	movwf	((??___ftmul+0)+0+2)
  1620  049B  3010               	movlw	010h
  1621  049C                     u3335:
  1622  049C  1003               	clrc
  1623  049D  0CC4               	rrf	(??___ftmul+0)+2,f
  1624  049E  0CC3               	rrf	(??___ftmul+0)+1,f
  1625  049F  0CC2               	rrf	(??___ftmul+0)+0,f
  1626  04A0                     u3330:
  1627  04A0  3EFF               	addlw	-1
  1628  04A1  1D03               	skipz
  1629  04A2  2C9C               	goto	u3335
  1630  04A3  0842               	movf	0+(??___ftmul+0)+0,w
  1631  04A4  00C5               	movwf	(??___ftmul+3)+0
  1632  04A5  0845               	movf	(??___ftmul+3)+0,w
  1633  04A6  00CB               	movwf	(___ftmul@sign)
  1634                           	line	62
  1635  04A7  083F               	movf	(___ftmul@f2),w
  1636  04A8  00C2               	movwf	((??___ftmul+0)+0)
  1637  04A9  0840               	movf	(___ftmul@f2+1),w
  1638  04AA  00C3               	movwf	((??___ftmul+0)+0+1)
  1639  04AB  0841               	movf	(___ftmul@f2+2),w
  1640  04AC  00C4               	movwf	((??___ftmul+0)+0+2)
  1641  04AD  3010               	movlw	010h
  1642  04AE                     u3345:
  1643  04AE  1003               	clrc
  1644  04AF  0CC4               	rrf	(??___ftmul+0)+2,f
  1645  04B0  0CC3               	rrf	(??___ftmul+0)+1,f
  1646  04B1  0CC2               	rrf	(??___ftmul+0)+0,f
  1647  04B2                     u3340:
  1648  04B2  3EFF               	addlw	-1
  1649  04B3  1D03               	skipz
  1650  04B4  2CAE               	goto	u3345
  1651  04B5  0842               	movf	0+(??___ftmul+0)+0,w
  1652  04B6  00C5               	movwf	(??___ftmul+3)+0
  1653  04B7  0845               	movf	(??___ftmul+3)+0,w
  1654  04B8  06CB               	xorwf	(___ftmul@sign),f
  1655                           	line	63
  1656  04B9  3080               	movlw	(080h)
  1657  04BA  00C2               	movwf	(??___ftmul+0)+0
  1658  04BB  0842               	movf	(??___ftmul+0)+0,w
  1659  04BC  05CB               	andwf	(___ftmul@sign),f
  1660                           	line	64
  1661                           	
  1662  04BD                     l7281:	
  1663  04BD  17BD               	bsf	(___ftmul@f1)+(15/8),(15)&7
  1664                           	line	66
  1665                           	
  1666  04BE                     l7283:	
  1667  04BE  17C0               	bsf	(___ftmul@f2)+(15/8),(15)&7
  1668                           	line	67
  1669                           	
  1670  04BF                     l7285:	
  1671  04BF  30FF               	movlw	0FFh
  1672  04C0  05BF               	andwf	(___ftmul@f2),f
  1673  04C1  30FF               	movlw	0FFh
  1674  04C2  05C0               	andwf	(___ftmul@f2+1),f
  1675  04C3  3000               	movlw	0
  1676  04C4  05C1               	andwf	(___ftmul@f2+2),f
  1677                           	line	68
  1678                           	
  1679  04C5                     l7287:	
  1680  04C5  3000               	movlw	0
  1681  04C6  00C7               	movwf	(___ftmul@f3_as_product)
  1682  04C7  3000               	movlw	0
  1683  04C8  00C8               	movwf	(___ftmul@f3_as_product+1)
  1684  04C9  3000               	movlw	0
  1685  04CA  00C9               	movwf	(___ftmul@f3_as_product+2)
  1686                           	line	69
  1687                           	
  1688  04CB                     l7289:	
  1689  04CB  3007               	movlw	(07h)
  1690  04CC  00C2               	movwf	(??___ftmul+0)+0
  1691  04CD  0842               	movf	(??___ftmul+0)+0,w
  1692  04CE  00CA               	movwf	(___ftmul@cntr)
  1693  04CF  2CD0               	goto	l7291
  1694                           	line	70
  1695                           	
  1696  04D0                     l5356:	
  1697                           	line	71
  1698                           	
  1699  04D0                     l7291:	
  1700  04D0  1C3C               	btfss	(___ftmul@f1),(0)&7
  1701  04D1  2CD3               	goto	u3351
  1702  04D2  2CD4               	goto	u3350
  1703  04D3                     u3351:
  1704  04D3  2CE5               	goto	l7295
  1705  04D4                     u3350:
  1706                           	line	72
  1707                           	
  1708  04D4                     l7293:	
  1709  04D4  083F               	movf	(___ftmul@f2),w
  1710  04D5  07C7               	addwf	(___ftmul@f3_as_product),f
  1711  04D6  0840               	movf	(___ftmul@f2+1),w
  1712  04D7  1103               	clrz
  1713  04D8  1803               	skipnc
  1714  04D9  0A40               	incf	(___ftmul@f2+1),w
  1715  04DA  1903               	skipnz
  1716  04DB  2CDD               	goto	u3361
  1717  04DC  07C8               	addwf	(___ftmul@f3_as_product+1),f
  1718  04DD                     u3361:
  1719  04DD  0841               	movf	(___ftmul@f2+2),w
  1720  04DE  1103               	clrz
  1721  04DF  1803               	skipnc
  1722  04E0  0A41               	incf	(___ftmul@f2+2),w
  1723  04E1  1903               	skipnz
  1724  04E2  2CE4               	goto	u3362
  1725  04E3  07C9               	addwf	(___ftmul@f3_as_product+2),f
  1726  04E4                     u3362:
  1727                           
  1728  04E4  2CE5               	goto	l7295
  1729                           	
  1730  04E5                     l5357:	
  1731                           	line	73
  1732                           	
  1733  04E5                     l7295:	
  1734  04E5  3001               	movlw	01h
  1735  04E6                     u3375:
  1736  04E6  1003               	clrc
  1737  04E7  0CBE               	rrf	(___ftmul@f1+2),f
  1738  04E8  0CBD               	rrf	(___ftmul@f1+1),f
  1739  04E9  0CBC               	rrf	(___ftmul@f1),f
  1740  04EA  3EFF               	addlw	-1
  1741  04EB  1D03               	skipz
  1742  04EC  2CE6               	goto	u3375
  1743                           
  1744                           	line	74
  1745                           	
  1746  04ED                     l7297:	
  1747  04ED  3001               	movlw	01h
  1748  04EE                     u3385:
  1749  04EE  1003               	clrc
  1750  04EF  0DBF               	rlf	(___ftmul@f2),f
  1751  04F0  0DC0               	rlf	(___ftmul@f2+1),f
  1752  04F1  0DC1               	rlf	(___ftmul@f2+2),f
  1753  04F2  3EFF               	addlw	-1
  1754  04F3  1D03               	skipz
  1755  04F4  2CEE               	goto	u3385
  1756                           	line	75
  1757                           	
  1758  04F5                     l7299:	
  1759  04F5  3001               	movlw	low(01h)
  1760  04F6  02CA               	subwf	(___ftmul@cntr),f
  1761  04F7  1D03               	btfss	status,2
  1762  04F8  2CFA               	goto	u3391
  1763  04F9  2CFB               	goto	u3390
  1764  04FA                     u3391:
  1765  04FA  2CD0               	goto	l7291
  1766  04FB                     u3390:
  1767  04FB  2CFC               	goto	l7301
  1768                           	
  1769  04FC                     l5358:	
  1770                           	line	76
  1771                           	
  1772  04FC                     l7301:	
  1773  04FC  3009               	movlw	(09h)
  1774  04FD  00C2               	movwf	(??___ftmul+0)+0
  1775  04FE  0842               	movf	(??___ftmul+0)+0,w
  1776  04FF  00CA               	movwf	(___ftmul@cntr)
  1777  0500  2D01               	goto	l7303
  1778                           	line	77
  1779                           	
  1780  0501                     l5359:	
  1781                           	line	78
  1782                           	
  1783  0501                     l7303:	
  1784  0501  1C3C               	btfss	(___ftmul@f1),(0)&7
  1785  0502  2D04               	goto	u3401
  1786  0503  2D05               	goto	u3400
  1787  0504                     u3401:
  1788  0504  2D16               	goto	l7307
  1789  0505                     u3400:
  1790                           	line	79
  1791                           	
  1792  0505                     l7305:	
  1793  0505  083F               	movf	(___ftmul@f2),w
  1794  0506  07C7               	addwf	(___ftmul@f3_as_product),f
  1795  0507  0840               	movf	(___ftmul@f2+1),w
  1796  0508  1103               	clrz
  1797  0509  1803               	skipnc
  1798  050A  0A40               	incf	(___ftmul@f2+1),w
  1799  050B  1903               	skipnz
  1800  050C  2D0E               	goto	u3411
  1801  050D  07C8               	addwf	(___ftmul@f3_as_product+1),f
  1802  050E                     u3411:
  1803  050E  0841               	movf	(___ftmul@f2+2),w
  1804  050F  1103               	clrz
  1805  0510  1803               	skipnc
  1806  0511  0A41               	incf	(___ftmul@f2+2),w
  1807  0512  1903               	skipnz
  1808  0513  2D15               	goto	u3412
  1809  0514  07C9               	addwf	(___ftmul@f3_as_product+2),f
  1810  0515                     u3412:
  1811                           
  1812  0515  2D16               	goto	l7307
  1813                           	
  1814  0516                     l5360:	
  1815                           	line	80
  1816                           	
  1817  0516                     l7307:	
  1818  0516  3001               	movlw	01h
  1819  0517                     u3425:
  1820  0517  1003               	clrc
  1821  0518  0CBE               	rrf	(___ftmul@f1+2),f
  1822  0519  0CBD               	rrf	(___ftmul@f1+1),f
  1823  051A  0CBC               	rrf	(___ftmul@f1),f
  1824  051B  3EFF               	addlw	-1
  1825  051C  1D03               	skipz
  1826  051D  2D17               	goto	u3425
  1827                           
  1828                           	line	81
  1829                           	
  1830  051E                     l7309:	
  1831  051E  3001               	movlw	01h
  1832  051F                     u3435:
  1833  051F  1003               	clrc
  1834  0520  0CC9               	rrf	(___ftmul@f3_as_product+2),f
  1835  0521  0CC8               	rrf	(___ftmul@f3_as_product+1),f
  1836  0522  0CC7               	rrf	(___ftmul@f3_as_product),f
  1837  0523  3EFF               	addlw	-1
  1838  0524  1D03               	skipz
  1839  0525  2D1F               	goto	u3435
  1840                           
  1841                           	line	82
  1842                           	
  1843  0526                     l7311:	
  1844  0526  3001               	movlw	low(01h)
  1845  0527  02CA               	subwf	(___ftmul@cntr),f
  1846  0528  1D03               	btfss	status,2
  1847  0529  2D2B               	goto	u3441
  1848  052A  2D2C               	goto	u3440
  1849  052B                     u3441:
  1850  052B  2D01               	goto	l7303
  1851  052C                     u3440:
  1852  052C  2D2D               	goto	l7313
  1853                           	
  1854  052D                     l5361:	
  1855                           	line	83
  1856                           	
  1857  052D                     l7313:	
  1858  052D  0847               	movf	(___ftmul@f3_as_product),w
  1859  052E  00A0               	movwf	(?___ftpack)
  1860  052F  0848               	movf	(___ftmul@f3_as_product+1),w
  1861  0530  00A1               	movwf	(?___ftpack+1)
  1862  0531  0849               	movf	(___ftmul@f3_as_product+2),w
  1863  0532  00A2               	movwf	(?___ftpack+2)
  1864  0533  0846               	movf	(___ftmul@exp),w
  1865  0534  00C2               	movwf	(??___ftmul+0)+0
  1866  0535  0842               	movf	(??___ftmul+0)+0,w
  1867  0536  00A3               	movwf	0+(?___ftpack)+03h
  1868  0537  084B               	movf	(___ftmul@sign),w
  1869  0538  00C3               	movwf	(??___ftmul+1)+0
  1870  0539  0843               	movf	(??___ftmul+1)+0,w
  1871  053A  00A4               	movwf	0+(?___ftpack)+04h
  1872  053B  120A  118A  22B2   	fcall	___ftpack
              120A  118A         
  1873  0540  1283               	bcf	status, 5	;RP0=0, select bank0
  1874  0541  1303               	bcf	status, 6	;RP1=0, select bank0
  1875  0542  0820               	movf	(0+(?___ftpack)),w
  1876  0543  00BC               	movwf	(?___ftmul)
  1877  0544  0821               	movf	(1+(?___ftpack)),w
  1878  0545  00BD               	movwf	(?___ftmul+1)
  1879  0546  0822               	movf	(2+(?___ftpack)),w
  1880  0547  00BE               	movwf	(?___ftmul+2)
  1881  0548  2D49               	goto	l5354
  1882                           	
  1883  0549                     l7315:	
  1884                           	line	84
  1885                           	
  1886  0549                     l5354:	
  1887  0549  0008               	return
  1888                           	opt stack 0
  1889                           GLOBAL	__end_of___ftmul
  1890  054A                     	__end_of___ftmul:
  1891 ;; =============== function ___ftmul ends ============
  1892                           
  1893                           	signat	___ftmul,8315
  1894                           	global	___ftadd
  1895                           psect	text474,local,class=CODE,delta=2
  1896                           global __ptext474
  1897  054A                     __ptext474:
  1898                           
  1899 ;; *************** function ___ftadd *****************
  1900 ;; Defined at:
  1901 ;;		line 87 in file "C:\Program Files (x86)\HI-TECH Software\PICC\9.83\sources\ftadd.c"
  1902 ;; Parameters:    Size  Location     Type
  1903 ;;  f1              3   44[BANK0 ] float 
  1904 ;;  f2              3   47[BANK0 ] float 
  1905 ;; Auto vars:     Size  Location     Type
  1906 ;;  exp1            1   56[BANK0 ] unsigned char 
  1907 ;;  exp2            1   55[BANK0 ] unsigned char 
  1908 ;;  sign            1   54[BANK0 ] unsigned char 
  1909 ;; Return value:  Size  Location     Type
  1910 ;;                  3   44[BANK0 ] float 
  1911 ;; Registers used:
  1912 ;;		wreg, status,2, status,0, pclath, cstack
  1913 ;; Tracked objects:
  1914 ;;		On entry : 0/0
  1915 ;;		On exit  : 0/0
  1916 ;;		Unchanged: 0/0
  1917 ;; Data sizes:     COMMON   BANK0  BANK1h  BANK1l   BANK3   BANK2
  1918 ;;      Params:         0       6       0       0       0       0
  1919 ;;      Locals:         0       3       0       0       0       0
  1920 ;;      Temps:          0       4       0       0       0       0
  1921 ;;      Totals:         0      13       0       0       0       0
  1922 ;;Total ram usage:       13 bytes
  1923 ;; Hardware stack levels used:    1
  1924 ;; Hardware stack levels required when called:    4
  1925 ;; This function calls:
  1926 ;;		___ftpack
  1927 ;; This function is called by:
  1928 ;;		_main
  1929 ;;		___ftsub
  1930 ;; This function uses a non-reentrant model
  1931 ;;
  1932                           psect	text474
  1933                           	file	"C:\Program Files (x86)\HI-TECH Software\PICC\9.83\sources\ftadd.c"
  1934                           	line	87
  1935                           	global	__size_of___ftadd
  1936  0146                     	__size_of___ftadd	equ	__end_of___ftadd-___ftadd
  1937                           	
  1938  054A                     ___ftadd:	
  1939                           	opt	stack 3
  1940                           ; Regs used in ___ftadd: [wreg+status,2+status,0+pclath+cstack]
  1941                           	line	90
  1942                           	
  1943  054A                     l7197:	
  1944  054A  1283               	bcf	status, 5	;RP0=0, select bank0
  1945  054B  1303               	bcf	status, 6	;RP1=0, select bank0
  1946  054C  084C               	movf	(___ftadd@f1),w
  1947  054D  00D2               	movwf	((??___ftadd+0)+0)
  1948  054E  084D               	movf	(___ftadd@f1+1),w
  1949  054F  00D3               	movwf	((??___ftadd+0)+0+1)
  1950  0550  084E               	movf	(___ftadd@f1+2),w
  1951  0551  00D4               	movwf	((??___ftadd+0)+0+2)
  1952  0552  1003               	clrc
  1953  0553  0D53               	rlf	(??___ftadd+0)+1,w
  1954  0554  0D54               	rlf	(??___ftadd+0)+2,w
  1955  0555  00D5               	movwf	(??___ftadd+3)+0
  1956  0556  0855               	movf	(??___ftadd+3)+0,w
  1957  0557  00D8               	movwf	(___ftadd@exp1)
  1958                           	line	91
  1959  0558  084F               	movf	(___ftadd@f2),w
  1960  0559  00D2               	movwf	((??___ftadd+0)+0)
  1961  055A  0850               	movf	(___ftadd@f2+1),w
  1962  055B  00D3               	movwf	((??___ftadd+0)+0+1)
  1963  055C  0851               	movf	(___ftadd@f2+2),w
  1964  055D  00D4               	movwf	((??___ftadd+0)+0+2)
  1965  055E  1003               	clrc
  1966  055F  0D53               	rlf	(??___ftadd+0)+1,w
  1967  0560  0D54               	rlf	(??___ftadd+0)+2,w
  1968  0561  00D5               	movwf	(??___ftadd+3)+0
  1969  0562  0855               	movf	(??___ftadd+3)+0,w
  1970  0563  00D7               	movwf	(___ftadd@exp2)
  1971                           	line	92
  1972                           	
  1973  0564                     l7199:	
  1974  0564  0858               	movf	(___ftadd@exp1),w
  1975  0565  1D03               	skipz
  1976  0566  2D68               	goto	u3070
  1977  0567  2D79               	goto	l7205
  1978  0568                     u3070:
  1979                           	
  1980  0568                     l7201:	
  1981  0568  0857               	movf	(___ftadd@exp2),w
  1982  0569  0258               	subwf	(___ftadd@exp1),w
  1983  056A  1803               	skipnc
  1984  056B  2D6D               	goto	u3081
  1985  056C  2D6E               	goto	u3080
  1986  056D                     u3081:
  1987  056D  2D81               	goto	l7209
  1988  056E                     u3080:
  1989                           	
  1990  056E                     l7203:	
  1991  056E  0358               	decf	(___ftadd@exp1),w
  1992  056F  3AFF               	xorlw	0ffh
  1993  0570  0757               	addwf	(___ftadd@exp2),w
  1994  0571  00D2               	movwf	(??___ftadd+0)+0
  1995  0572  3019               	movlw	(019h)
  1996  0573  0252               	subwf	0+(??___ftadd+0)+0,w
  1997  0574  1C03               	skipc
  1998  0575  2D77               	goto	u3091
  1999  0576  2D78               	goto	u3090
  2000  0577                     u3091:
  2001  0577  2D81               	goto	l7209
  2002  0578                     u3090:
  2003  0578  2D79               	goto	l7205
  2004                           	
  2005  0579                     l5301:	
  2006                           	line	93
  2007                           	
  2008  0579                     l7205:	
  2009  0579  084F               	movf	(___ftadd@f2),w
  2010  057A  00CC               	movwf	(?___ftadd)
  2011  057B  0850               	movf	(___ftadd@f2+1),w
  2012  057C  00CD               	movwf	(?___ftadd+1)
  2013  057D  0851               	movf	(___ftadd@f2+2),w
  2014  057E  00CE               	movwf	(?___ftadd+2)
  2015  057F  2E8F               	goto	l5302
  2016                           	
  2017  0580                     l7207:	
  2018  0580  2E8F               	goto	l5302
  2019                           	
  2020  0581                     l5299:	
  2021                           	line	94
  2022                           	
  2023  0581                     l7209:	
  2024  0581  0857               	movf	(___ftadd@exp2),w
  2025  0582  1D03               	skipz
  2026  0583  2D85               	goto	u3100
  2027  0584  2D95               	goto	l5305
  2028  0585                     u3100:
  2029                           	
  2030  0585                     l7211:	
  2031  0585  0858               	movf	(___ftadd@exp1),w
  2032  0586  0257               	subwf	(___ftadd@exp2),w
  2033  0587  1803               	skipnc
  2034  0588  2D8A               	goto	u3111
  2035  0589  2D8B               	goto	u3110
  2036  058A                     u3111:
  2037  058A  2D96               	goto	l7215
  2038  058B                     u3110:
  2039                           	
  2040  058B                     l7213:	
  2041  058B  0357               	decf	(___ftadd@exp2),w
  2042  058C  3AFF               	xorlw	0ffh
  2043  058D  0758               	addwf	(___ftadd@exp1),w
  2044  058E  00D2               	movwf	(??___ftadd+0)+0
  2045  058F  3019               	movlw	(019h)
  2046  0590  0252               	subwf	0+(??___ftadd+0)+0,w
  2047  0591  1C03               	skipc
  2048  0592  2D94               	goto	u3121
  2049  0593  2D95               	goto	u3120
  2050  0594                     u3121:
  2051  0594  2D96               	goto	l7215
  2052  0595                     u3120:
  2053                           	
  2054  0595                     l5305:	
  2055                           	line	95
  2056  0595  2E8F               	goto	l5302
  2057                           	
  2058  0596                     l5303:	
  2059                           	line	96
  2060                           	
  2061  0596                     l7215:	
  2062  0596  3006               	movlw	(06h)
  2063  0597  00D2               	movwf	(??___ftadd+0)+0
  2064  0598  0852               	movf	(??___ftadd+0)+0,w
  2065  0599  00D6               	movwf	(___ftadd@sign)
  2066                           	line	97
  2067                           	
  2068  059A                     l7217:	
  2069  059A  1FCE               	btfss	(___ftadd@f1+2),(23)&7
  2070  059B  2D9D               	goto	u3131
  2071  059C  2D9E               	goto	u3130
  2072  059D                     u3131:
  2073  059D  2D9F               	goto	l5306
  2074  059E                     u3130:
  2075                           	line	98
  2076                           	
  2077  059E                     l7219:	
  2078  059E  17D6               	bsf	(___ftadd@sign)+(7/8),(7)&7
  2079                           	
  2080  059F                     l5306:	
  2081                           	line	99
  2082  059F  1FD1               	btfss	(___ftadd@f2+2),(23)&7
  2083  05A0  2DA2               	goto	u3141
  2084  05A1  2DA3               	goto	u3140
  2085  05A2                     u3141:
  2086  05A2  2DA4               	goto	l5307
  2087  05A3                     u3140:
  2088                           	line	100
  2089                           	
  2090  05A3                     l7221:	
  2091  05A3  1756               	bsf	(___ftadd@sign)+(6/8),(6)&7
  2092                           	
  2093  05A4                     l5307:	
  2094                           	line	101
  2095  05A4  17CD               	bsf	(___ftadd@f1)+(15/8),(15)&7
  2096                           	line	102
  2097                           	
  2098  05A5                     l7223:	
  2099  05A5  30FF               	movlw	0FFh
  2100  05A6  05CC               	andwf	(___ftadd@f1),f
  2101  05A7  30FF               	movlw	0FFh
  2102  05A8  05CD               	andwf	(___ftadd@f1+1),f
  2103  05A9  3000               	movlw	0
  2104  05AA  05CE               	andwf	(___ftadd@f1+2),f
  2105                           	line	103
  2106                           	
  2107  05AB                     l7225:	
  2108  05AB  17D0               	bsf	(___ftadd@f2)+(15/8),(15)&7
  2109                           	line	104
  2110  05AC  30FF               	movlw	0FFh
  2111  05AD  05CF               	andwf	(___ftadd@f2),f
  2112  05AE  30FF               	movlw	0FFh
  2113  05AF  05D0               	andwf	(___ftadd@f2+1),f
  2114  05B0  3000               	movlw	0
  2115  05B1  05D1               	andwf	(___ftadd@f2+2),f
  2116                           	line	106
  2117  05B2  0857               	movf	(___ftadd@exp2),w
  2118  05B3  0258               	subwf	(___ftadd@exp1),w
  2119  05B4  1803               	skipnc
  2120  05B5  2DB7               	goto	u3151
  2121  05B6  2DB8               	goto	u3150
  2122  05B7                     u3151:
  2123  05B7  2DE9               	goto	l7237
  2124  05B8                     u3150:
  2125  05B8  2DB9               	goto	l7227
  2126                           	line	109
  2127                           	
  2128  05B9                     l5309:	
  2129                           	line	110
  2130                           	
  2131  05B9                     l7227:	
  2132  05B9  3001               	movlw	01h
  2133  05BA                     u3165:
  2134  05BA  1003               	clrc
  2135  05BB  0DCF               	rlf	(___ftadd@f2),f
  2136  05BC  0DD0               	rlf	(___ftadd@f2+1),f
  2137  05BD  0DD1               	rlf	(___ftadd@f2+2),f
  2138  05BE  3EFF               	addlw	-1
  2139  05BF  1D03               	skipz
  2140  05C0  2DBA               	goto	u3165
  2141                           	line	111
  2142  05C1  3001               	movlw	low(01h)
  2143  05C2  02D7               	subwf	(___ftadd@exp2),f
  2144                           	line	112
  2145                           	
  2146  05C3                     l7229:	
  2147  05C3  0857               	movf	(___ftadd@exp2),w
  2148  05C4  0658               	xorwf	(___ftadd@exp1),w
  2149  05C5  1903               	skipnz
  2150  05C6  2DC8               	goto	u3171
  2151  05C7  2DC9               	goto	u3170
  2152  05C8                     u3171:
  2153  05C8  2DE1               	goto	l7235
  2154  05C9                     u3170:
  2155                           	
  2156  05C9                     l7231:	
  2157  05C9  3001               	movlw	low(01h)
  2158  05CA  02D6               	subwf	(___ftadd@sign),f
  2159  05CB  0856               	movf	((___ftadd@sign)),w
  2160  05CC  3907               	andlw	07h
  2161  05CD  1D03               	btfss	status,2
  2162  05CE  2DD0               	goto	u3181
  2163  05CF  2DD1               	goto	u3180
  2164  05D0                     u3181:
  2165  05D0  2DB9               	goto	l7227
  2166  05D1                     u3180:
  2167  05D1  2DE1               	goto	l7235
  2168                           	
  2169  05D2                     l5311:	
  2170  05D2  2DE1               	goto	l7235
  2171                           	
  2172  05D3                     l5312:	
  2173                           	line	113
  2174  05D3  2DE1               	goto	l7235
  2175                           	
  2176  05D4                     l5314:	
  2177                           	line	114
  2178                           	
  2179  05D4                     l7233:	
  2180  05D4  3001               	movlw	01h
  2181  05D5                     u3195:
  2182  05D5  1003               	clrc
  2183  05D6  0CCE               	rrf	(___ftadd@f1+2),f
  2184  05D7  0CCD               	rrf	(___ftadd@f1+1),f
  2185  05D8  0CCC               	rrf	(___ftadd@f1),f
  2186  05D9  3EFF               	addlw	-1
  2187  05DA  1D03               	skipz
  2188  05DB  2DD5               	goto	u3195
  2189                           
  2190                           	line	115
  2191  05DC  3001               	movlw	(01h)
  2192  05DD  00D2               	movwf	(??___ftadd+0)+0
  2193  05DE  0852               	movf	(??___ftadd+0)+0,w
  2194  05DF  07D8               	addwf	(___ftadd@exp1),f
  2195  05E0  2DE1               	goto	l7235
  2196                           	line	116
  2197                           	
  2198  05E1                     l5313:	
  2199                           	line	113
  2200                           	
  2201  05E1                     l7235:	
  2202  05E1  0858               	movf	(___ftadd@exp1),w
  2203  05E2  0657               	xorwf	(___ftadd@exp2),w
  2204  05E3  1D03               	skipz
  2205  05E4  2DE6               	goto	u3201
  2206  05E5  2DE7               	goto	u3200
  2207  05E6                     u3201:
  2208  05E6  2DD4               	goto	l7233
  2209  05E7                     u3200:
  2210  05E7  2E20               	goto	l5316
  2211                           	
  2212  05E8                     l5315:	
  2213                           	line	117
  2214  05E8  2E20               	goto	l5316
  2215                           	
  2216  05E9                     l5308:	
  2217                           	
  2218  05E9                     l7237:	
  2219  05E9  0858               	movf	(___ftadd@exp1),w
  2220  05EA  0257               	subwf	(___ftadd@exp2),w
  2221  05EB  1803               	skipnc
  2222  05EC  2DEE               	goto	u3211
  2223  05ED  2DEF               	goto	u3210
  2224  05EE                     u3211:
  2225  05EE  2E20               	goto	l5316
  2226  05EF                     u3210:
  2227  05EF  2DF0               	goto	l7239
  2228                           	line	120
  2229                           	
  2230  05F0                     l5318:	
  2231                           	line	121
  2232                           	
  2233  05F0                     l7239:	
  2234  05F0  3001               	movlw	01h
  2235  05F1                     u3225:
  2236  05F1  1003               	clrc
  2237  05F2  0DCC               	rlf	(___ftadd@f1),f
  2238  05F3  0DCD               	rlf	(___ftadd@f1+1),f
  2239  05F4  0DCE               	rlf	(___ftadd@f1+2),f
  2240  05F5  3EFF               	addlw	-1
  2241  05F6  1D03               	skipz
  2242  05F7  2DF1               	goto	u3225
  2243                           	line	122
  2244  05F8  3001               	movlw	low(01h)
  2245  05F9  02D8               	subwf	(___ftadd@exp1),f
  2246                           	line	123
  2247                           	
  2248  05FA                     l7241:	
  2249  05FA  0857               	movf	(___ftadd@exp2),w
  2250  05FB  0658               	xorwf	(___ftadd@exp1),w
  2251  05FC  1903               	skipnz
  2252  05FD  2DFF               	goto	u3231
  2253  05FE  2E00               	goto	u3230
  2254  05FF                     u3231:
  2255  05FF  2E18               	goto	l7247
  2256  0600                     u3230:
  2257                           	
  2258  0600                     l7243:	
  2259  0600  3001               	movlw	low(01h)
  2260  0601  02D6               	subwf	(___ftadd@sign),f
  2261  0602  0856               	movf	((___ftadd@sign)),w
  2262  0603  3907               	andlw	07h
  2263  0604  1D03               	btfss	status,2
  2264  0605  2E07               	goto	u3241
  2265  0606  2E08               	goto	u3240
  2266  0607                     u3241:
  2267  0607  2DF0               	goto	l7239
  2268  0608                     u3240:
  2269  0608  2E18               	goto	l7247
  2270                           	
  2271  0609                     l5320:	
  2272  0609  2E18               	goto	l7247
  2273                           	
  2274  060A                     l5321:	
  2275                           	line	124
  2276  060A  2E18               	goto	l7247
  2277                           	
  2278  060B                     l5323:	
  2279                           	line	125
  2280                           	
  2281  060B                     l7245:	
  2282  060B  3001               	movlw	01h
  2283  060C                     u3255:
  2284  060C  1003               	clrc
  2285  060D  0CD1               	rrf	(___ftadd@f2+2),f
  2286  060E  0CD0               	rrf	(___ftadd@f2+1),f
  2287  060F  0CCF               	rrf	(___ftadd@f2),f
  2288  0610  3EFF               	addlw	-1
  2289  0611  1D03               	skipz
  2290  0612  2E0C               	goto	u3255
  2291                           
  2292                           	line	126
  2293  0613  3001               	movlw	(01h)
  2294  0614  00D2               	movwf	(??___ftadd+0)+0
  2295  0615  0852               	movf	(??___ftadd+0)+0,w
  2296  0616  07D7               	addwf	(___ftadd@exp2),f
  2297  0617  2E18               	goto	l7247
  2298                           	line	127
  2299                           	
  2300  0618                     l5322:	
  2301                           	line	124
  2302                           	
  2303  0618                     l7247:	
  2304  0618  0858               	movf	(___ftadd@exp1),w
  2305  0619  0657               	xorwf	(___ftadd@exp2),w
  2306  061A  1D03               	skipz
  2307  061B  2E1D               	goto	u3261
  2308  061C  2E1E               	goto	u3260
  2309  061D                     u3261:
  2310  061D  2E0B               	goto	l7245
  2311  061E                     u3260:
  2312  061E  2E20               	goto	l5316
  2313                           	
  2314  061F                     l5324:	
  2315  061F  2E20               	goto	l5316
  2316                           	line	128
  2317                           	
  2318  0620                     l5317:	
  2319                           	line	129
  2320                           	
  2321  0620                     l5316:	
  2322  0620  1FD6               	btfss	(___ftadd@sign),(7)&7
  2323  0621  2E23               	goto	u3271
  2324  0622  2E24               	goto	u3270
  2325  0623                     u3271:
  2326  0623  2E35               	goto	l7251
  2327  0624                     u3270:
  2328                           	line	131
  2329                           	
  2330  0624                     l7249:	
  2331  0624  30FF               	movlw	0FFh
  2332  0625  06CC               	xorwf	(___ftadd@f1),f
  2333  0626  30FF               	movlw	0FFh
  2334  0627  06CD               	xorwf	(___ftadd@f1+1),f
  2335  0628  30FF               	movlw	0FFh
  2336  0629  06CE               	xorwf	(___ftadd@f1+2),f
  2337                           	line	132
  2338  062A  3001               	movlw	01h
  2339  062B  07CC               	addwf	(___ftadd@f1),f
  2340  062C  3000               	movlw	0
  2341  062D  1803               	skipnc
  2342  062E  3001               movlw 1
  2343  062F  07CD               	addwf	(___ftadd@f1+1),f
  2344  0630  3000               	movlw	0
  2345  0631  1803               	skipnc
  2346  0632  3001               movlw 1
  2347  0633  07CE               	addwf	(___ftadd@f1+2),f
  2348  0634  2E35               	goto	l7251
  2349                           	line	133
  2350                           	
  2351  0635                     l5325:	
  2352                           	line	134
  2353                           	
  2354  0635                     l7251:	
  2355  0635  1F56               	btfss	(___ftadd@sign),(6)&7
  2356  0636  2E38               	goto	u3281
  2357  0637  2E39               	goto	u3280
  2358  0638                     u3281:
  2359  0638  2E4A               	goto	l7255
  2360  0639                     u3280:
  2361                           	line	136
  2362                           	
  2363  0639                     l7253:	
  2364  0639  30FF               	movlw	0FFh
  2365  063A  06CF               	xorwf	(___ftadd@f2),f
  2366  063B  30FF               	movlw	0FFh
  2367  063C  06D0               	xorwf	(___ftadd@f2+1),f
  2368  063D  30FF               	movlw	0FFh
  2369  063E  06D1               	xorwf	(___ftadd@f2+2),f
  2370                           	line	137
  2371  063F  3001               	movlw	01h
  2372  0640  07CF               	addwf	(___ftadd@f2),f
  2373  0641  3000               	movlw	0
  2374  0642  1803               	skipnc
  2375  0643  3001               movlw 1
  2376  0644  07D0               	addwf	(___ftadd@f2+1),f
  2377  0645  3000               	movlw	0
  2378  0646  1803               	skipnc
  2379  0647  3001               movlw 1
  2380  0648  07D1               	addwf	(___ftadd@f2+2),f
  2381  0649  2E4A               	goto	l7255
  2382                           	line	138
  2383                           	
  2384  064A                     l5326:	
  2385                           	line	139
  2386                           	
  2387  064A                     l7255:	
  2388  064A  01D6               	clrf	(___ftadd@sign)
  2389                           	line	140
  2390  064B  084C               	movf	(___ftadd@f1),w
  2391  064C  07CF               	addwf	(___ftadd@f2),f
  2392  064D  084D               	movf	(___ftadd@f1+1),w
  2393  064E  1103               	clrz
  2394  064F  1803               	skipnc
  2395  0650  0A4D               	incf	(___ftadd@f1+1),w
  2396  0651  1903               	skipnz
  2397  0652  2E54               	goto	u3291
  2398  0653  07D0               	addwf	(___ftadd@f2+1),f
  2399  0654                     u3291:
  2400  0654  084E               	movf	(___ftadd@f1+2),w
  2401  0655  1103               	clrz
  2402  0656  1803               	skipnc
  2403  0657  0A4E               	incf	(___ftadd@f1+2),w
  2404  0658  1903               	skipnz
  2405  0659  2E5B               	goto	u3292
  2406  065A  07D1               	addwf	(___ftadd@f2+2),f
  2407  065B                     u3292:
  2408                           
  2409                           	line	141
  2410                           	
  2411  065B                     l7257:	
  2412  065B  1FD1               	btfss	(___ftadd@f2+2),(23)&7
  2413  065C  2E5E               	goto	u3301
  2414  065D  2E5F               	goto	u3300
  2415  065E                     u3301:
  2416  065E  2E73               	goto	l7263
  2417  065F                     u3300:
  2418                           	line	142
  2419                           	
  2420  065F                     l7259:	
  2421  065F  30FF               	movlw	0FFh
  2422  0660  06CF               	xorwf	(___ftadd@f2),f
  2423  0661  30FF               	movlw	0FFh
  2424  0662  06D0               	xorwf	(___ftadd@f2+1),f
  2425  0663  30FF               	movlw	0FFh
  2426  0664  06D1               	xorwf	(___ftadd@f2+2),f
  2427                           	line	143
  2428  0665  3001               	movlw	01h
  2429  0666  07CF               	addwf	(___ftadd@f2),f
  2430  0667  3000               	movlw	0
  2431  0668  1803               	skipnc
  2432  0669  3001               movlw 1
  2433  066A  07D0               	addwf	(___ftadd@f2+1),f
  2434  066B  3000               	movlw	0
  2435  066C  1803               	skipnc
  2436  066D  3001               movlw 1
  2437  066E  07D1               	addwf	(___ftadd@f2+2),f
  2438                           	line	144
  2439                           	
  2440  066F                     l7261:	
  2441  066F  01D6               	clrf	(___ftadd@sign)
  2442  0670  1403               	bsf	status,0
  2443  0671  0DD6               	rlf	(___ftadd@sign),f
  2444  0672  2E73               	goto	l7263
  2445                           	line	145
  2446                           	
  2447  0673                     l5327:	
  2448                           	line	146
  2449                           	
  2450  0673                     l7263:	
  2451  0673  084F               	movf	(___ftadd@f2),w
  2452  0674  00A0               	movwf	(?___ftpack)
  2453  0675  0850               	movf	(___ftadd@f2+1),w
  2454  0676  00A1               	movwf	(?___ftpack+1)
  2455  0677  0851               	movf	(___ftadd@f2+2),w
  2456  0678  00A2               	movwf	(?___ftpack+2)
  2457  0679  0858               	movf	(___ftadd@exp1),w
  2458  067A  00D2               	movwf	(??___ftadd+0)+0
  2459  067B  0852               	movf	(??___ftadd+0)+0,w
  2460  067C  00A3               	movwf	0+(?___ftpack)+03h
  2461  067D  0856               	movf	(___ftadd@sign),w
  2462  067E  00D3               	movwf	(??___ftadd+1)+0
  2463  067F  0853               	movf	(??___ftadd+1)+0,w
  2464  0680  00A4               	movwf	0+(?___ftpack)+04h
  2465  0681  120A  118A  22B2   	fcall	___ftpack
              120A  118A         
  2466  0686  1283               	bcf	status, 5	;RP0=0, select bank0
  2467  0687  1303               	bcf	status, 6	;RP1=0, select bank0
  2468  0688  0820               	movf	(0+(?___ftpack)),w
  2469  0689  00CC               	movwf	(?___ftadd)
  2470  068A  0821               	movf	(1+(?___ftpack)),w
  2471  068B  00CD               	movwf	(?___ftadd+1)
  2472  068C  0822               	movf	(2+(?___ftpack)),w
  2473  068D  00CE               	movwf	(?___ftadd+2)
  2474  068E  2E8F               	goto	l5302
  2475                           	
  2476  068F                     l7265:	
  2477                           	line	148
  2478                           	
  2479  068F                     l5302:	
  2480  068F  0008               	return
  2481                           	opt stack 0
  2482                           GLOBAL	__end_of___ftadd
  2483  0690                     	__end_of___ftadd:
  2484 ;; =============== function ___ftadd ends ============
  2485                           
  2486                           	signat	___ftadd,8315
  2487                           	global	_Initialise
  2488                           psect	text475,local,class=CODE,delta=2
  2489                           global __ptext475
  2490  01BD                     __ptext475:
  2491                           
  2492 ;; *************** function _Initialise *****************
  2493 ;; Defined at:
  2494 ;;		line 225 in file "primary887main.c"
  2495 ;; Parameters:    Size  Location     Type
  2496 ;;		None
  2497 ;; Auto vars:     Size  Location     Type
  2498 ;;		None
  2499 ;; Return value:  Size  Location     Type
  2500 ;;		None               void
  2501 ;; Registers used:
  2502 ;;		wreg, status,2, status,0, pclath, cstack
  2503 ;; Tracked objects:
  2504 ;;		On entry : 0/0
  2505 ;;		On exit  : 0/0
  2506 ;;		Unchanged: 0/0
  2507 ;; Data sizes:     COMMON   BANK0  BANK1h  BANK1l   BANK3   BANK2
  2508 ;;      Params:         0       0       0       0       0       0
  2509 ;;      Locals:         0       0       0       0       0       0
  2510 ;;      Temps:          0       0       0       0       0       0
  2511 ;;      Totals:         0       0       0       0       0       0
  2512 ;;Total ram usage:        0 bytes
  2513 ;; Hardware stack levels used:    1
  2514 ;; Hardware stack levels required when called:    4
  2515 ;; This function calls:
  2516 ;;		_BeginEncoder
  2517 ;;		_i2cInit
  2518 ;; This function is called by:
  2519 ;;		_main
  2520 ;; This function uses a non-reentrant model
  2521 ;;
  2522                           psect	text475
  2523                           	file	"primary887main.c"
  2524                           	line	225
  2525                           	global	__size_of_Initialise
  2526  002C                     	__size_of_Initialise	equ	__end_of_Initialise-_Initialise
  2527                           	
  2528  01BD                     _Initialise:	
  2529                           	opt	stack 3
  2530                           ; Regs used in _Initialise: [wreg+status,2+status,0+pclath+cstack]
  2531                           	line	226
  2532                           	
  2533  01BD                     l7163:	
  2534                           ;primary887main.c: 226: FLAG = 0;
  2535  01BD  1683               	bsf	status, 5	;RP0=1, select bank1
  2536  01BE  1303               	bcf	status, 6	;RP1=0, select bank1
  2537  01BF  01AA               	clrf	(170)^080h
  2538                           	line	228
  2539                           	
  2540  01C0                     l7165:	
  2541                           ;primary887main.c: 228: BeginEncoder();
  2542  01C0  120A  118A  20F2   	fcall	_BeginEncoder
              120A  118A         
  2543                           	line	229
  2544                           ;primary887main.c: 229: i2cInit(0x08);
  2545  01C5  3008               	movlw	(08h)
  2546  01C6  120A  118A  2135   	fcall	_i2cInit
              120A  118A         
  2547                           	line	232
  2548                           	
  2549  01CB                     l7167:	
  2550                           ;primary887main.c: 232: PEIE = 1;
  2551  01CB  170B               	bsf	(94/8),(94)&7
  2552                           	line	233
  2553                           	
  2554  01CC                     l7169:	
  2555                           ;primary887main.c: 233: RBIE = 1;
  2556  01CC  158B               	bsf	(91/8),(91)&7
  2557                           	line	234
  2558                           	
  2559  01CD                     l7171:	
  2560                           ;primary887main.c: 234: T0IE = 1;
  2561  01CD  168B               	bsf	(93/8),(93)&7
  2562                           	line	235
  2563                           	
  2564  01CE                     l7173:	
  2565                           ;primary887main.c: 235: PIE1 = 0b00001001;
  2566  01CE  3009               	movlw	(09h)
  2567  01CF  1683               	bsf	status, 5	;RP0=1, select bank1
  2568  01D0  1303               	bcf	status, 6	;RP1=0, select bank1
  2569  01D1  008C               	movwf	(140)^080h	;volatile
  2570                           	line	236
  2571                           	
  2572  01D2                     l7175:	
  2573                           ;primary887main.c: 236: PIE2 = 0;
  2574  01D2  018D               	clrf	(141)^080h	;volatile
  2575                           	line	238
  2576                           	
  2577  01D3                     l7177:	
  2578                           ;primary887main.c: 238: SSPIF = 0;
  2579  01D3  1283               	bcf	status, 5	;RP0=0, select bank0
  2580  01D4  1303               	bcf	status, 6	;RP1=0, select bank0
  2581  01D5  118C               	bcf	(99/8),(99)&7
  2582                           	line	239
  2583                           	
  2584  01D6                     l7179:	
  2585                           ;primary887main.c: 239: RBIF = 0;
  2586  01D6  100B               	bcf	(88/8),(88)&7
  2587                           	line	240
  2588                           	
  2589  01D7                     l7181:	
  2590                           ;primary887main.c: 240: T0IF = 0;
  2591  01D7  110B               	bcf	(90/8),(90)&7
  2592                           	line	241
  2593                           	
  2594  01D8                     l7183:	
  2595                           ;primary887main.c: 241: TMR1IF = 0;
  2596  01D8  100C               	bcf	(96/8),(96)&7
  2597                           	line	243
  2598                           	
  2599  01D9                     l7185:	
  2600                           ;primary887main.c: 243: GIE = 1;
  2601  01D9  178B               	bsf	(95/8),(95)&7
  2602                           	line	245
  2603                           	
  2604  01DA                     l7187:	
  2605                           ;primary887main.c: 245: TRISB = 0b11110111;
  2606  01DA  30F7               	movlw	(0F7h)
  2607  01DB  1683               	bsf	status, 5	;RP0=1, select bank1
  2608  01DC  1303               	bcf	status, 6	;RP1=0, select bank1
  2609  01DD  0086               	movwf	(134)^080h	;volatile
  2610                           	line	246
  2611                           	
  2612  01DE                     l7189:	
  2613                           ;primary887main.c: 246: PORTBbits.RB3 = 0;
  2614  01DE  1283               	bcf	status, 5	;RP0=0, select bank0
  2615  01DF  1303               	bcf	status, 6	;RP1=0, select bank0
  2616  01E0  1186               	bcf	(6),3	;volatile
  2617                           	line	248
  2618                           	
  2619  01E1                     l7191:	
  2620                           ;primary887main.c: 248: TRISD = 0;
  2621  01E1  1683               	bsf	status, 5	;RP0=1, select bank1
  2622  01E2  1303               	bcf	status, 6	;RP1=0, select bank1
  2623  01E3  0188               	clrf	(136)^080h	;volatile
  2624                           	line	249
  2625                           	
  2626  01E4                     l7193:	
  2627                           ;primary887main.c: 249: TRISC = 0;
  2628  01E4  0187               	clrf	(135)^080h	;volatile
  2629                           	line	250
  2630                           	
  2631  01E5                     l7195:	
  2632                           ;primary887main.c: 250: PORTCbits.RC1 = 0;
  2633  01E5  1283               	bcf	status, 5	;RP0=0, select bank0
  2634  01E6  1303               	bcf	status, 6	;RP1=0, select bank0
  2635  01E7  1087               	bcf	(7),1	;volatile
  2636                           	line	251
  2637                           	
  2638  01E8                     l1094:	
  2639  01E8  0008               	return
  2640                           	opt stack 0
  2641                           GLOBAL	__end_of_Initialise
  2642  01E9                     	__end_of_Initialise:
  2643 ;; =============== function _Initialise ends ============
  2644                           
  2645                           	signat	_Initialise,88
  2646                           	global	___fttol
  2647                           psect	text476,local,class=CODE,delta=2
  2648                           global __ptext476
  2649  03B6                     __ptext476:
  2650                           
  2651 ;; *************** function ___fttol *****************
  2652 ;; Defined at:
  2653 ;;		line 45 in file "C:\Program Files (x86)\HI-TECH Software\PICC\9.83\sources\fttol.c"
  2654 ;; Parameters:    Size  Location     Type
  2655 ;;  f1              3    8[BANK0 ] float 
  2656 ;; Auto vars:     Size  Location     Type
  2657 ;;  lval            4   17[BANK0 ] unsigned long 
  2658 ;;  exp1            1   21[BANK0 ] unsigned char 
  2659 ;;  sign1           1   16[BANK0 ] unsigned char 
  2660 ;; Return value:  Size  Location     Type
  2661 ;;                  4    8[BANK0 ] long 
  2662 ;; Registers used:
  2663 ;;		wreg, status,2, status,0
  2664 ;; Tracked objects:
  2665 ;;		On entry : 0/0
  2666 ;;		On exit  : 0/0
  2667 ;;		Unchanged: 0/0
  2668 ;; Data sizes:     COMMON   BANK0  BANK1h  BANK1l   BANK3   BANK2
  2669 ;;      Params:         0       4       0       0       0       0
  2670 ;;      Locals:         0       6       0       0       0       0
  2671 ;;      Temps:          0       4       0       0       0       0
  2672 ;;      Totals:         0      14       0       0       0       0
  2673 ;;Total ram usage:       14 bytes
  2674 ;; Hardware stack levels used:    1
  2675 ;; Hardware stack levels required when called:    3
  2676 ;; This function calls:
  2677 ;;		Nothing
  2678 ;; This function is called by:
  2679 ;;		_main
  2680 ;; This function uses a non-reentrant model
  2681 ;;
  2682                           psect	text476
  2683                           	file	"C:\Program Files (x86)\HI-TECH Software\PICC\9.83\sources\fttol.c"
  2684                           	line	45
  2685                           	global	__size_of___fttol
  2686  00A6                     	__size_of___fttol	equ	__end_of___fttol-___fttol
  2687                           	
  2688  03B6                     ___fttol:	
  2689                           	opt	stack 4
  2690                           ; Regs used in ___fttol: [wreg+status,2+status,0]
  2691                           	line	49
  2692                           	
  2693  03B6                     l7061:	
  2694  03B6  1283               	bcf	status, 5	;RP0=0, select bank0
  2695  03B7  1303               	bcf	status, 6	;RP1=0, select bank0
  2696  03B8  0828               	movf	(___fttol@f1),w
  2697  03B9  00AC               	movwf	((??___fttol+0)+0)
  2698  03BA  0829               	movf	(___fttol@f1+1),w
  2699  03BB  00AD               	movwf	((??___fttol+0)+0+1)
  2700  03BC  082A               	movf	(___fttol@f1+2),w
  2701  03BD  00AE               	movwf	((??___fttol+0)+0+2)
  2702  03BE  1003               	clrc
  2703  03BF  0D2D               	rlf	(??___fttol+0)+1,w
  2704  03C0  0D2E               	rlf	(??___fttol+0)+2,w
  2705  03C1  00AF               	movwf	(??___fttol+3)+0
  2706  03C2  082F               	movf	(??___fttol+3)+0,w
  2707  03C3  00B5               	movwf	(___fttol@exp1)
  2708  03C4  08B5               	movf	((___fttol@exp1)),f
  2709  03C5  1D03               	skipz
  2710  03C6  2BC8               	goto	u2901
  2711  03C7  2BC9               	goto	u2900
  2712  03C8                     u2901:
  2713  03C8  2BD3               	goto	l7067
  2714  03C9                     u2900:
  2715                           	line	50
  2716                           	
  2717  03C9                     l7063:	
  2718  03C9  3000               	movlw	0
  2719  03CA  00AB               	movwf	(?___fttol+3)
  2720  03CB  3000               	movlw	0
  2721  03CC  00AA               	movwf	(?___fttol+2)
  2722  03CD  3000               	movlw	0
  2723  03CE  00A9               	movwf	(?___fttol+1)
  2724  03CF  3000               	movlw	0
  2725  03D0  00A8               	movwf	(?___fttol)
  2726                           
  2727  03D1  2C5B               	goto	l5365
  2728                           	
  2729  03D2                     l7065:	
  2730  03D2  2C5B               	goto	l5365
  2731                           	
  2732  03D3                     l5364:	
  2733                           	line	51
  2734                           	
  2735  03D3                     l7067:	
  2736  03D3  0828               	movf	(___fttol@f1),w
  2737  03D4  00AC               	movwf	((??___fttol+0)+0)
  2738  03D5  0829               	movf	(___fttol@f1+1),w
  2739  03D6  00AD               	movwf	((??___fttol+0)+0+1)
  2740  03D7  082A               	movf	(___fttol@f1+2),w
  2741  03D8  00AE               	movwf	((??___fttol+0)+0+2)
  2742  03D9  3017               	movlw	017h
  2743  03DA                     u2915:
  2744  03DA  1003               	clrc
  2745  03DB  0CAE               	rrf	(??___fttol+0)+2,f
  2746  03DC  0CAD               	rrf	(??___fttol+0)+1,f
  2747  03DD  0CAC               	rrf	(??___fttol+0)+0,f
  2748  03DE                     u2910:
  2749  03DE  3EFF               	addlw	-1
  2750  03DF  1D03               	skipz
  2751  03E0  2BDA               	goto	u2915
  2752  03E1  082C               	movf	0+(??___fttol+0)+0,w
  2753  03E2  00AF               	movwf	(??___fttol+3)+0
  2754  03E3  082F               	movf	(??___fttol+3)+0,w
  2755  03E4  00B0               	movwf	(___fttol@sign1)
  2756                           	line	52
  2757                           	
  2758  03E5                     l7069:	
  2759  03E5  17A9               	bsf	(___fttol@f1)+(15/8),(15)&7
  2760                           	line	53
  2761                           	
  2762  03E6                     l7071:	
  2763  03E6  30FF               	movlw	0FFh
  2764  03E7  05A8               	andwf	(___fttol@f1),f
  2765  03E8  30FF               	movlw	0FFh
  2766  03E9  05A9               	andwf	(___fttol@f1+1),f
  2767  03EA  3000               	movlw	0
  2768  03EB  05AA               	andwf	(___fttol@f1+2),f
  2769                           	line	54
  2770                           	
  2771  03EC                     l7073:	
  2772  03EC  0828               	movf	(___fttol@f1),w
  2773  03ED  00B1               	movwf	(___fttol@lval)
  2774  03EE  0829               	movf	(___fttol@f1+1),w
  2775  03EF  00B2               	movwf	((___fttol@lval))+1
  2776  03F0  082A               	movf	(___fttol@f1+2),w
  2777  03F1  00B3               	movwf	((___fttol@lval))+2
  2778  03F2  01B4               	clrf	((___fttol@lval))+3
  2779                           	line	55
  2780                           	
  2781  03F3                     l7075:	
  2782  03F3  308E               	movlw	low(08Eh)
  2783  03F4  02B5               	subwf	(___fttol@exp1),f
  2784                           	line	56
  2785                           	
  2786  03F5                     l7077:	
  2787  03F5  1FB5               	btfss	(___fttol@exp1),7
  2788  03F6  2BF8               	goto	u2921
  2789  03F7  2BF9               	goto	u2920
  2790  03F8                     u2921:
  2791  03F8  2C1E               	goto	l7087
  2792  03F9                     u2920:
  2793                           	line	57
  2794                           	
  2795  03F9                     l7079:	
  2796  03F9  0835               	movf	(___fttol@exp1),w
  2797  03FA  3A80               	xorlw	80h
  2798  03FB  3E8F               	addlw	-((-15)^80h)
  2799  03FC  1803               	skipnc
  2800  03FD  2BFF               	goto	u2931
  2801  03FE  2C00               	goto	u2930
  2802  03FF                     u2931:
  2803  03FF  2C0B               	goto	l7085
  2804  0400                     u2930:
  2805                           	line	58
  2806                           	
  2807  0400                     l7081:	
  2808  0400  3000               	movlw	0
  2809  0401  00AB               	movwf	(?___fttol+3)
  2810  0402  3000               	movlw	0
  2811  0403  00AA               	movwf	(?___fttol+2)
  2812  0404  3000               	movlw	0
  2813  0405  00A9               	movwf	(?___fttol+1)
  2814  0406  3000               	movlw	0
  2815  0407  00A8               	movwf	(?___fttol)
  2816                           
  2817  0408  2C5B               	goto	l5365
  2818                           	
  2819  0409                     l7083:	
  2820  0409  2C5B               	goto	l5365
  2821                           	
  2822  040A                     l5367:	
  2823  040A  2C0B               	goto	l7085
  2824                           	line	59
  2825                           	
  2826  040B                     l5368:	
  2827                           	line	60
  2828                           	
  2829  040B                     l7085:	
  2830  040B  3001               	movlw	01h
  2831  040C                     u2945:
  2832  040C  1003               	clrc
  2833  040D  0CB4               	rrf	(___fttol@lval+3),f
  2834  040E  0CB3               	rrf	(___fttol@lval+2),f
  2835  040F  0CB2               	rrf	(___fttol@lval+1),f
  2836  0410  0CB1               	rrf	(___fttol@lval),f
  2837  0411  3EFF               	addlw	-1
  2838  0412  1D03               	skipz
  2839  0413  2C0C               	goto	u2945
  2840                           
  2841                           	line	61
  2842  0414  3001               	movlw	(01h)
  2843  0415  00AC               	movwf	(??___fttol+0)+0
  2844  0416  082C               	movf	(??___fttol+0)+0,w
  2845  0417  07B5               	addwf	(___fttol@exp1),f
  2846  0418  1D03               	btfss	status,2
  2847  0419  2C1B               	goto	u2951
  2848  041A  2C1C               	goto	u2950
  2849  041B                     u2951:
  2850  041B  2C0B               	goto	l7085
  2851  041C                     u2950:
  2852  041C  2C42               	goto	l7097
  2853                           	
  2854  041D                     l5369:	
  2855                           	line	62
  2856  041D  2C42               	goto	l7097
  2857                           	
  2858  041E                     l5366:	
  2859                           	line	63
  2860                           	
  2861  041E                     l7087:	
  2862  041E  3018               	movlw	(018h)
  2863  041F  0235               	subwf	(___fttol@exp1),w
  2864  0420  1C03               	skipc
  2865  0421  2C23               	goto	u2961
  2866  0422  2C24               	goto	u2960
  2867  0423                     u2961:
  2868  0423  2C3B               	goto	l7095
  2869  0424                     u2960:
  2870                           	line	64
  2871                           	
  2872  0424                     l7089:	
  2873  0424  3000               	movlw	0
  2874  0425  00AB               	movwf	(?___fttol+3)
  2875  0426  3000               	movlw	0
  2876  0427  00AA               	movwf	(?___fttol+2)
  2877  0428  3000               	movlw	0
  2878  0429  00A9               	movwf	(?___fttol+1)
  2879  042A  3000               	movlw	0
  2880  042B  00A8               	movwf	(?___fttol)
  2881                           
  2882  042C  2C5B               	goto	l5365
  2883                           	
  2884  042D                     l7091:	
  2885  042D  2C5B               	goto	l5365
  2886                           	
  2887  042E                     l5371:	
  2888                           	line	65
  2889  042E  2C3B               	goto	l7095
  2890                           	
  2891  042F                     l5373:	
  2892                           	line	66
  2893                           	
  2894  042F                     l7093:	
  2895  042F  3001               	movlw	01h
  2896  0430  00AC               	movwf	(??___fttol+0)+0
  2897  0431                     u2975:
  2898  0431  1003               	clrc
  2899  0432  0DB1               	rlf	(___fttol@lval),f
  2900  0433  0DB2               	rlf	(___fttol@lval+1),f
  2901  0434  0DB3               	rlf	(___fttol@lval+2),f
  2902  0435  0DB4               	rlf	(___fttol@lval+3),f
  2903  0436  0BAC               	decfsz	(??___fttol+0)+0
  2904  0437  2C31               	goto	u2975
  2905                           	line	67
  2906  0438  3001               	movlw	low(01h)
  2907  0439  02B5               	subwf	(___fttol@exp1),f
  2908  043A  2C3B               	goto	l7095
  2909                           	line	68
  2910                           	
  2911  043B                     l5372:	
  2912                           	line	65
  2913                           	
  2914  043B                     l7095:	
  2915  043B  08B5               	movf	(___fttol@exp1),f
  2916  043C  1D03               	skipz
  2917  043D  2C3F               	goto	u2981
  2918  043E  2C40               	goto	u2980
  2919  043F                     u2981:
  2920  043F  2C2F               	goto	l7093
  2921  0440                     u2980:
  2922  0440  2C42               	goto	l7097
  2923                           	
  2924  0441                     l5374:	
  2925  0441  2C42               	goto	l7097
  2926                           	line	69
  2927                           	
  2928  0442                     l5370:	
  2929                           	line	70
  2930                           	
  2931  0442                     l7097:	
  2932  0442  0830               	movf	(___fttol@sign1),w
  2933  0443  1D03               	skipz
  2934  0444  2C46               	goto	u2990
  2935  0445  2C52               	goto	l7101
  2936  0446                     u2990:
  2937                           	line	71
  2938                           	
  2939  0446                     l7099:	
  2940  0446  09B1               	comf	(___fttol@lval),f
  2941  0447  09B2               	comf	(___fttol@lval+1),f
  2942  0448  09B3               	comf	(___fttol@lval+2),f
  2943  0449  09B4               	comf	(___fttol@lval+3),f
  2944  044A  0AB1               	incf	(___fttol@lval),f
  2945  044B  1903               	skipnz
  2946  044C  0AB2               	incf	(___fttol@lval+1),f
  2947  044D  1903               	skipnz
  2948  044E  0AB3               	incf	(___fttol@lval+2),f
  2949  044F  1903               	skipnz
  2950  0450  0AB4               	incf	(___fttol@lval+3),f
  2951  0451  2C52               	goto	l7101
  2952                           	
  2953  0452                     l5375:	
  2954                           	line	72
  2955                           	
  2956  0452                     l7101:	
  2957  0452  0834               	movf	(___fttol@lval+3),w
  2958  0453  00AB               	movwf	(?___fttol+3)
  2959  0454  0833               	movf	(___fttol@lval+2),w
  2960  0455  00AA               	movwf	(?___fttol+2)
  2961  0456  0832               	movf	(___fttol@lval+1),w
  2962  0457  00A9               	movwf	(?___fttol+1)
  2963  0458  0831               	movf	(___fttol@lval),w
  2964  0459  00A8               	movwf	(?___fttol)
  2965                           
  2966  045A  2C5B               	goto	l5365
  2967                           	
  2968  045B                     l7103:	
  2969                           	line	73
  2970                           	
  2971  045B                     l5365:	
  2972  045B  0008               	return
  2973                           	opt stack 0
  2974                           GLOBAL	__end_of___fttol
  2975  045C                     	__end_of___fttol:
  2976 ;; =============== function ___fttol ends ============
  2977                           
  2978                           	signat	___fttol,4220
  2979                           	global	___ftpack
  2980                           psect	text477,local,class=CODE,delta=2
  2981                           global __ptext477
  2982  02B2                     __ptext477:
  2983                           
  2984 ;; *************** function ___ftpack *****************
  2985 ;; Defined at:
  2986 ;;		line 63 in file "C:\Program Files (x86)\HI-TECH Software\PICC\9.83\sources\float.c"
  2987 ;; Parameters:    Size  Location     Type
  2988 ;;  arg             3    0[BANK0 ] unsigned um
  2989 ;;  exp             1    3[BANK0 ] unsigned char 
  2990 ;;  sign            1    4[BANK0 ] unsigned char 
  2991 ;; Auto vars:     Size  Location     Type
  2992 ;;		None
  2993 ;; Return value:  Size  Location     Type
  2994 ;;                  3    0[BANK0 ] float 
  2995 ;; Registers used:
  2996 ;;		wreg, status,2, status,0
  2997 ;; Tracked objects:
  2998 ;;		On entry : 0/0
  2999 ;;		On exit  : 0/0
  3000 ;;		Unchanged: 0/0
  3001 ;; Data sizes:     COMMON   BANK0  BANK1h  BANK1l   BANK3   BANK2
  3002 ;;      Params:         0       5       0       0       0       0
  3003 ;;      Locals:         0       0       0       0       0       0
  3004 ;;      Temps:          0       3       0       0       0       0
  3005 ;;      Totals:         0       8       0       0       0       0
  3006 ;;Total ram usage:        8 bytes
  3007 ;; Hardware stack levels used:    1
  3008 ;; Hardware stack levels required when called:    3
  3009 ;; This function calls:
  3010 ;;		Nothing
  3011 ;; This function is called by:
  3012 ;;		___ftadd
  3013 ;;		___ftmul
  3014 ;;		___awtoft
  3015 ;;		___ftdiv
  3016 ;;		___lbtoft
  3017 ;;		___abtoft
  3018 ;;		___lwtoft
  3019 ;;		___altoft
  3020 ;;		___lltoft
  3021 ;;		___attoft
  3022 ;;		___lttoft
  3023 ;; This function uses a non-reentrant model
  3024 ;;
  3025                           psect	text477
  3026                           	file	"C:\Program Files (x86)\HI-TECH Software\PICC\9.83\sources\float.c"
  3027                           	line	63
  3028                           	global	__size_of___ftpack
  3029  007D                     	__size_of___ftpack	equ	__end_of___ftpack-___ftpack
  3030                           	
  3031  02B2                     ___ftpack:	
  3032                           	opt	stack 3
  3033                           ; Regs used in ___ftpack: [wreg+status,2+status,0]
  3034                           	line	64
  3035                           	
  3036  02B2                     l6987:	
  3037  02B2  1283               	bcf	status, 5	;RP0=0, select bank0
  3038  02B3  1303               	bcf	status, 6	;RP1=0, select bank0
  3039  02B4  0823               	movf	(___ftpack@exp),w
  3040  02B5  1D03               	skipz
  3041  02B6  2AB8               	goto	u2710
  3042  02B7  2AC0               	goto	l6991
  3043  02B8                     u2710:
  3044                           	
  3045  02B8                     l6989:	
  3046  02B8  0822               	movf	(___ftpack@arg+2),w
  3047  02B9  0421               	iorwf	(___ftpack@arg+1),w
  3048  02BA  0420               	iorwf	(___ftpack@arg),w
  3049  02BB  1D03               	skipz
  3050  02BC  2ABE               	goto	u2721
  3051  02BD  2ABF               	goto	u2720
  3052  02BE                     u2721:
  3053  02BE  2AD6               	goto	l6997
  3054  02BF                     u2720:
  3055  02BF  2AC0               	goto	l6991
  3056                           	
  3057  02C0                     l5589:	
  3058                           	line	65
  3059                           	
  3060  02C0                     l6991:	
  3061  02C0  3000               	movlw	0x0
  3062  02C1  00A0               	movwf	(?___ftpack)
  3063  02C2  3000               	movlw	0x0
  3064  02C3  00A1               	movwf	(?___ftpack+1)
  3065  02C4  3000               	movlw	0x0
  3066  02C5  00A2               	movwf	(?___ftpack+2)
  3067  02C6  2B2E               	goto	l5590
  3068                           	
  3069  02C7                     l6993:	
  3070  02C7  2B2E               	goto	l5590
  3071                           	
  3072  02C8                     l5587:	
  3073                           	line	66
  3074  02C8  2AD6               	goto	l6997
  3075                           	
  3076  02C9                     l5592:	
  3077                           	line	67
  3078                           	
  3079  02C9                     l6995:	
  3080  02C9  3001               	movlw	(01h)
  3081  02CA  00A5               	movwf	(??___ftpack+0)+0
  3082  02CB  0825               	movf	(??___ftpack+0)+0,w
  3083  02CC  07A3               	addwf	(___ftpack@exp),f
  3084                           	line	68
  3085  02CD  3001               	movlw	01h
  3086  02CE                     u2735:
  3087  02CE  1003               	clrc
  3088  02CF  0CA2               	rrf	(___ftpack@arg+2),f
  3089  02D0  0CA1               	rrf	(___ftpack@arg+1),f
  3090  02D1  0CA0               	rrf	(___ftpack@arg),f
  3091  02D2  3EFF               	addlw	-1
  3092  02D3  1D03               	skipz
  3093  02D4  2ACE               	goto	u2735
  3094                           
  3095  02D5  2AD6               	goto	l6997
  3096                           	line	69
  3097                           	
  3098  02D6                     l5591:	
  3099                           	line	66
  3100                           	
  3101  02D6                     l6997:	
  3102  02D6  30FE               	movlw	low highword(0FE0000h)
  3103  02D7  0522               	andwf	(___ftpack@arg+2),w
  3104  02D8  1D03               	btfss	status,2
  3105  02D9  2ADB               	goto	u2741
  3106  02DA  2ADC               	goto	u2740
  3107  02DB                     u2741:
  3108  02DB  2AC9               	goto	l6995
  3109  02DC                     u2740:
  3110  02DC  2AF4               	goto	l5594
  3111                           	
  3112  02DD                     l5593:	
  3113                           	line	70
  3114  02DD  2AF4               	goto	l5594
  3115                           	
  3116  02DE                     l5595:	
  3117                           	line	71
  3118                           	
  3119  02DE                     l6999:	
  3120  02DE  3001               	movlw	(01h)
  3121  02DF  00A5               	movwf	(??___ftpack+0)+0
  3122  02E0  0825               	movf	(??___ftpack+0)+0,w
  3123  02E1  07A3               	addwf	(___ftpack@exp),f
  3124                           	line	72
  3125                           	
  3126  02E2                     l7001:	
  3127  02E2  3001               	movlw	01h
  3128  02E3  07A0               	addwf	(___ftpack@arg),f
  3129  02E4  3000               	movlw	0
  3130  02E5  1803               	skipnc
  3131  02E6  3001               movlw 1
  3132  02E7  07A1               	addwf	(___ftpack@arg+1),f
  3133  02E8  3000               	movlw	0
  3134  02E9  1803               	skipnc
  3135  02EA  3001               movlw 1
  3136  02EB  07A2               	addwf	(___ftpack@arg+2),f
  3137                           	line	73
  3138                           	
  3139  02EC                     l7003:	
  3140  02EC  3001               	movlw	01h
  3141  02ED                     u2755:
  3142  02ED  1003               	clrc
  3143  02EE  0CA2               	rrf	(___ftpack@arg+2),f
  3144  02EF  0CA1               	rrf	(___ftpack@arg+1),f
  3145  02F0  0CA0               	rrf	(___ftpack@arg),f
  3146  02F1  3EFF               	addlw	-1
  3147  02F2  1D03               	skipz
  3148  02F3  2AED               	goto	u2755
  3149                           
  3150                           	line	74
  3151                           	
  3152  02F4                     l5594:	
  3153                           	line	70
  3154  02F4  30FF               	movlw	low highword(0FF0000h)
  3155  02F5  0522               	andwf	(___ftpack@arg+2),w
  3156  02F6  1D03               	btfss	status,2
  3157  02F7  2AF9               	goto	u2761
  3158  02F8  2AFA               	goto	u2760
  3159  02F9                     u2761:
  3160  02F9  2ADE               	goto	l6999
  3161  02FA                     u2760:
  3162  02FA  2B07               	goto	l7007
  3163                           	
  3164  02FB                     l5596:	
  3165                           	line	75
  3166  02FB  2B07               	goto	l7007
  3167                           	
  3168  02FC                     l5598:	
  3169                           	line	76
  3170                           	
  3171  02FC                     l7005:	
  3172  02FC  3001               	movlw	low(01h)
  3173  02FD  02A3               	subwf	(___ftpack@exp),f
  3174                           	line	77
  3175  02FE  3001               	movlw	01h
  3176  02FF                     u2775:
  3177  02FF  1003               	clrc
  3178  0300  0DA0               	rlf	(___ftpack@arg),f
  3179  0301  0DA1               	rlf	(___ftpack@arg+1),f
  3180  0302  0DA2               	rlf	(___ftpack@arg+2),f
  3181  0303  3EFF               	addlw	-1
  3182  0304  1D03               	skipz
  3183  0305  2AFF               	goto	u2775
  3184  0306  2B07               	goto	l7007
  3185                           	line	78
  3186                           	
  3187  0307                     l5597:	
  3188                           	line	75
  3189                           	
  3190  0307                     l7007:	
  3191  0307  1FA1               	btfss	(___ftpack@arg+1),(15)&7
  3192  0308  2B0A               	goto	u2781
  3193  0309  2B0B               	goto	u2780
  3194  030A                     u2781:
  3195  030A  2AFC               	goto	l7005
  3196  030B                     u2780:
  3197                           	
  3198  030B                     l5599:	
  3199                           	line	79
  3200  030B  1823               	btfsc	(___ftpack@exp),(0)&7
  3201  030C  2B0E               	goto	u2791
  3202  030D  2B0F               	goto	u2790
  3203  030E                     u2791:
  3204  030E  2B15               	goto	l5600
  3205  030F                     u2790:
  3206                           	line	80
  3207                           	
  3208  030F                     l7009:	
  3209  030F  30FF               	movlw	0FFh
  3210  0310  05A0               	andwf	(___ftpack@arg),f
  3211  0311  307F               	movlw	07Fh
  3212  0312  05A1               	andwf	(___ftpack@arg+1),f
  3213  0313  30FF               	movlw	0FFh
  3214  0314  05A2               	andwf	(___ftpack@arg+2),f
  3215                           	
  3216  0315                     l5600:	
  3217                           	line	81
  3218  0315  1003               	clrc
  3219  0316  0CA3               	rrf	(___ftpack@exp),f
  3220                           
  3221                           	line	82
  3222                           	
  3223  0317                     l7011:	
  3224  0317  0823               	movf	(___ftpack@exp),w
  3225  0318  00A5               	movwf	((??___ftpack+0)+0)
  3226  0319  01A6               	clrf	((??___ftpack+0)+0+1)
  3227  031A  01A7               	clrf	((??___ftpack+0)+0+2)
  3228  031B  3010               	movlw	010h
  3229  031C                     u2805:
  3230  031C  1003               	clrc
  3231  031D  0DA5               	rlf	(??___ftpack+0)+0,f
  3232  031E  0DA6               	rlf	(??___ftpack+0)+1,f
  3233  031F  0DA7               	rlf	(??___ftpack+0)+2,f
  3234  0320                     u2800:
  3235  0320  3EFF               	addlw	-1
  3236  0321  1D03               	skipz
  3237  0322  2B1C               	goto	u2805
  3238  0323  0825               	movf	0+(??___ftpack+0)+0,w
  3239  0324  04A0               	iorwf	(___ftpack@arg),f
  3240  0325  0826               	movf	1+(??___ftpack+0)+0,w
  3241  0326  04A1               	iorwf	(___ftpack@arg+1),f
  3242  0327  0827               	movf	2+(??___ftpack+0)+0,w
  3243  0328  04A2               	iorwf	(___ftpack@arg+2),f
  3244                           	line	83
  3245                           	
  3246  0329                     l7013:	
  3247  0329  0824               	movf	(___ftpack@sign),w
  3248  032A  1D03               	skipz
  3249  032B  2B2D               	goto	u2810
  3250  032C  2B2E               	goto	l5601
  3251  032D                     u2810:
  3252                           	line	84
  3253                           	
  3254  032D                     l7015:	
  3255  032D  17A2               	bsf	(___ftpack@arg)+(23/8),(23)&7
  3256                           	
  3257  032E                     l5601:	
  3258                           	line	85
  3259                           	line	86
  3260                           	
  3261  032E                     l5590:	
  3262  032E  0008               	return
  3263                           	opt stack 0
  3264                           GLOBAL	__end_of___ftpack
  3265  032F                     	__end_of___ftpack:
  3266 ;; =============== function ___ftpack ends ============
  3267                           
  3268                           	signat	___ftpack,12411
  3269                           	global	_i2cInit
  3270                           psect	text478,local,class=CODE,delta=2
  3271                           global __ptext478
  3272  0135                     __ptext478:
  3273                           
  3274 ;; *************** function _i2cInit *****************
  3275 ;; Defined at:
  3276 ;;		line 17 in file "i2cSlave887.c"
  3277 ;; Parameters:    Size  Location     Type
  3278 ;;  address         1    wreg     unsigned char 
  3279 ;; Auto vars:     Size  Location     Type
  3280 ;;  address         1    0[BANK0 ] unsigned char 
  3281 ;; Return value:  Size  Location     Type
  3282 ;;		None               void
  3283 ;; Registers used:
  3284 ;;		wreg
  3285 ;; Tracked objects:
  3286 ;;		On entry : 0/0
  3287 ;;		On exit  : 0/0
  3288 ;;		Unchanged: 0/0
  3289 ;; Data sizes:     COMMON   BANK0  BANK1h  BANK1l   BANK3   BANK2
  3290 ;;      Params:         0       0       0       0       0       0
  3291 ;;      Locals:         0       1       0       0       0       0
  3292 ;;      Temps:          0       0       0       0       0       0
  3293 ;;      Totals:         0       1       0       0       0       0
  3294 ;;Total ram usage:        1 bytes
  3295 ;; Hardware stack levels used:    1
  3296 ;; Hardware stack levels required when called:    3
  3297 ;; This function calls:
  3298 ;;		Nothing
  3299 ;; This function is called by:
  3300 ;;		_Initialise
  3301 ;; This function uses a non-reentrant model
  3302 ;;
  3303                           psect	text478
  3304                           	file	"i2cSlave887.c"
  3305                           	line	17
  3306                           	global	__size_of_i2cInit
  3307  001C                     	__size_of_i2cInit	equ	__end_of_i2cInit-_i2cInit
  3308                           	
  3309  0135                     _i2cInit:	
  3310                           	opt	stack 3
  3311                           ; Regs used in _i2cInit: [wreg]
  3312                           ;i2cInit@address stored from wreg
  3313                           	line	19
  3314  0135  1283               	bcf	status, 5	;RP0=0, select bank0
  3315  0136  1303               	bcf	status, 6	;RP1=0, select bank0
  3316  0137  00A0               	movwf	(i2cInit@address)
  3317                           	
  3318  0138                     l6895:	
  3319                           ;i2cSlave887.c: 19: TRISC3 = 1;
  3320  0138  1683               	bsf	status, 5	;RP0=1, select bank1
  3321  0139  1303               	bcf	status, 6	;RP1=0, select bank1
  3322  013A  1587               	bsf	(1083/8)^080h,(1083)&7
  3323                           	line	20
  3324                           ;i2cSlave887.c: 20: TRISC4 = 1;
  3325  013B  1607               	bsf	(1084/8)^080h,(1084)&7
  3326                           	line	21
  3327                           ;i2cSlave887.c: 21: SSPEN = 1;
  3328  013C  1283               	bcf	status, 5	;RP0=0, select bank0
  3329  013D  1303               	bcf	status, 6	;RP1=0, select bank0
  3330  013E  1694               	bsf	(165/8),(165)&7
  3331                           	line	22
  3332                           ;i2cSlave887.c: 22: CKE = 0;
  3333  013F  1683               	bsf	status, 5	;RP0=1, select bank1
  3334  0140  1303               	bcf	status, 6	;RP1=0, select bank1
  3335  0141  1314               	bcf	(1190/8)^080h,(1190)&7
  3336                           	line	23
  3337                           ;i2cSlave887.c: 23: SMP = 0;
  3338  0142  1394               	bcf	(1191/8)^080h,(1191)&7
  3339                           	line	24
  3340                           ;i2cSlave887.c: 24: CKP = 1;
  3341  0143  1283               	bcf	status, 5	;RP0=0, select bank0
  3342  0144  1303               	bcf	status, 6	;RP1=0, select bank0
  3343  0145  1614               	bsf	(164/8),(164)&7
  3344                           	line	26
  3345                           ;i2cSlave887.c: 26: SSPM0 = 0;
  3346  0146  1014               	bcf	(160/8),(160)&7
  3347                           	line	27
  3348                           ;i2cSlave887.c: 27: SSPM1 = 1;
  3349  0147  1494               	bsf	(161/8),(161)&7
  3350                           	line	28
  3351                           ;i2cSlave887.c: 28: SSPM2 = 1;
  3352  0148  1514               	bsf	(162/8),(162)&7
  3353                           	line	29
  3354                           ;i2cSlave887.c: 29: SSPM3 = 0;
  3355  0149  1194               	bcf	(163/8),(163)&7
  3356                           	line	33
  3357                           	
  3358  014A                     l6897:	
  3359                           ;i2cSlave887.c: 33: SSPADD = address;
  3360  014A  0820               	movf	(i2cInit@address),w
  3361  014B  1683               	bsf	status, 5	;RP0=1, select bank1
  3362  014C  1303               	bcf	status, 6	;RP1=0, select bank1
  3363  014D  0093               	movwf	(147)^080h	;volatile
  3364                           	line	39
  3365                           	
  3366  014E                     l6899:	
  3367                           ;i2cSlave887.c: 39: i2cBufferVal = 0;
  3368  014E  01FB               	clrf	(_i2cBufferVal)
  3369                           	line	40
  3370                           	
  3371  014F                     l6901:	
  3372                           ;i2cSlave887.c: 40: i2cWriteInt = 0;
  3373  014F  01FD               	clrf	(_i2cWriteInt)
  3374                           	line	41
  3375                           	
  3376  0150                     l3202:	
  3377  0150  0008               	return
  3378                           	opt stack 0
  3379                           GLOBAL	__end_of_i2cInit
  3380  0151                     	__end_of_i2cInit:
  3381 ;; =============== function _i2cInit ends ============
  3382                           
  3383                           	signat	_i2cInit,4216
  3384                           	global	_BeginEncoder
  3385                           psect	text479,local,class=CODE,delta=2
  3386                           global __ptext479
  3387  00F2                     __ptext479:
  3388                           
  3389 ;; *************** function _BeginEncoder *****************
  3390 ;; Defined at:
  3391 ;;		line 22 in file "enclib887.c"
  3392 ;; Parameters:    Size  Location     Type
  3393 ;;		None
  3394 ;; Auto vars:     Size  Location     Type
  3395 ;;		None
  3396 ;; Return value:  Size  Location     Type
  3397 ;;		None               void
  3398 ;; Registers used:
  3399 ;;		wreg
  3400 ;; Tracked objects:
  3401 ;;		On entry : 0/0
  3402 ;;		On exit  : 0/0
  3403 ;;		Unchanged: 0/0
  3404 ;; Data sizes:     COMMON   BANK0  BANK1h  BANK1l   BANK3   BANK2
  3405 ;;      Params:         0       0       0       0       0       0
  3406 ;;      Locals:         0       0       0       0       0       0
  3407 ;;      Temps:          0       0       0       0       0       0
  3408 ;;      Totals:         0       0       0       0       0       0
  3409 ;;Total ram usage:        0 bytes
  3410 ;; Hardware stack levels used:    1
  3411 ;; Hardware stack levels required when called:    3
  3412 ;; This function calls:
  3413 ;;		Nothing
  3414 ;; This function is called by:
  3415 ;;		_Initialise
  3416 ;; This function uses a non-reentrant model
  3417 ;;
  3418                           psect	text479
  3419                           	file	"enclib887.c"
  3420                           	line	22
  3421                           	global	__size_of_BeginEncoder
  3422  0009                     	__size_of_BeginEncoder	equ	__end_of_BeginEncoder-_BeginEncoder
  3423                           	
  3424  00F2                     _BeginEncoder:	
  3425                           	opt	stack 3
  3426                           ; Regs used in _BeginEncoder: [wreg]
  3427                           	line	28
  3428                           	
  3429  00F2                     l6893:	
  3430                           ;enclib887.c: 28: OPTION_REG = 0b10010111;
  3431  00F2  3097               	movlw	(097h)
  3432  00F3  1683               	bsf	status, 5	;RP0=1, select bank1
  3433  00F4  1303               	bcf	status, 6	;RP1=0, select bank1
  3434  00F5  0081               	movwf	(129)^080h	;volatile
  3435                           	line	35
  3436                           ;enclib887.c: 35: T1CON = 0b00000111;
  3437  00F6  3007               	movlw	(07h)
  3438  00F7  1283               	bcf	status, 5	;RP0=0, select bank0
  3439  00F8  1303               	bcf	status, 6	;RP1=0, select bank0
  3440  00F9  0090               	movwf	(16)	;volatile
  3441                           	line	36
  3442                           	
  3443  00FA                     l2158:	
  3444  00FA  0008               	return
  3445                           	opt stack 0
  3446                           GLOBAL	__end_of_BeginEncoder
  3447  00FB                     	__end_of_BeginEncoder:
  3448 ;; =============== function _BeginEncoder ends ============
  3449                           
  3450                           	signat	_BeginEncoder,88
  3451                           	global	_UpdateData
  3452                           psect	text480,local,class=CODE,delta=2
  3453                           global __ptext480
  3454  0171                     __ptext480:
  3455                           
  3456 ;; *************** function _UpdateData *****************
  3457 ;; Defined at:
  3458 ;;		line 301 in file "primary887main.c"
  3459 ;; Parameters:    Size  Location     Type
  3460 ;;  c               2    0[BANK0 ] int 
  3461 ;; Auto vars:     Size  Location     Type
  3462 ;;		None
  3463 ;; Return value:  Size  Location     Type
  3464 ;;		None               void
  3465 ;; Registers used:
  3466 ;;		wreg, status,2, status,0
  3467 ;; Tracked objects:
  3468 ;;		On entry : 0/0
  3469 ;;		On exit  : 0/0
  3470 ;;		Unchanged: 0/0
  3471 ;; Data sizes:     COMMON   BANK0  BANK1h  BANK1l   BANK3   BANK2
  3472 ;;      Params:         0       2       0       0       0       0
  3473 ;;      Locals:         0       0       0       0       0       0
  3474 ;;      Temps:          0       0       0       0       0       0
  3475 ;;      Totals:         0       2       0       0       0       0
  3476 ;;Total ram usage:        2 bytes
  3477 ;; Hardware stack levels used:    1
  3478 ;; Hardware stack levels required when called:    3
  3479 ;; This function calls:
  3480 ;;		Nothing
  3481 ;; This function is called by:
  3482 ;;		_main
  3483 ;; This function uses a non-reentrant model
  3484 ;;
  3485                           psect	text480
  3486                           	file	"primary887main.c"
  3487                           	line	301
  3488                           	global	__size_of_UpdateData
  3489  0024                     	__size_of_UpdateData	equ	__end_of_UpdateData-_UpdateData
  3490                           	
  3491  0171                     _UpdateData:	
  3492                           	opt	stack 4
  3493                           ; Regs used in _UpdateData: [wreg+status,2+status,0]
  3494                           	line	305
  3495                           	
  3496  0171                     l6887:	
  3497                           ;primary887main.c: 305: if (DIR_READ == 0)
  3498  0171  1283               	bcf	status, 5	;RP0=0, select bank0
  3499  0172  1303               	bcf	status, 6	;RP1=0, select bank0
  3500  0173  086A               	movf	((_DIR_READ+1)),w
  3501  0174  0469               	iorwf	((_DIR_READ)),w
  3502  0175  1D03               	skipz
  3503  0176  2978               	goto	u2571
  3504  0177  2979               	goto	u2570
  3505  0178                     u2571:
  3506  0178  2986               	goto	l6891
  3507  0179                     u2570:
  3508                           	line	307
  3509                           	
  3510  0179                     l6889:	
  3511                           ;primary887main.c: 306: {
  3512                           ;primary887main.c: 307: COUNTS += c;
  3513  0179  0820               	movf	(UpdateData@c),w
  3514  017A  1683               	bsf	status, 5	;RP0=1, select bank1
  3515  017B  1303               	bcf	status, 6	;RP1=0, select bank1
  3516  017C  07AE               	addwf	(_COUNTS)^080h,f
  3517  017D  1803               	skipnc
  3518  017E  0AAF               	incf	(_COUNTS+1)^080h,f
  3519  017F  1283               	bcf	status, 5	;RP0=0, select bank0
  3520  0180  1303               	bcf	status, 6	;RP1=0, select bank0
  3521  0181  0821               	movf	(UpdateData@c+1),w
  3522  0182  1683               	bsf	status, 5	;RP0=1, select bank1
  3523  0183  1303               	bcf	status, 6	;RP1=0, select bank1
  3524  0184  07AF               	addwf	(_COUNTS+1)^080h,f
  3525                           	line	308
  3526                           ;primary887main.c: 308: } else
  3527  0185  2994               	goto	l1114
  3528                           	
  3529  0186                     l1112:	
  3530                           	line	310
  3531                           	
  3532  0186                     l6891:	
  3533                           ;primary887main.c: 309: {
  3534                           ;primary887main.c: 310: COUNTS -= c;
  3535  0186  1283               	bcf	status, 5	;RP0=0, select bank0
  3536  0187  0820               	movf	(UpdateData@c),w
  3537  0188  1683               	bsf	status, 5	;RP0=1, select bank1
  3538  0189  1303               	bcf	status, 6	;RP1=0, select bank1
  3539  018A  02AE               	subwf	(_COUNTS)^080h,f
  3540  018B  1283               	bcf	status, 5	;RP0=0, select bank0
  3541  018C  1303               	bcf	status, 6	;RP1=0, select bank0
  3542  018D  0821               	movf	(UpdateData@c+1),w
  3543  018E  1683               	bsf	status, 5	;RP0=1, select bank1
  3544  018F  1303               	bcf	status, 6	;RP1=0, select bank1
  3545  0190  1C03               	skipc
  3546  0191  03AF               	decf	(_COUNTS+1)^080h,f
  3547  0192  02AF               	subwf	(_COUNTS+1)^080h,f
  3548  0193  2994               	goto	l1114
  3549                           	line	311
  3550                           	
  3551  0194                     l1113:	
  3552                           	line	312
  3553                           	
  3554  0194                     l1114:	
  3555  0194  0008               	return
  3556                           	opt stack 0
  3557                           GLOBAL	__end_of_UpdateData
  3558  0195                     	__end_of_UpdateData:
  3559 ;; =============== function _UpdateData ends ============
  3560                           
  3561                           	signat	_UpdateData,4216
  3562                           	global	_EncUpdate
  3563                           psect	text481,local,class=CODE,delta=2
  3564                           global __ptext481
  3565  00FB                     __ptext481:
  3566                           
  3567 ;; *************** function _EncUpdate *****************
  3568 ;; Defined at:
  3569 ;;		line 42 in file "enclib887.c"
  3570 ;; Parameters:    Size  Location     Type
  3571 ;;  t1              1    wreg     PTR int 
  3572 ;;		 -> main@counts(2), 
  3573 ;; Auto vars:     Size  Location     Type
  3574 ;;  t1              1    0[BANK0 ] PTR int 
  3575 ;;		 -> main@counts(2), 
  3576 ;; Return value:  Size  Location     Type
  3577 ;;		None               void
  3578 ;; Registers used:
  3579 ;;		wreg, fsr0l, fsr0h, status,2
  3580 ;; Tracked objects:
  3581 ;;		On entry : 0/0
  3582 ;;		On exit  : 0/0
  3583 ;;		Unchanged: 0/0
  3584 ;; Data sizes:     COMMON   BANK0  BANK1h  BANK1l   BANK3   BANK2
  3585 ;;      Params:         0       0       0       0       0       0
  3586 ;;      Locals:         0       1       0       0       0       0
  3587 ;;      Temps:          0       0       0       0       0       0
  3588 ;;      Totals:         0       1       0       0       0       0
  3589 ;;Total ram usage:        1 bytes
  3590 ;; Hardware stack levels used:    1
  3591 ;; Hardware stack levels required when called:    3
  3592 ;; This function calls:
  3593 ;;		Nothing
  3594 ;; This function is called by:
  3595 ;;		_main
  3596 ;; This function uses a non-reentrant model
  3597 ;;
  3598                           psect	text481
  3599                           	file	"enclib887.c"
  3600                           	line	42
  3601                           	global	__size_of_EncUpdate
  3602  000E                     	__size_of_EncUpdate	equ	__end_of_EncUpdate-_EncUpdate
  3603                           	
  3604  00FB                     _EncUpdate:	
  3605                           	opt	stack 4
  3606                           ; Regs used in _EncUpdate: [wreg-fsr0h+status,2]
  3607                           ;EncUpdate@t1 stored from wreg
  3608  00FB  1283               	bcf	status, 5	;RP0=0, select bank0
  3609  00FC  1303               	bcf	status, 6	;RP1=0, select bank0
  3610  00FD  00A0               	movwf	(EncUpdate@t1)
  3611                           	line	43
  3612                           	
  3613  00FE                     l6883:	
  3614                           ;enclib887.c: 43: *t1 = TMR1;
  3615  00FE  0820               	movf	(EncUpdate@t1),w
  3616  00FF  0084               	movwf	fsr0
  3617  0100  080E               	movf	(14),w	;volatile
  3618  0101  1383               	bcf	status, 7	;select IRP bank0
  3619  0102  0080               	movwf	indf
  3620  0103  0A84               	incf	fsr0,f
  3621  0104  080F               	movf	(14+1),w	;volatile
  3622  0105  0080               	movwf	indf
  3623                           	line	45
  3624                           	
  3625  0106                     l6885:	
  3626                           ;enclib887.c: 45: TMR1 = 0;
  3627  0106  018E               	clrf	(14)	;volatile
  3628  0107  018F               	clrf	(14+1)	;volatile
  3629                           	line	47
  3630                           	
  3631  0108                     l2161:	
  3632  0108  0008               	return
  3633                           	opt stack 0
  3634                           GLOBAL	__end_of_EncUpdate
  3635  0109                     	__end_of_EncUpdate:
  3636 ;; =============== function _EncUpdate ends ============
  3637                           
  3638                           	signat	_EncUpdate,4216
  3639                           	global	_setDirection
  3640                           psect	text482,local,class=CODE,delta=2
  3641                           global __ptext482
  3642  011E                     __ptext482:
  3643                           
  3644 ;; *************** function _setDirection *****************
  3645 ;; Defined at:
  3646 ;;		line 317 in file "primary887main.c"
  3647 ;; Parameters:    Size  Location     Type
  3648 ;;  dir             2    0[BANK0 ] int 
  3649 ;; Auto vars:     Size  Location     Type
  3650 ;;		None
  3651 ;; Return value:  Size  Location     Type
  3652 ;;		None               void
  3653 ;; Registers used:
  3654 ;;		wreg, status,2, status,0
  3655 ;; Tracked objects:
  3656 ;;		On entry : 0/0
  3657 ;;		On exit  : 0/0
  3658 ;;		Unchanged: 0/0
  3659 ;; Data sizes:     COMMON   BANK0  BANK1h  BANK1l   BANK3   BANK2
  3660 ;;      Params:         0       2       0       0       0       0
  3661 ;;      Locals:         0       0       0       0       0       0
  3662 ;;      Temps:          0       0       0       0       0       0
  3663 ;;      Totals:         0       2       0       0       0       0
  3664 ;;Total ram usage:        2 bytes
  3665 ;; Hardware stack levels used:    1
  3666 ;; Hardware stack levels required when called:    3
  3667 ;; This function calls:
  3668 ;;		Nothing
  3669 ;; This function is called by:
  3670 ;;		_main
  3671 ;; This function uses a non-reentrant model
  3672 ;;
  3673                           psect	text482
  3674                           	file	"primary887main.c"
  3675                           	line	317
  3676                           	global	__size_of_setDirection
  3677  0017                     	__size_of_setDirection	equ	__end_of_setDirection-_setDirection
  3678                           	
  3679  011E                     _setDirection:	
  3680                           	opt	stack 4
  3681                           ; Regs used in _setDirection: [wreg+status,2+status,0]
  3682                           	line	318
  3683                           	
  3684  011E                     l6875:	
  3685                           ;primary887main.c: 318: if (dir == 0)
  3686  011E  1283               	bcf	status, 5	;RP0=0, select bank0
  3687  011F  1303               	bcf	status, 6	;RP1=0, select bank0
  3688  0120  0821               	movf	((setDirection@dir+1)),w
  3689  0121  0420               	iorwf	((setDirection@dir)),w
  3690  0122  1D03               	skipz
  3691  0123  2925               	goto	u2551
  3692  0124  2926               	goto	u2550
  3693  0125                     u2551:
  3694  0125  2928               	goto	l6879
  3695  0126                     u2550:
  3696                           	line	319
  3697                           	
  3698  0126                     l6877:	
  3699                           ;primary887main.c: 319: PORTBbits.RB3 = 0;
  3700  0126  1186               	bcf	(6),3	;volatile
  3701  0127  2934               	goto	l1121
  3702                           	line	320
  3703                           	
  3704  0128                     l1117:	
  3705                           	
  3706  0128                     l6879:	
  3707                           ;primary887main.c: 320: else if (dir == 1)
  3708  0128  3001               	movlw	01h
  3709  0129  0620               	xorwf	(setDirection@dir),w
  3710  012A  0421               	iorwf	(setDirection@dir+1),w
  3711  012B  1D03               	skipz
  3712  012C  292E               	goto	u2561
  3713  012D  292F               	goto	u2560
  3714  012E                     u2561:
  3715  012E  2931               	goto	l1119
  3716  012F                     u2560:
  3717                           	line	321
  3718                           	
  3719  012F                     l6881:	
  3720                           ;primary887main.c: 321: PORTBbits.RB3 = !0;
  3721  012F  1586               	bsf	(6),3	;volatile
  3722  0130  2934               	goto	l1121
  3723                           	line	322
  3724                           	
  3725  0131                     l1119:	
  3726                           	line	323
  3727                           ;primary887main.c: 322: else
  3728                           ;primary887main.c: 323: PORTBbits.RB3 = 0;
  3729  0131  1186               	bcf	(6),3	;volatile
  3730  0132  2934               	goto	l1121
  3731                           	
  3732  0133                     l1120:	
  3733  0133  2934               	goto	l1121
  3734                           	
  3735  0134                     l1118:	
  3736                           	line	324
  3737                           	
  3738  0134                     l1121:	
  3739  0134  0008               	return
  3740                           	opt stack 0
  3741                           GLOBAL	__end_of_setDirection
  3742  0135                     	__end_of_setDirection:
  3743 ;; =============== function _setDirection ends ============
  3744                           
  3745                           	signat	_setDirection,4216
  3746                           	global	_delay1sec
  3747                           psect	text483,local,class=CODE,delta=2
  3748                           global __ptext483
  3749  0215                     __ptext483:
  3750                           
  3751 ;; *************** function _delay1sec *****************
  3752 ;; Defined at:
  3753 ;;		line 339 in file "primary887main.c"
  3754 ;; Parameters:    Size  Location     Type
  3755 ;;		None
  3756 ;; Auto vars:     Size  Location     Type
  3757 ;;  i               2    0[BANK0 ] int 
  3758 ;; Return value:  Size  Location     Type
  3759 ;;		None               void
  3760 ;; Registers used:
  3761 ;;		wreg, status,2, btemp+1
  3762 ;; Tracked objects:
  3763 ;;		On entry : 0/0
  3764 ;;		On exit  : 0/0
  3765 ;;		Unchanged: 0/0
  3766 ;; Data sizes:     COMMON   BANK0  BANK1h  BANK1l   BANK3   BANK2
  3767 ;;      Params:         0       0       0       0       0       0
  3768 ;;      Locals:         0       2       0       0       0       0
  3769 ;;      Temps:          0       0       0       0       0       0
  3770 ;;      Totals:         0       2       0       0       0       0
  3771 ;;Total ram usage:        2 bytes
  3772 ;; Hardware stack levels used:    1
  3773 ;; Hardware stack levels required when called:    3
  3774 ;; This function calls:
  3775 ;;		Nothing
  3776 ;; This function is called by:
  3777 ;;		_main
  3778 ;; This function uses a non-reentrant model
  3779 ;;
  3780                           psect	text483
  3781                           	file	"primary887main.c"
  3782                           	line	339
  3783                           	global	__size_of_delay1sec
  3784  0031                     	__size_of_delay1sec	equ	__end_of_delay1sec-_delay1sec
  3785                           	
  3786  0215                     _delay1sec:	
  3787                           	opt	stack 4
  3788                           ; Regs used in _delay1sec: [wreg+status,2+btemp+1]
  3789                           	line	342
  3790                           	
  3791  0215                     l6865:	
  3792                           ;primary887main.c: 340: int i;
  3793                           ;primary887main.c: 342: for(i = 0; i <= 76; i++)
  3794  0215  1283               	bcf	status, 5	;RP0=0, select bank0
  3795  0216  1303               	bcf	status, 6	;RP1=0, select bank0
  3796  0217  01A0               	clrf	(delay1sec@i)
  3797  0218  01A1               	clrf	(delay1sec@i+1)
  3798                           	
  3799  0219                     l6867:	
  3800  0219  0821               	movf	(delay1sec@i+1),w
  3801  021A  3A80               	xorlw	80h
  3802  021B  00FF               	movwf	btemp+1
  3803  021C  3080               	movlw	(high(04Dh))^80h
  3804  021D  027F               	subwf	btemp+1,w
  3805  021E  1D03               	skipz
  3806  021F  2A22               	goto	u2525
  3807  0220  304D               	movlw	low(04Dh)
  3808  0221  0220               	subwf	(delay1sec@i),w
  3809  0222                     u2525:
  3810                           
  3811  0222  1C03               	skipc
  3812  0223  2A25               	goto	u2521
  3813  0224  2A26               	goto	u2520
  3814  0225                     u2521:
  3815  0225  2A2A               	goto	l1130
  3816  0226                     u2520:
  3817  0226  2A45               	goto	l1133
  3818                           	
  3819  0227                     l6869:	
  3820  0227  2A45               	goto	l1133
  3821                           	line	343
  3822                           	
  3823  0228                     l1128:	
  3824                           	line	344
  3825                           ;primary887main.c: 343: {
  3826                           ;primary887main.c: 344: while (T0IF == 0)
  3827  0228  2A2A               	goto	l1130
  3828                           	
  3829  0229                     l1131:	
  3830                           	line	345
  3831                           # 345 "primary887main.c"
  3832  0229  0000               nop ;#
  3833                           psect	text483
  3834                           	
  3835  022A                     l1130:	
  3836                           	line	344
  3837  022A  1D0B               	btfss	(90/8),(90)&7
  3838  022B  2A2D               	goto	u2531
  3839  022C  2A2E               	goto	u2530
  3840  022D                     u2531:
  3841  022D  2A29               	goto	l1131
  3842  022E                     u2530:
  3843                           	
  3844  022E                     l1132:	
  3845                           	line	346
  3846                           ;primary887main.c: 346: T0IF = 0;
  3847  022E  110B               	bcf	(90/8),(90)&7
  3848                           	line	342
  3849                           	
  3850  022F                     l6871:	
  3851  022F  3001               	movlw	low(01h)
  3852  0230  1283               	bcf	status, 5	;RP0=0, select bank0
  3853  0231  1303               	bcf	status, 6	;RP1=0, select bank0
  3854  0232  07A0               	addwf	(delay1sec@i),f
  3855  0233  1803               	skipnc
  3856  0234  0AA1               	incf	(delay1sec@i+1),f
  3857  0235  3000               	movlw	high(01h)
  3858  0236  07A1               	addwf	(delay1sec@i+1),f
  3859                           	
  3860  0237                     l6873:	
  3861  0237  0821               	movf	(delay1sec@i+1),w
  3862  0238  3A80               	xorlw	80h
  3863  0239  00FF               	movwf	btemp+1
  3864  023A  3080               	movlw	(high(04Dh))^80h
  3865  023B  027F               	subwf	btemp+1,w
  3866  023C  1D03               	skipz
  3867  023D  2A40               	goto	u2545
  3868  023E  304D               	movlw	low(04Dh)
  3869  023F  0220               	subwf	(delay1sec@i),w
  3870  0240                     u2545:
  3871                           
  3872  0240  1C03               	skipc
  3873  0241  2A43               	goto	u2541
  3874  0242  2A44               	goto	u2540
  3875  0243                     u2541:
  3876  0243  2A2A               	goto	l1130
  3877  0244                     u2540:
  3878  0244  2A45               	goto	l1133
  3879                           	
  3880  0245                     l1129:	
  3881                           	line	348
  3882                           	
  3883  0245                     l1133:	
  3884  0245  0008               	return
  3885                           	opt stack 0
  3886                           GLOBAL	__end_of_delay1sec
  3887  0246                     	__end_of_delay1sec:
  3888 ;; =============== function _delay1sec ends ============
  3889                           
  3890                           	signat	_delay1sec,88
  3891                           	global	_SetPulse
  3892                           psect	text484,local,class=CODE,delta=2
  3893                           global __ptext484
  3894  0151                     __ptext484:
  3895                           
  3896 ;; *************** function _SetPulse *****************
  3897 ;; Defined at:
  3898 ;;		line 105 in file "pwmlib887.c"
  3899 ;; Parameters:    Size  Location     Type
  3900 ;;  length          2    0[BANK0 ] int 
  3901 ;; Auto vars:     Size  Location     Type
  3902 ;;  temp            2    2[BANK0 ] int 
  3903 ;; Return value:  Size  Location     Type
  3904 ;;		None               void
  3905 ;; Registers used:
  3906 ;;		wreg, status,2, status,0, btemp+1
  3907 ;; Tracked objects:
  3908 ;;		On entry : 0/0
  3909 ;;		On exit  : 0/0
  3910 ;;		Unchanged: 0/0
  3911 ;; Data sizes:     COMMON   BANK0  BANK1h  BANK1l   BANK3   BANK2
  3912 ;;      Params:         0       2       0       0       0       0
  3913 ;;      Locals:         0       2       0       0       0       0
  3914 ;;      Temps:          0       0       0       0       0       0
  3915 ;;      Totals:         0       4       0       0       0       0
  3916 ;;Total ram usage:        4 bytes
  3917 ;; Hardware stack levels used:    1
  3918 ;; Hardware stack levels required when called:    3
  3919 ;; This function calls:
  3920 ;;		Nothing
  3921 ;; This function is called by:
  3922 ;;		_main
  3923 ;; This function uses a non-reentrant model
  3924 ;;
  3925                           psect	text484
  3926                           	file	"pwmlib887.c"
  3927                           	line	105
  3928                           	global	__size_of_SetPulse
  3929  0020                     	__size_of_SetPulse	equ	__end_of_SetPulse-_SetPulse
  3930                           	
  3931  0151                     _SetPulse:	
  3932                           	opt	stack 4
  3933                           ; Regs used in _SetPulse: [wreg+status,2+status,0+btemp+1]
  3934                           	line	106
  3935                           	
  3936  0151                     l6859:	
  3937                           ;pwmlib887.c: 106: int temp = length;
  3938  0151  1283               	bcf	status, 5	;RP0=0, select bank0
  3939  0152  1303               	bcf	status, 6	;RP1=0, select bank0
  3940  0153  0821               	movf	(SetPulse@length+1),w
  3941  0154  01A3               	clrf	(SetPulse@temp+1)
  3942  0155  07A3               	addwf	(SetPulse@temp+1)
  3943  0156  0820               	movf	(SetPulse@length),w
  3944  0157  01A2               	clrf	(SetPulse@temp)
  3945  0158  07A2               	addwf	(SetPulse@temp)
  3946                           
  3947                           	line	107
  3948                           	
  3949  0159                     l6861:	
  3950                           ;pwmlib887.c: 107: if (temp > 255)
  3951  0159  0823               	movf	(SetPulse@temp+1),w
  3952  015A  3A80               	xorlw	80h
  3953  015B  00FF               	movwf	btemp+1
  3954  015C  3081               	movlw	(high(0100h))^80h
  3955  015D  027F               	subwf	btemp+1,w
  3956  015E  1D03               	skipz
  3957  015F  2962               	goto	u2515
  3958  0160  3000               	movlw	low(0100h)
  3959  0161  0222               	subwf	(SetPulse@temp),w
  3960  0162                     u2515:
  3961                           
  3962  0162  1C03               	skipc
  3963  0163  2965               	goto	u2511
  3964  0164  2966               	goto	u2510
  3965  0165                     u2511:
  3966  0165  296C               	goto	l4262
  3967  0166                     u2510:
  3968                           	line	108
  3969                           	
  3970  0166                     l6863:	
  3971                           ;pwmlib887.c: 108: temp = 255;
  3972  0166  30FF               	movlw	low(0FFh)
  3973  0167  1283               	bcf	status, 5	;RP0=0, select bank0
  3974  0168  1303               	bcf	status, 6	;RP1=0, select bank0
  3975  0169  00A2               	movwf	(SetPulse@temp)
  3976  016A  3000               	movlw	high(0FFh)
  3977  016B  00A3               	movwf	((SetPulse@temp))+1
  3978                           	
  3979  016C                     l4262:	
  3980                           	line	109
  3981                           ;pwmlib887.c: 109: CCPR2L = temp;
  3982  016C  1283               	bcf	status, 5	;RP0=0, select bank0
  3983  016D  1303               	bcf	status, 6	;RP1=0, select bank0
  3984  016E  0822               	movf	(SetPulse@temp),w
  3985  016F  009B               	movwf	(27)	;volatile
  3986                           	line	113
  3987                           	
  3988  0170                     l4263:	
  3989  0170  0008               	return
  3990                           	opt stack 0
  3991                           GLOBAL	__end_of_SetPulse
  3992  0171                     	__end_of_SetPulse:
  3993 ;; =============== function _SetPulse ends ============
  3994                           
  3995                           	signat	_SetPulse,4216
  3996                           	global	_isr
  3997                           psect	text485,local,class=CODE,delta=2
  3998                           global __ptext485
  3999  0246                     __ptext485:
  4000                           
  4001 ;; *************** function _isr *****************
  4002 ;; Defined at:
  4003 ;;		line 256 in file "primary887main.c"
  4004 ;; Parameters:    Size  Location     Type
  4005 ;;		None
  4006 ;; Auto vars:     Size  Location     Type
  4007 ;;		None
  4008 ;; Return value:  Size  Location     Type
  4009 ;;		None               void
  4010 ;; Registers used:
  4011 ;;		wreg, fsr0l, fsr0h, fsr1l, fsr1h, status,2, status,0, btemp+1, pclath, cstack
  4012 ;; Tracked objects:
  4013 ;;		On entry : 0/0
  4014 ;;		On exit  : 0/0
  4015 ;;		Unchanged: 0/0
  4016 ;; Data sizes:     COMMON   BANK0  BANK1h  BANK1l   BANK3   BANK2
  4017 ;;      Params:         0       0       0       0       0       0
  4018 ;;      Locals:         0       0       0       0       0       0
  4019 ;;      Temps:          6       0       0       0       0       0
  4020 ;;      Totals:         6       0       0       0       0       0
  4021 ;;Total ram usage:        6 bytes
  4022 ;; Hardware stack levels used:    1
  4023 ;; Hardware stack levels required when called:    2
  4024 ;; This function calls:
  4025 ;;		_i2cIsrHandler
  4026 ;; This function is called by:
  4027 ;;		Interrupt level 1
  4028 ;; This function uses a non-reentrant model
  4029 ;;
  4030                           psect	text485
  4031                           	file	"primary887main.c"
  4032                           	line	256
  4033                           	global	__size_of_isr
  4034  006C                     	__size_of_isr	equ	__end_of_isr-_isr
  4035                           	
  4036  0246                     _isr:	
  4037                           	opt	stack 3
  4038                           ; Regs used in _isr: [allreg]
  4039                           psect	intentry,class=CODE,delta=2
  4040                           global __pintentry
  4041  0004                     __pintentry:
  4042                           global interrupt_function
  4043  0004                     interrupt_function:
  4044                           	global saved_w
  4045  007E                     	saved_w	set	btemp+0
  4046  0004  00FE               	movwf	saved_w
  4047  0005  0E03               	swapf	status,w
  4048  0006  00F7               	movwf	(??_isr+2)
  4049  0007  0804               	movf	fsr0,w
  4050  0008  00F8               	movwf	(??_isr+3)
  4051  0009  080A               	movf	pclath,w
  4052  000A  00F9               	movwf	(??_isr+4)
  4053  000B  1283               	bcf	status, 5	;RP0=0, select bank0
  4054  000C  1303               	bcf	status, 6	;RP1=0, select bank0
  4055  000D  087F               	movf	btemp+1,w
  4056  000E  00FA               	movwf	(??_isr+5)
  4057  000F  120A  118A  2A46   	ljmp	_isr
  4058                           psect	text485
  4059                           	line	257
  4060                           	
  4061  0246                     i1l6903:	
  4062                           ;primary887main.c: 257: if (SSPIF == 1)
  4063  0246  1D8C               	btfss	(99/8),(99)&7
  4064  0247  2A49               	goto	u258_21
  4065  0248  2A4A               	goto	u258_20
  4066  0249                     u258_21:
  4067  0249  2A53               	goto	i1l1097
  4068  024A                     u258_20:
  4069                           	line	259
  4070                           	
  4071  024A                     i1l6905:	
  4072                           ;primary887main.c: 258: {
  4073                           ;primary887main.c: 259: F.I2C = 1;
  4074  024A  1683               	bsf	status, 5	;RP0=1, select bank1
  4075  024B  1303               	bcf	status, 6	;RP1=0, select bank1
  4076  024C  142A               	bsf	(170)^080h,0
  4077                           	line	261
  4078                           	
  4079  024D                     i1l6907:	
  4080                           ;primary887main.c: 261: i2cIsrHandler();
  4081  024D  120A  118A  232F   	fcall	_i2cIsrHandler
              120A  118A         
  4082                           	line	262
  4083                           ;primary887main.c: 262: } else if (T0IF == 1)
  4084  0252  2AA5               	goto	i1l1109
  4085                           	
  4086  0253                     i1l1097:	
  4087  0253  1D0B               	btfss	(90/8),(90)&7
  4088  0254  2A56               	goto	u259_21
  4089  0255  2A57               	goto	u259_20
  4090  0256                     u259_21:
  4091  0256  2A70               	goto	i1l1099
  4092  0257                     u259_20:
  4093                           	line	267
  4094                           	
  4095  0257                     i1l6909:	
  4096                           ;primary887main.c: 263: {
  4097                           ;primary887main.c: 267: if (TMR0_OverflowCount == TMR0_OverflowTarget)
  4098  0257  1683               	bsf	status, 5	;RP0=1, select bank1
  4099  0258  1303               	bcf	status, 6	;RP1=0, select bank1
  4100  0259  0833               	movf	(_TMR0_OverflowTarget+1)^080h,w
  4101  025A  0631               	xorwf	(_TMR0_OverflowCount+1)^080h,w
  4102  025B  1D03               	skipz
  4103  025C  2A5F               	goto	u260_25
  4104  025D  0832               	movf	(_TMR0_OverflowTarget)^080h,w
  4105  025E  0630               	xorwf	(_TMR0_OverflowCount)^080h,w
  4106  025F                     u260_25:
  4107                           
  4108  025F  1D03               	skipz
  4109  0260  2A62               	goto	u260_21
  4110  0261  2A63               	goto	u260_20
  4111  0262                     u260_21:
  4112  0262  2A67               	goto	i1l6915
  4113  0263                     u260_20:
  4114                           	line	269
  4115                           	
  4116  0263                     i1l6911:	
  4117                           ;primary887main.c: 268: {
  4118                           ;primary887main.c: 269: F.T0 = 1;
  4119  0263  14AA               	bsf	(170)^080h,1
  4120                           	line	270
  4121                           	
  4122  0264                     i1l6913:	
  4123                           ;primary887main.c: 270: TMR0_OverflowCount = 0;
  4124  0264  01B0               	clrf	(_TMR0_OverflowCount)^080h
  4125  0265  01B1               	clrf	(_TMR0_OverflowCount+1)^080h
  4126                           	line	271
  4127                           ;primary887main.c: 271: } else
  4128  0266  2A6E               	goto	i1l6917
  4129                           	
  4130  0267                     i1l1100:	
  4131                           	line	272
  4132                           	
  4133  0267                     i1l6915:	
  4134                           ;primary887main.c: 272: TMR0_OverflowCount++;
  4135  0267  3001               	movlw	low(01h)
  4136  0268  07B0               	addwf	(_TMR0_OverflowCount)^080h,f
  4137  0269  1803               	skipnc
  4138  026A  0AB1               	incf	(_TMR0_OverflowCount+1)^080h,f
  4139  026B  3000               	movlw	high(01h)
  4140  026C  07B1               	addwf	(_TMR0_OverflowCount+1)^080h,f
  4141  026D  2A6E               	goto	i1l6917
  4142                           	
  4143  026E                     i1l1101:	
  4144                           	line	274
  4145                           	
  4146  026E                     i1l6917:	
  4147                           ;primary887main.c: 274: T0IF = 0;
  4148  026E  110B               	bcf	(90/8),(90)&7
  4149                           	line	275
  4150                           ;primary887main.c: 275: } else if (TMR1IF == 1)
  4151  026F  2AA5               	goto	i1l1109
  4152                           	
  4153  0270                     i1l1099:	
  4154  0270  1C0C               	btfss	(96/8),(96)&7
  4155  0271  2A73               	goto	u261_21
  4156  0272  2A74               	goto	u261_20
  4157  0273                     u261_21:
  4158  0273  2A76               	goto	i1l1103
  4159  0274                     u261_20:
  4160                           	line	278
  4161                           	
  4162  0274                     i1l6919:	
  4163                           ;primary887main.c: 278: TMR1IF = 0;
  4164  0274  100C               	bcf	(96/8),(96)&7
  4165                           	line	279
  4166                           ;primary887main.c: 279: } else if (RBIF == 1)
  4167  0275  2AA5               	goto	i1l1109
  4168                           	
  4169  0276                     i1l1103:	
  4170  0276  1C0B               	btfss	(88/8),(88)&7
  4171  0277  2A79               	goto	u262_21
  4172  0278  2A7A               	goto	u262_20
  4173  0279                     u262_21:
  4174  0279  2A9A               	goto	i1l6931
  4175  027A                     u262_20:
  4176                           	line	281
  4177                           	
  4178  027A                     i1l6921:	
  4179                           ;primary887main.c: 280: {
  4180                           ;primary887main.c: 281: if (RB5 != DIR_READ)
  4181  027A  1003               	clrc
  4182  027B  1A86               	btfsc	(53/8),(53)&7
  4183  027C  1403               	setc
  4184  027D  3000               	movlw	0
  4185  027E  1803               	skipnc
  4186  027F  3001               	movlw	1
  4187                           
  4188  0280  00F5               	movwf	(??_isr+0)+0
  4189  0281  01F6               	clrf	(??_isr+0)+0+1
  4190  0282  086A               	movf	(_DIR_READ+1),w
  4191  0283  0676               	xorwf	1+(??_isr+0)+0,w
  4192  0284  1D03               	skipz
  4193  0285  2A88               	goto	u263_25
  4194  0286  0869               	movf	(_DIR_READ),w
  4195  0287  0675               	xorwf	0+(??_isr+0)+0,w
  4196  0288                     u263_25:
  4197                           
  4198  0288  1903               	skipnz
  4199  0289  2A8B               	goto	u263_21
  4200  028A  2A8C               	goto	u263_20
  4201  028B                     u263_21:
  4202  028B  2A90               	goto	i1l6925
  4203  028C                     u263_20:
  4204                           	line	283
  4205                           	
  4206  028C                     i1l6923:	
  4207                           ;primary887main.c: 282: {
  4208                           ;primary887main.c: 283: F.DIR = 1;
  4209  028C  1683               	bsf	status, 5	;RP0=1, select bank1
  4210  028D  1303               	bcf	status, 6	;RP1=0, select bank1
  4211  028E  15AA               	bsf	(170)^080h,3
  4212                           	line	284
  4213                           ;primary887main.c: 284: } else
  4214  028F  2A98               	goto	i1l6929
  4215                           	
  4216  0290                     i1l1106:	
  4217                           	line	286
  4218                           	
  4219  0290                     i1l6925:	
  4220                           ;primary887main.c: 285: {
  4221                           ;primary887main.c: 286: TRISD = 0;
  4222  0290  1683               	bsf	status, 5	;RP0=1, select bank1
  4223  0291  1303               	bcf	status, 6	;RP1=0, select bank1
  4224  0292  0188               	clrf	(136)^080h	;volatile
  4225                           	line	287
  4226                           	
  4227  0293                     i1l6927:	
  4228                           ;primary887main.c: 287: PORTD = 0x90;
  4229  0293  3090               	movlw	(090h)
  4230  0294  1283               	bcf	status, 5	;RP0=0, select bank0
  4231  0295  1303               	bcf	status, 6	;RP1=0, select bank0
  4232  0296  0088               	movwf	(8)	;volatile
  4233  0297  2A98               	goto	i1l6929
  4234                           	line	288
  4235                           	
  4236  0298                     i1l1107:	
  4237                           	line	289
  4238                           	
  4239  0298                     i1l6929:	
  4240                           ;primary887main.c: 288: }
  4241                           ;primary887main.c: 289: RBIF = 0;
  4242  0298  100B               	bcf	(88/8),(88)&7
  4243                           	line	290
  4244                           ;primary887main.c: 290: } else
  4245  0299  2AA5               	goto	i1l1109
  4246                           	
  4247  029A                     i1l1105:	
  4248                           	line	292
  4249                           	
  4250  029A                     i1l6931:	
  4251                           ;primary887main.c: 291: {
  4252                           ;primary887main.c: 292: TRISD = 0;
  4253  029A  1683               	bsf	status, 5	;RP0=1, select bank1
  4254  029B  1303               	bcf	status, 6	;RP1=0, select bank1
  4255  029C  0188               	clrf	(136)^080h	;volatile
  4256                           	line	293
  4257                           	
  4258  029D                     i1l6933:	
  4259                           ;primary887main.c: 293: PORTD = 0xF0;
  4260  029D  30F0               	movlw	(0F0h)
  4261  029E  1283               	bcf	status, 5	;RP0=0, select bank0
  4262  029F  1303               	bcf	status, 6	;RP1=0, select bank0
  4263  02A0  0088               	movwf	(8)	;volatile
  4264  02A1  2AA5               	goto	i1l1109
  4265                           	line	294
  4266                           	
  4267  02A2                     i1l1108:	
  4268  02A2  2AA5               	goto	i1l1109
  4269                           	
  4270  02A3                     i1l1104:	
  4271  02A3  2AA5               	goto	i1l1109
  4272                           	
  4273  02A4                     i1l1102:	
  4274  02A4  2AA5               	goto	i1l1109
  4275                           	
  4276  02A5                     i1l1098:	
  4277                           	line	295
  4278                           	
  4279  02A5                     i1l1109:	
  4280  02A5  087A               	movf	(??_isr+5),w
  4281  02A6  1283               	bcf	status, 5	;RP0=0, select bank0
  4282  02A7  1303               	bcf	status, 6	;RP1=0, select bank0
  4283  02A8  00FF               	movwf	btemp+1
  4284  02A9  0879               	movf	(??_isr+4),w
  4285  02AA  008A               	movwf	pclath
  4286  02AB  0878               	movf	(??_isr+3),w
  4287  02AC  0084               	movwf	fsr0
  4288  02AD  0E77               	swapf	(??_isr+2)^0FFFFFF80h,w
  4289  02AE  0083               	movwf	status
  4290  02AF  0EFE               	swapf	saved_w,f
  4291  02B0  0E7E               	swapf	saved_w,w
  4292  02B1  0009               	retfie
  4293                           	opt stack 0
  4294                           GLOBAL	__end_of_isr
  4295  02B2                     	__end_of_isr:
  4296 ;; =============== function _isr ends ============
  4297                           
  4298                           	signat	_isr,88
  4299                           	global	_i2cIsrHandler
  4300                           psect	text486,local,class=CODE,delta=2
  4301                           global __ptext486
  4302  032F                     __ptext486:
  4303                           
  4304 ;; *************** function _i2cIsrHandler *****************
  4305 ;; Defined at:
  4306 ;;		line 43 in file "i2cSlave887.c"
  4307 ;; Parameters:    Size  Location     Type
  4308 ;;		None
  4309 ;; Auto vars:     Size  Location     Type
  4310 ;;  i               2    2[COMMON] int 
  4311 ;; Return value:  Size  Location     Type
  4312 ;;		None               void
  4313 ;; Registers used:
  4314 ;;		wreg, fsr0l, fsr0h, status,2, status,0, pclath, cstack
  4315 ;; Tracked objects:
  4316 ;;		On entry : 0/0
  4317 ;;		On exit  : 0/0
  4318 ;;		Unchanged: 0/0
  4319 ;; Data sizes:     COMMON   BANK0  BANK1h  BANK1l   BANK3   BANK2
  4320 ;;      Params:         0       0       0       0       0       0
  4321 ;;      Locals:         2       0       0       0       0       0
  4322 ;;      Temps:          1       0       0       0       0       0
  4323 ;;      Totals:         3       0       0       0       0       0
  4324 ;;Total ram usage:        3 bytes
  4325 ;; Hardware stack levels used:    1
  4326 ;; Hardware stack levels required when called:    1
  4327 ;; This function calls:
  4328 ;;		_i2cSend
  4329 ;;		_i2cDataUpdate
  4330 ;; This function is called by:
  4331 ;;		_isr
  4332 ;; This function uses a non-reentrant model
  4333 ;;
  4334                           psect	text486
  4335                           	file	"i2cSlave887.c"
  4336                           	line	43
  4337                           	global	__size_of_i2cIsrHandler
  4338  0087                     	__size_of_i2cIsrHandler	equ	__end_of_i2cIsrHandler-_i2cIsrHandler
  4339                           	
  4340  032F                     _i2cIsrHandler:	
  4341                           	opt	stack 3
  4342                           ; Regs used in _i2cIsrHandler: [wreg-fsr0h+status,2+status,0+pclath+cstack]
  4343                           	line	51
  4344                           	
  4345  032F                     i1l6935:	
  4346                           ;i2cSlave887.c: 51: int i = 0;
  4347  032F  01F3               	clrf	(i2cIsrHandler@i)
  4348  0330  01F4               	clrf	(i2cIsrHandler@i+1)
  4349                           	line	52
  4350                           	
  4351  0331                     i1l6937:	
  4352                           ;i2cSlave887.c: 52: i++;
  4353  0331  3001               	movlw	low(01h)
  4354  0332  07F3               	addwf	(i2cIsrHandler@i),f
  4355  0333  1803               	skipnc
  4356  0334  0AF4               	incf	(i2cIsrHandler@i+1),f
  4357  0335  3000               	movlw	high(01h)
  4358  0336  07F4               	addwf	(i2cIsrHandler@i+1),f
  4359                           	line	54
  4360                           ;i2cSlave887.c: 54: if ((SSPSTAT & 0b00100100) == 0b00100000){
  4361  0337  1683               	bsf	status, 5	;RP0=1, select bank1
  4362  0338  1303               	bcf	status, 6	;RP1=0, select bank1
  4363  0339  0814               	movf	(148)^080h,w
  4364  033A  3924               	andlw	024h
  4365  033B  3A20               	xorlw	020h
  4366  033C  1D03               	skipz
  4367  033D  2B3F               	goto	u264_21
  4368  033E  2B40               	goto	u264_20
  4369  033F                     u264_21:
  4370  033F  2B4F               	goto	i1l6943
  4371  0340                     u264_20:
  4372                           	line	55
  4373                           	
  4374  0340                     i1l6939:	
  4375                           ;i2cSlave887.c: 55: i2cBuffer[i2cBufferVal] = SSPBUF;
  4376  0340  1283               	bcf	status, 5	;RP0=0, select bank0
  4377  0341  1303               	bcf	status, 6	;RP1=0, select bank0
  4378  0342  0813               	movf	(19),w	;volatile
  4379  0343  00F2               	movwf	(??_i2cIsrHandler+0)+0
  4380  0344  087B               	movf	(_i2cBufferVal),w
  4381  0345  3EAB               	addlw	_i2cBuffer&0ffh
  4382  0346  0084               	movwf	fsr0
  4383  0347  0872               	movf	(??_i2cIsrHandler+0)+0,w
  4384  0348  1383               	bcf	status, 7	;select IRP bank1
  4385  0349  0080               	movwf	indf
  4386                           	line	56
  4387                           	
  4388  034A                     i1l6941:	
  4389                           ;i2cSlave887.c: 56: i2cBufferVal++;
  4390  034A  3001               	movlw	(01h)
  4391  034B  00F2               	movwf	(??_i2cIsrHandler+0)+0
  4392  034C  0872               	movf	(??_i2cIsrHandler+0)+0,w
  4393  034D  07FB               	addwf	(_i2cBufferVal),f
  4394                           	line	58
  4395                           ;i2cSlave887.c: 58: } else if ((SSPSTAT & 0b00100100) == 0b0000000){
  4396  034E  2BA4               	goto	i1l6963
  4397                           	
  4398  034F                     i1l3205:	
  4399                           	
  4400  034F                     i1l6943:	
  4401  034F  1683               	bsf	status, 5	;RP0=1, select bank1
  4402  0350  1303               	bcf	status, 6	;RP1=0, select bank1
  4403  0351  0814               	movf	(148)^080h,w
  4404  0352  3924               	andlw	024h
  4405  0353  1D03               	btfss	status,2
  4406  0354  2B56               	goto	u265_21
  4407  0355  2B57               	goto	u265_20
  4408  0356                     u265_21:
  4409  0356  2B5B               	goto	i1l6947
  4410  0357                     u265_20:
  4411                           	line	60
  4412                           	
  4413  0357                     i1l6945:	
  4414                           ;i2cSlave887.c: 60: SSPBUF = 0;
  4415  0357  1283               	bcf	status, 5	;RP0=0, select bank0
  4416  0358  1303               	bcf	status, 6	;RP1=0, select bank0
  4417  0359  0193               	clrf	(19)	;volatile
  4418                           	line	62
  4419                           ;i2cSlave887.c: 62: } else if ((SSPSTAT & 0b00100100) == 0b0000100){
  4420  035A  2BA4               	goto	i1l6963
  4421                           	
  4422  035B                     i1l3207:	
  4423                           	
  4424  035B                     i1l6947:	
  4425  035B  1683               	bsf	status, 5	;RP0=1, select bank1
  4426  035C  1303               	bcf	status, 6	;RP1=0, select bank1
  4427  035D  0814               	movf	(148)^080h,w
  4428  035E  3924               	andlw	024h
  4429  035F  3A04               	xorlw	04h
  4430  0360  1D03               	skipz
  4431  0361  2B63               	goto	u266_21
  4432  0362  2B64               	goto	u266_20
  4433  0363                     u266_21:
  4434  0363  2B6F               	goto	i1l6951
  4435  0364                     u266_20:
  4436                           	line	65
  4437                           	
  4438  0364                     i1l6949:	
  4439                           ;i2cSlave887.c: 65: i2cSend(i2cSpeed*2);
  4440  0364  1283               	bcf	status, 5	;RP0=0, select bank0
  4441  0365  1303               	bcf	status, 6	;RP1=0, select bank0
  4442  0366  086E               	movf	(_i2cSpeed),w
  4443  0367  00F2               	movwf	(??_i2cIsrHandler+0)+0
  4444  0368  0772               	addwf	(??_i2cIsrHandler+0)+0,w
  4445  0369  120A  118A  20E9   	fcall	_i2cSend
              120A  118A         
  4446                           	line	67
  4447                           ;i2cSlave887.c: 67: } else if ((SSPSTAT & 0b00001100) == 0b00001100){
  4448  036E  2BA4               	goto	i1l6963
  4449                           	
  4450  036F                     i1l3209:	
  4451                           	
  4452  036F                     i1l6951:	
  4453  036F  1683               	bsf	status, 5	;RP0=1, select bank1
  4454  0370  1303               	bcf	status, 6	;RP1=0, select bank1
  4455  0371  0814               	movf	(148)^080h,w
  4456  0372  390C               	andlw	0Ch
  4457  0373  3A0C               	xorlw	0Ch
  4458  0374  1D03               	skipz
  4459  0375  2B77               	goto	u267_21
  4460  0376  2B78               	goto	u267_20
  4461  0377                     u267_21:
  4462  0377  2BA4               	goto	i1l6963
  4463  0378                     u267_20:
  4464                           	line	80
  4465                           	
  4466  0378                     i1l6953:	
  4467                           ;i2cSlave887.c: 80: i2cRequest = SSPBUF;
  4468  0378  1283               	bcf	status, 5	;RP0=0, select bank0
  4469  0379  1303               	bcf	status, 6	;RP1=0, select bank0
  4470  037A  0813               	movf	(19),w	;volatile
  4471  037B  00F2               	movwf	(??_i2cIsrHandler+0)+0
  4472  037C  0872               	movf	(??_i2cIsrHandler+0)+0,w
  4473  037D  00FC               	movwf	(_i2cRequest)
  4474                           	line	82
  4475                           ;i2cSlave887.c: 82: if (i2cRequest == 1){
  4476  037E  087C               	movf	(_i2cRequest),w
  4477  037F  3A01               	xorlw	01h
  4478  0380  1D03               	skipz
  4479  0381  2B83               	goto	u268_21
  4480  0382  2B84               	goto	u268_20
  4481  0383                     u268_21:
  4482  0383  2B8B               	goto	i1l6957
  4483  0384                     u268_20:
  4484                           	line	83
  4485                           	
  4486  0384                     i1l6955:	
  4487                           ;i2cSlave887.c: 83: i2cSend(20);
  4488  0384  3014               	movlw	(014h)
  4489  0385  120A  118A  20E9   	fcall	_i2cSend
              120A  118A         
  4490                           	line	84
  4491                           ;i2cSlave887.c: 84: } else if (i2cRequest == 2){
  4492  038A  2BA4               	goto	i1l6963
  4493                           	
  4494  038B                     i1l3212:	
  4495                           	
  4496  038B                     i1l6957:	
  4497  038B  087C               	movf	(_i2cRequest),w
  4498  038C  3A02               	xorlw	02h
  4499  038D  1D03               	skipz
  4500  038E  2B90               	goto	u269_21
  4501  038F  2B91               	goto	u269_20
  4502  0390                     u269_21:
  4503  0390  2B98               	goto	i1l6961
  4504  0391                     u269_20:
  4505                           	line	85
  4506                           	
  4507  0391                     i1l6959:	
  4508                           ;i2cSlave887.c: 85: i2cSend(20);
  4509  0391  3014               	movlw	(014h)
  4510  0392  120A  118A  20E9   	fcall	_i2cSend
              120A  118A         
  4511                           	line	86
  4512                           ;i2cSlave887.c: 86: }
  4513  0397  2BA4               	goto	i1l6963
  4514                           	line	87
  4515                           	
  4516  0398                     i1l3214:	
  4517                           	line	89
  4518                           	
  4519  0398                     i1l6961:	
  4520                           ;i2cSlave887.c: 87: else
  4521                           ;i2cSlave887.c: 88: {
  4522                           ;i2cSlave887.c: 89: i2cSend(20);
  4523  0398  3014               	movlw	(014h)
  4524  0399  120A  118A  20E9   	fcall	_i2cSend
              120A  118A         
  4525  039E  2BA4               	goto	i1l6963
  4526                           	line	90
  4527                           	
  4528  039F                     i1l3215:	
  4529  039F  2BA4               	goto	i1l6963
  4530                           	
  4531  03A0                     i1l3213:	
  4532  03A0  2BA4               	goto	i1l6963
  4533                           	line	91
  4534                           	
  4535  03A1                     i1l3211:	
  4536  03A1  2BA4               	goto	i1l6963
  4537                           	line	94
  4538                           	
  4539  03A2                     i1l3210:	
  4540  03A2  2BA4               	goto	i1l6963
  4541                           	
  4542  03A3                     i1l3208:	
  4543  03A3  2BA4               	goto	i1l6963
  4544                           	
  4545  03A4                     i1l3206:	
  4546                           	
  4547  03A4                     i1l6963:	
  4548                           ;i2cSlave887.c: 90: }
  4549                           ;i2cSlave887.c: 91: }
  4550                           ;i2cSlave887.c: 94: SSPIF = 0;
  4551  03A4  1283               	bcf	status, 5	;RP0=0, select bank0
  4552  03A5  1303               	bcf	status, 6	;RP1=0, select bank0
  4553  03A6  118C               	bcf	(99/8),(99)&7
  4554                           	line	96
  4555                           	
  4556  03A7                     i1l6965:	
  4557                           ;i2cSlave887.c: 96: if (i2cBufferVal == 3){
  4558  03A7  087B               	movf	(_i2cBufferVal),w
  4559  03A8  3A03               	xorlw	03h
  4560  03A9  1D03               	skipz
  4561  03AA  2BAC               	goto	u270_21
  4562  03AB  2BAD               	goto	u270_20
  4563  03AC                     u270_21:
  4564  03AC  2BB5               	goto	i1l3217
  4565  03AD                     u270_20:
  4566                           	line	97
  4567                           	
  4568  03AD                     i1l6967:	
  4569                           ;i2cSlave887.c: 97: i2cBufferVal = 0;
  4570  03AD  01FB               	clrf	(_i2cBufferVal)
  4571                           	line	98
  4572                           	
  4573  03AE                     i1l6969:	
  4574                           ;i2cSlave887.c: 98: i2cDataUpdate();
  4575  03AE  120A  118A  2109   	fcall	_i2cDataUpdate
              120A  118A         
  4576  03B3  2BB5               	goto	i1l3217
  4577                           	line	99
  4578                           	
  4579  03B4                     i1l3216:	
  4580  03B4  2BB5               	goto	i1l3217
  4581                           	line	100
  4582                           	
  4583  03B5                     i1l6971:	
  4584                           	line	101
  4585                           ;i2cSlave887.c: 99: }
  4586                           ;i2cSlave887.c: 100: return;
  4587                           	
  4588  03B5                     i1l3217:	
  4589  03B5  0008               	return
  4590                           	opt stack 0
  4591                           GLOBAL	__end_of_i2cIsrHandler
  4592  03B6                     	__end_of_i2cIsrHandler:
  4593 ;; =============== function _i2cIsrHandler ends ============
  4594                           
  4595                           	signat	_i2cIsrHandler,88
  4596                           	global	_i2cDataUpdate
  4597                           psect	text487,local,class=CODE,delta=2
  4598                           global __ptext487
  4599  0109                     __ptext487:
  4600                           
  4601 ;; *************** function _i2cDataUpdate *****************
  4602 ;; Defined at:
  4603 ;;		line 104 in file "i2cSlave887.c"
  4604 ;; Parameters:    Size  Location     Type
  4605 ;;		None
  4606 ;; Auto vars:     Size  Location     Type
  4607 ;;		None
  4608 ;; Return value:  Size  Location     Type
  4609 ;;		None               void
  4610 ;; Registers used:
  4611 ;;		wreg
  4612 ;; Tracked objects:
  4613 ;;		On entry : 0/0
  4614 ;;		On exit  : 0/0
  4615 ;;		Unchanged: 0/0
  4616 ;; Data sizes:     COMMON   BANK0  BANK1h  BANK1l   BANK3   BANK2
  4617 ;;      Params:         0       0       0       0       0       0
  4618 ;;      Locals:         0       0       0       0       0       0
  4619 ;;      Temps:          1       0       0       0       0       0
  4620 ;;      Totals:         1       0       0       0       0       0
  4621 ;;Total ram usage:        1 bytes
  4622 ;; Hardware stack levels used:    1
  4623 ;; This function calls:
  4624 ;;		Nothing
  4625 ;; This function is called by:
  4626 ;;		_i2cIsrHandler
  4627 ;; This function uses a non-reentrant model
  4628 ;;
  4629                           psect	text487
  4630                           	file	"i2cSlave887.c"
  4631                           	line	104
  4632                           	global	__size_of_i2cDataUpdate
  4633  0015                     	__size_of_i2cDataUpdate	equ	__end_of_i2cDataUpdate-_i2cDataUpdate
  4634                           	
  4635  0109                     _i2cDataUpdate:	
  4636                           	opt	stack 3
  4637                           ; Regs used in _i2cDataUpdate: [wreg]
  4638                           	line	105
  4639                           	
  4640  0109                     i1l6981:	
  4641                           ;i2cSlave887.c: 105: switch (i2cBuffer[0]) {
  4642  0109  290A               	goto	i1l6983
  4643                           	line	106
  4644                           ;i2cSlave887.c: 106: default :
  4645                           	
  4646  010A                     i1l3221:	
  4647                           	line	107
  4648                           	
  4649  010A                     i1l6983:	
  4650                           ;i2cSlave887.c: 107: i2cSpeed = (i2cBuffer[1]);
  4651  010A  1683               	bsf	status, 5	;RP0=1, select bank1
  4652  010B  1303               	bcf	status, 6	;RP1=0, select bank1
  4653  010C  082C               	movf	0+(_i2cBuffer)^080h+01h,w
  4654  010D  00F1               	movwf	(??_i2cDataUpdate+0)+0
  4655  010E  0871               	movf	(??_i2cDataUpdate+0)+0,w
  4656  010F  1283               	bcf	status, 5	;RP0=0, select bank0
  4657  0110  1303               	bcf	status, 6	;RP1=0, select bank0
  4658  0111  00EE               	movwf	(_i2cSpeed)
  4659                           	line	108
  4660                           ;i2cSlave887.c: 108: i2cDirection = (i2cBuffer[2]);
  4661  0112  1683               	bsf	status, 5	;RP0=1, select bank1
  4662  0113  1303               	bcf	status, 6	;RP1=0, select bank1
  4663  0114  082D               	movf	0+(_i2cBuffer)^080h+02h,w
  4664  0115  00F1               	movwf	(??_i2cDataUpdate+0)+0
  4665  0116  0871               	movf	(??_i2cDataUpdate+0)+0,w
  4666  0117  1283               	bcf	status, 5	;RP0=0, select bank0
  4667  0118  1303               	bcf	status, 6	;RP1=0, select bank0
  4668  0119  00ED               	movwf	(_i2cDirection)
  4669                           	line	109
  4670                           ;i2cSlave887.c: 109: break;
  4671  011A  291D               	goto	i1l3223
  4672                           	line	112
  4673                           	
  4674  011B                     i1l6985:	
  4675                           ;i2cSlave887.c: 112: }
  4676  011B  291D               	goto	i1l3223
  4677                           	line	105
  4678                           	
  4679  011C                     i1l3220:	
  4680  011C  290A               	goto	i1l6983
  4681                           	line	112
  4682                           	
  4683  011D                     i1l3222:	
  4684                           	line	114
  4685                           ;i2cSlave887.c: 113: return;
  4686                           	
  4687  011D                     i1l3223:	
  4688  011D  0008               	return
  4689                           	opt stack 0
  4690                           GLOBAL	__end_of_i2cDataUpdate
  4691  011E                     	__end_of_i2cDataUpdate:
  4692 ;; =============== function _i2cDataUpdate ends ============
  4693                           
  4694                           	signat	_i2cDataUpdate,88
  4695                           	global	_i2cSend
  4696                           psect	text488,local,class=CODE,delta=2
  4697                           global __ptext488
  4698  00E9                     __ptext488:
  4699                           
  4700 ;; *************** function _i2cSend *****************
  4701 ;; Defined at:
  4702 ;;		line 117 in file "i2cSlave887.c"
  4703 ;; Parameters:    Size  Location     Type
  4704 ;;  msg             1    wreg     unsigned char 
  4705 ;; Auto vars:     Size  Location     Type
  4706 ;;  msg             1    0[COMMON] unsigned char 
  4707 ;; Return value:  Size  Location     Type
  4708 ;;		None               void
  4709 ;; Registers used:
  4710 ;;		wreg
  4711 ;; Tracked objects:
  4712 ;;		On entry : 0/0
  4713 ;;		On exit  : 0/0
  4714 ;;		Unchanged: 0/0
  4715 ;; Data sizes:     COMMON   BANK0  BANK1h  BANK1l   BANK3   BANK2
  4716 ;;      Params:         0       0       0       0       0       0
  4717 ;;      Locals:         1       0       0       0       0       0
  4718 ;;      Temps:          0       0       0       0       0       0
  4719 ;;      Totals:         1       0       0       0       0       0
  4720 ;;Total ram usage:        1 bytes
  4721 ;; Hardware stack levels used:    1
  4722 ;; This function calls:
  4723 ;;		Nothing
  4724 ;; This function is called by:
  4725 ;;		_i2cIsrHandler
  4726 ;; This function uses a non-reentrant model
  4727 ;;
  4728                           psect	text488
  4729                           	file	"i2cSlave887.c"
  4730                           	line	117
  4731                           	global	__size_of_i2cSend
  4732  0009                     	__size_of_i2cSend	equ	__end_of_i2cSend-_i2cSend
  4733                           	
  4734  00E9                     _i2cSend:	
  4735                           	opt	stack 3
  4736                           ; Regs used in _i2cSend: [wreg]
  4737                           ;i2cSend@msg stored from wreg
  4738                           	line	120
  4739  00E9  00F1               	movwf	(i2cSend@msg)
  4740                           	
  4741  00EA                     i1l6973:	
  4742                           ;i2cSlave887.c: 120: SSPBUF = msg;
  4743  00EA  0871               	movf	(i2cSend@msg),w
  4744  00EB  1283               	bcf	status, 5	;RP0=0, select bank0
  4745  00EC  1303               	bcf	status, 6	;RP1=0, select bank0
  4746  00ED  0093               	movwf	(19)	;volatile
  4747                           	line	121
  4748                           	
  4749  00EE                     i1l6975:	
  4750                           ;i2cSlave887.c: 121: SSPCONbits.CKP = 0;
  4751  00EE  1214               	bcf	(20),4	;volatile
  4752                           	line	122
  4753                           	
  4754  00EF                     i1l6977:	
  4755                           ;i2cSlave887.c: 122: SSPCONbits.CKP = 1;
  4756  00EF  1614               	bsf	(20),4	;volatile
  4757  00F0  28F1               	goto	i1l3226
  4758                           	line	124
  4759                           	
  4760  00F1                     i1l6979:	
  4761                           	line	125
  4762                           ;i2cSlave887.c: 124: return;
  4763                           	
  4764  00F1                     i1l3226:	
  4765  00F1  0008               	return
  4766                           	opt stack 0
  4767                           GLOBAL	__end_of_i2cSend
  4768  00F2                     	__end_of_i2cSend:
  4769 ;; =============== function _i2cSend ends ============
  4770                           
  4771                           	signat	_i2cSend,4216
  4772                           psect	text489,local,class=CODE,delta=2
  4773                           global __ptext489
  4774  0000                     __ptext489:
  4775                           	global	btemp
  4776  007E                     	btemp set 07Eh
  4777                           
  4778                           	DABS	1,126,2	;btemp
  4779                           	global	wtemp0
  4780  007E                     	wtemp0 set btemp


HI-TECH Software PICC Macro Assembler V9.83 build 10920 
Symbol Table                                                                                   Wed Apr 17 00:32:37 2013

                     _F 00AA              i2cSend@msg 0071                      _T0 0551                      _T1 0552  
                    _RD 0C60                      _WR 0C61            ___ftadd@exp1 0058            ___ftadd@exp2 0057  
          ___ftadd@sign 0056                     _I2C 0550                     _CKE 04A6                     _CKP 00A4  
                   _GIE 005F                     _DIR 0553                     _RB5 0035                     _ERR 0554  
                   _PR2 0092                     _SMP 04A7                     _isr 0246                     fsr0 0004  
                   indf 0000          i2cIsrHandler@i 0073                    l1120 0133                    l1112 0186  
                  l1121 0134                    l1113 0194                    l1130 022A                    l1114 0194  
                  l1131 0229                    l1132 022E                    l1133 0245                    l1117 0128  
                  l1118 0134                    l1119 0131                    l1128 0228                    l1129 0245  
                  l1081 06B6                    l1090 07FD                    l1082 06F2                    l1091 07FD  
                  l1083 071B                    l1084 07FB                    l1085 075F                    l1094 01E8  
                  l1086 0776                    l1087 0775                    l1088 07F1                    l2161 0108  
                  l1089 07FC                    l3202 0150                    l2158 00FA                    l5301 0579  
                  l4262 016C                    l5302 068F                    l4263 0170                    l5311 05D2  
                  l5303 0596                    l5320 0609                    l5312 05D3                    l7001 02E2  
                  l5321 060A                    l5313 05E1                    l5305 0595                    l5322 0618  
                  l5314 05D4                    l5306 059F                    l7011 0317                    l7003 02EC  
                  l5323 060B                    l5315 05E8                    l5307 05A4                    l5324 061F  
                  l5308 05E9                    l5316 0620                    l7013 0329                    l7005 02FC  
                  l7101 0452                    l5325 0635                    l5317 0620                    l5309 05B9  
                  l5326 064A                    l5318 05F0                    l7015 032D                    l7007 0307  
                  l7103 045B                    l5327 0673                    l5600 0315                    l5360 0516  
                  l5601 032E                    l7009 030F                    l7201 0568                    l5361 052D  
                  l5353 0477                    l5370 0442                    l5354 0549                    l5371 042E  
                  l7211 0585                    l7203 056E                    l5355 0490                    l5372 043B  
                  l5364 03D3                    l5356 04D0                    l5373 042F                    l5365 045B  
                  l7061 03B6                    l7221 05A3                    l7213 058B                    l7205 0579  
                  l7301 04FC                    l5357 04E5                    l5374 0441                    l5366 041E  
                  l5358 04FC                    l5375 0452                    l5367 040A                    l7071 03E6  
                  l7063 03C9                    l7231 05C9                    l7223 05A5                    l7215 0596  
                  l7207 0580                    l7311 0526                    l5359 0501                    l7303 0501  
                  l5391 01F9                    l5368 040B                    l5392 0214                    l5369 041D  
                  l7081 0400                    l7073 03EC                    l7065 03D2                    l7241 05FA  
                  l7233 05D4                    l7225 05AB                    l7217 059A                    l7209 0581  
                  l7313 052D                    l7305 0505                    l7321 01F9                    l7091 042D  
                  l7083 0409                    l7075 03F3                    l7067 03D3                    l7171 01CD  
                  l7163 01BD                    l7251 0635                    l7243 0600                    l7235 05E1  
                  l7227 05B9                    l7219 059E                    l5299 0581                    l7315 0549  
                  l7307 0516                    l7323 0214                    l7331 06A1                    l7093 042F  
                  l7085 040B                    l7077 03F5                    l7069 03E5                    l7181 01D7  
                  l7173 01CE                    l7165 01C0                    l7261 066F                    l7253 0639  
                  l7245 060B                    l7229 05C3                    l7237 05E9                    l7309 051E  
                  l7317 01E9                    l7341 06B6                    l7333 06AA                    l7325 0690  
                  l5590 032E                    l5591 02D6                    l7095 043B                    l7079 03F9  
                  l7087 041E                    l7191 01E1                    l7183 01D8                    l7175 01D2  
                  l7167 01CB                    l7263 0673                    l7255 064A                    l7247 0618  
                  l7239 05F0                    l7271 0476                    l7319 01F0                    l7351 06E2  
                  l7343 06B9                    l7335 06AB                    l7327 0698                    l5592 02C9  
                  l5593 02DD                    l7089 0424                    l7097 0442                    l7193 01E4  
                  l7185 01D9                    l7177 01D3                    l7169 01CC                    l7265 068F  
                  l7257 065B                    l7249 0624                    l7281 04BD                    l7273 0477  
                  l7353 06E6                    l7345 06BF                    l7361 06F2                    l7337 06B0  
                  l7329 069D                    l5594 02F4                    l5595 02DE                    l5587 02C8  
                  l7099 0446                    l7195 01E5                    l7187 01DA                    l7179 01D6  
                  l7259 065F                    l7291 04D0                    l7283 04BE                    l7275 0488  
                  l7267 045C                    l7363 06F6                    l7371 071B                    l7355 06EA  
                  l7347 06C8                    l7339 06B1                    l5596 02FB                    ?_isr 0071  
                  l6901 014F                    l5597 0307                    l5589 02C0                    l7189 01DE  
                  l7197 054A                    l7293 04D4                    l7285 04BF                    l7277 048F  
                  l7269 046F                    l7381 074B                    l7373 071F                    l7365 06FC  
                  l7357 06EC                    l7349 06D4                    l5598 02FC                    l5599 030B  
                  l7199 0564                    l7295 04E5                    l7287 04C5                    l7279 0490  
                  l7391 07DE                    l7383 0758                    l7375 0725                    l7367 0709  
                  l7359 06EE                    l7297 04ED                    l7289 04CB                    l7393 07E4  
                  l7385 075F                    l7377 0732                    l7369 0717                    l7299 04F5  
                  l7395 07EA                    l7387 076E                    l7379 0743                    l6861 0159  
                  l7397 07F1                    l7389 0776                    l6863 0166                    l6871 022F  
                  l7399 07F7                    l6873 0237                    l6865 0215                    l6881 012F  
                  l6859 0151                    l6867 0219                    l6875 011E                    l6883 00FE  
                  l6891 0186                    l6869 0227                    l6877 0126                    l6885 0106  
                  l6893 00F2                    l6879 0128                    l6887 0171                    l6895 0138  
                  l6991 02C0                    l6889 0179                    l6897 014A                    l6993 02C7  
                  l6899 014E                    l6995 02C9                    l6987 02B2                    l6997 02D6  
                  l6989 02B8                    l6999 02DE                    _FLAG 00AA                    _T0IE 005D  
                  _T0IF 005A                    u3100 0585                    u3110 058B                    u3111 058A  
                  u3200 05E7                    u3120 0595                    u3201 05E6                    u3121 0594  
                  u3210 05EF                    u3130 059E                    u3211 05EE                    u3131 059D  
                  u3300 065F                    u3140 05A3                    u3301 065E                    u3141 05A2  
                  u2510 0166                    u3230 0600                    u3150 05B8                    u3070 0568  
                  u3310 046F                    u2511 0165                    u3231 05FF                    u3151 05B7  
                  u3311 046E                    u2520 0226                    u3240 0608                    u3080 056E  
                  u3400 0505                    u3320 0488                    u2521 0225                    u3241 0607  
                  u3225 05F1                    u3081 056D                    u3401 0504                    u3321 0487  
                  u2530 022E                    u3170 05C9                    u3090 0578                    u3330 04A0  
                  u2515 0162                    u2531 022D                    u3171 05C8                    u3091 0577  
                  u3411 050E                    u2540 0244                    u3260 061E                    u3180 05D1  
                  u3412 0515                    u3340 04B2                    u3500 076E                    u2541 0243  
                  u2525 0222                    u3261 061D                    u3181 05D0                    u3165 05BA  
                  u3501 076D                    u2550 0126                    u2710 02B8                    u3270 0624  
                  u3350 04D4                    u3510 07EA                    u2551 0125                    u3271 0623  
                  u3255 060C                    u3351 04D3                    u3335 049C                    u3511 07E9  
                  _PIE1 008C                    u2560 012F                    u2800 0320                    u2720 02BF  
                  u3280 0639                    u3440 052C                    _PIE2 008D                    u2545 0240  
                  u2561 012E                    u2721 02BE                    u3281 0638                    u3441 052B  
                  u3425 0517                    u3361 04DD                    u3345 04AE                    u3505 076A  
                  u2570 0179                    u2810 032D                    u3362 04E4                    u3450 01F0  
                  u2571 0178                    u3291 0654                    u3195 05D5                    u3435 051F  
                  u3451 01EF                    u2740 02DC                    u2900 03C9                    u3292 065B  
                  u3460 06BF                    u2805 031C                    u2741 02DB                    u2901 03C8  
                  u3461 06BE                    u2910 03DE                    u3390 04FB                    u3470 06F6  
                  u2735 02CE                    u3391 04FA                    u3375 04E6                    u3471 06F5  
                  u2760 02FA                    u2920 03F9                    u3480 071F                    u2761 02F9  
                  u2921 03F8                    u3385 04EE                    u3481 071E                    u2930 0400  
                  u3490 0758                    u2755 02ED                    u2931 03FF                    u2915 03DA  
                  u3491 0757                    _PEIE 005E                    u2780 030B                    u2781 030A  
                  u2790 030F                    u2950 041C                    u2791 030E                    u2775 02FF  
                  u2951 041B                    u3495 0754                    _RBIE 005B                    u2960 0424  
                  _RBIF 0058                    u2961 0423                    u2945 040C                    u2980 0440  
                  u2981 043F                    u2990 0446                    u2975 0431                    _TMR1 000E  
                  _WREN 0C62                    _main 0690            ___ftpack@arg 0020            ___ftpack@exp 0023  
                  btemp 007E                    start 0012   __size_of_BeginEncoder 0009         ??_i2cIsrHandler 0072  
          ___ftmul@cntr 004A            ___ftmul@sign 004B         __end_of_i2cInit 0151         __end_of_i2cSend 00F2  
          ___fttol@exp1 0035            ___fttol@lval 0031                   ??_isr 0075                   ?_main 0071  
                 _EEADR 010D         __end_of___ftadd 0690                   _CARRY 0018         __end_of___ftmul 054A  
                 _T1CON 0010         __end_of___fttol 045C                   _T2CON 0012                   _PORTD 0008  
                 _SSPM0 00A0                   _SSPM1 00A1                   _SSPM2 00A2                   _SSPM3 00A3  
                 _TRISB 0086                   _TRISC 0087                   _TRISD 0088                   _SSPIF 0063  
                 _SSPEN 00A5           ___awtoft@sign 003B           ___ftpack@sign 0024                   main@D 005B  
                 main@I 0065                   main@P 0063            _BeginEncoder 00F2                   pclath 000A  
            _i2cRequest 007C                   status 0003                   wtemp0 007E            __end_of_main 0800  
            _Initialise 01BD                  ??_main 0059           ___fttol@sign1 0030      __size_of_EncUpdate 000E  
      __end_of_SetPulse 0171                  _EEDATA 010C                  _CCPR2L 001B                  _EECON1 018C  
                _EECON2 018D        __end_of___awtoft 0215        __end_of___ftpack 032F                  _COUNTS 00AE  
                i1l1100 0267                  i1l1101 026E                  i1l1102 02A4                  i1l1103 0276  
                i1l1104 02A3                  i1l1105 029A                  i1l1106 0290                  i1l1107 0298  
                i1l1108 02A2                  i1l1109 02A5                  i1l1097 0253                  i1l3210 03A2  
                i1l1098 02A5                  i1l3211 03A1                  i1l1099 0270                  i1l3220 011C  
                i1l3212 038B                  i1l3221 010A                  i1l3213 03A0                  i1l3205 034F  
                i1l3222 011D                  i1l3206 03A4                  i1l3214 0398                  i1l3223 011D  
                i1l3215 039F                  i1l3207 035B                  i1l3216 03B4                  i1l3208 03A3  
                i1l3217 03B5                  i1l3209 036F                  i1l3226 00F1                  i1l6911 0263  
                i1l6903 0246                  i1l6921 027A                  i1l6913 0264                  i1l6905 024A  
                i1l6923 028C                  i1l6931 029A                  i1l6915 0267                  i1l6907 024D  
                i1l6941 034A                  i1l6933 029D                  i1l6925 0290                  i1l6917 026E  
                i1l6909 0257                  i1l6951 036F                  i1l6943 034F                  i1l6935 032F  
                i1l6927 0293                  i1l6919 0274                  i1l6961 0398                  i1l6953 0378  
                i1l6945 0357                  i1l6937 0331                  i1l6929 0298                  i1l6971 03B5  
                i1l6955 0384                  i1l6947 035B                  i1l6963 03A4                  i1l6939 0340  
                i1l6973 00EA                  i1l6981 0109                  i1l6965 03A7                  i1l6957 038B  
                i1l6949 0364                  i1l6975 00EE                  i1l6983 010A                  i1l6967 03AD  
                i1l6959 0391                  i1l6977 00EF                  i1l6985 011B                  i1l6969 03AE  
                i1l6979 00F1                  u260_20 0263                  u260_21 0262                  u260_25 025F  
                u261_20 0274                  u261_21 0273                  u270_20 03AD                  u262_20 027A  
                u270_21 03AC                  u262_21 0279                  u263_20 028C                  u263_21 028B  
                u263_25 0288                  u264_20 0340                  u264_21 033F                  u265_20 0357  
                u265_21 0356                  u266_20 0364                  u258_20 024A                  u266_21 0363  
                u258_21 0249                  u267_20 0378                  u259_20 0257                  u267_21 0377  
                u259_21 0256                  u268_20 0384                  u268_21 0383                  u269_20 0391  
                u269_21 0390                  _TARGET 006B                  _TMR1IF 0060                  _TMR2IF 0061  
                _SSPADD 0093         setDirection@dir 0020                  _TRISC3 043B                  _TRISC4 043C  
                _SSPBUF 0013               ??_i2cInit 0020               ??_i2cSend 0071               ??___ftadd 0052  
             ??___ftmul 0042               ??___fttol 002C            __pdataBANK1l 00B2   ___ftmul@f3_as_product 0047  
            _UpdateData 0171                  saved_w 007E             _i2cWriteInt 007D              ___ftadd@f1 004C  
            ___ftadd@f2 004F       __end_of_EncUpdate 0109              ___awtoft@c 0036              ___ftmul@f1 003C  
            ___ftmul@f2 003F              ___fttol@f1 0028          __pcstackCOMMON 0071      __size_of_delay1sec 0031  
           ?_Initialise 0071           ?_setDirection 0020      _TMR0_OverflowCount 00B0   __end_of_i2cDataUpdate 011E  
            __pbssBANK0 0069              __pbssBANK3 0190               ?_SetPulse 0020              __pmaintext 0690  
            __pintentry 0004                 _CCP2CON 001D               ?___awtoft 0036               ?___ftpack 0020  
        ??_setDirection 0022             ?_UpdateData 0020                 _SSPSTAT 0094          main@currentPWM 005D  
     __end_of_delay1sec 0246     __size_of_Initialise 002C                 _i2cInit 0135                 _i2cSend 00E9  
            ??_SetPulse 0022   __end_of_i2cIsrHandler 03B6                 ___ftadd 054A                 ___ftmul 045C  
             _DIRECTION 0190                 ___fttol 03B6            _i2cDirection 006D            _i2cBufferVal 007B  
            ??___awtoft 0039              ??___ftpack 0025              delay1sec@i 0020               _T2CONbits 0012  
          __size_of_isr 006C                 main@PID 0061    end_of_initialization 01B9     __size_of_UpdateData 0024  
           UpdateData@c 0020               _PORTBbits 0006               _PORTCbits 0007          SetPulse@length 0020  
             _TRISCbits 0087    __end_of_setDirection 0135             _CCP2CONbits 001D              main@counts 0067  
           ___ftmul@exp 0046               _EncUpdate 00FB           __pidataBANK1l 00E7            ??_Initialise 0021  
             _i2cBuffer 00AB     start_initialization 0195             __end_of_isr 02B2      __end_of_Initialise 01E9  
   _TMR0_OverflowTarget 00B2              ?_EncUpdate 0071       __size_of_SetPulse 0020             __pbssBANK1l 00AB  
          SetPulse@temp 0022            ??_UpdateData 0022       __size_of___awtoft 002C       __size_of___ftpack 007D  
           __pbssCOMMON 007B           __pcstackBANK0 0020           ?_BeginEncoder 0071                ?_i2cInit 0071  
              ?_i2cSend 0071               _delay1sec 0215      __end_of_UpdateData 0195                ?___ftadd 004C  
             __ptext480 0171               __ptext472 01E9               __ptext481 00FB               __ptext473 045C  
             __ptext482 011E               __ptext474 054A               __ptext483 0215               __ptext475 01BD  
             __ptext484 0151               __ptext476 03B6               __ptext485 0246               __ptext477 02B2  
             __ptext486 032F               __ptext478 0135               __ptext487 0109               __ptext479 00F2  
             __ptext488 00E9               __ptext489 0000                ?___ftmul 003C                ?___fttol 0028  
__size_of_i2cDataUpdate 0015          ??_BeginEncoder 0020   __size_of_setDirection 0017                _DIR_READ 0069  
     interrupt_function 0004                _PIE1bits 008C              ?_delay1sec 0071                _PIR1bits 000C  
           ??_EncUpdate 0020               main@P_old 005F            _setDirection 011E  __size_of_i2cIsrHandler 0087  
         _i2cDataUpdate 0109                _i2cSpeed 006E        __size_of_i2cInit 001C        __size_of_i2cSend 0009  
              _SetPulse 0151        __size_of___ftadd 0146        __size_of___ftmul 00EE        __size_of___fttol 00A6  
              ___awtoft 01E9                ___ftpack 02B2          ?_i2cDataUpdate 0071             EncUpdate@t1 0020  
         __size_of_main 0170             ??_delay1sec 0020           _i2cIsrHandler 032F    __end_of_BeginEncoder 00FB  
              intlevel1 0000          ?_i2cIsrHandler 0071              _OPTION_REG 0081         ??_i2cDataUpdate 0071  
        i2cInit@address 0020              _SSPCONbits 0014  
