

HI-TECH Software PIC LITE Macro Assembler V9.83 build 10920 
                                                                                               Wed Apr 17 00:26:10 2013

HI-TECH Software Omniscient Code Generator (Lite mode) build 10920
     1  0000                     opt subtitle "HI-TECH Software Omniscient Code Generator (Lite mode) build 10920"
     2                           
     3                           opt pagewidth 120
     4                           
     5                           	opt lm
     6                           
     7                           	processor	16F917
     8                           clrc	macro
     9                           	bcf	3,0
    10  0000                     	endm
    11                           clrz	macro
    12                           	bcf	3,2
    13  0000                     	endm
    14                           setc	macro
    15                           	bsf	3,0
    16  0000                     	endm
    17                           setz	macro
    18                           	bsf	3,2
    19  0000                     	endm
    20                           skipc	macro
    21                           	btfss	3,0
    22  0000                     	endm
    23                           skipz	macro
    24                           	btfss	3,2
    25  0000                     	endm
    26                           skipnc	macro
    27                           	btfsc	3,0
    28  0000                     	endm
    29                           skipnz	macro
    30                           	btfsc	3,2
    31  0000                     	endm
    32  0000                     indf	equ	0
    33  0000                     indf0	equ	0
    34  0002                     pc	equ	2
    35  0002                     pcl	equ	2
    36  0003                     status	equ	3
    37  0004                     fsr	equ	4
    38  0004                     fsr0	equ	4
    39  0001                     c	equ	1
    40  0000                     z	equ	0
    41  000A                     pclath	equ	10
    42                           # 23 "primarymain.c"
    43                           	psect config,class=CONFIG,delta=2 ;#
    44                           # 23 "primarymain.c"
    45  2007  F4F2               	dw 0xFFFA & 0xFFF7 & 0xFFFF & 0xFFFF & 0xFFFF & 0xFFFF & 0xFCFF & 0xFFFF & 0xF7FF ;#
    46                           	FNCALL	_main,_Initialise
    47                           	FNCALL	_main,_delay1sec
    48                           	FNCALL	_main,_setDirection
    49                           	FNCALL	_main,_SetPulse
    50                           	FNCALL	_main,_EncUpdate
    51                           	FNCALL	_main,_UpdateData
    52                           	FNCALL	_main,___awtoft
    53                           	FNCALL	_main,___ftmul
    54                           	FNCALL	_main,___ftadd
    55                           	FNCALL	_main,___fttol
    56                           	FNCALL	___awtoft,___ftpack
    57                           	FNCALL	___ftmul,___ftpack
    58                           	FNCALL	___ftadd,___ftpack
    59                           	FNCALL	_Initialise,_BeginPWM
    60                           	FNCALL	_Initialise,_BeginEncoder
    61                           	FNCALL	_Initialise,_i2cInit
    62                           	FNROOT	_main
    63                           	FNCALL	_isr,_i2cIsrHandler
    64                           	FNCALL	_i2cIsrHandler,_i2cSend
    65                           	FNCALL	_i2cIsrHandler,_i2cDataUpdate
    66                           	FNCALL	intlevel1,_isr
    67                           	global	intlevel1
    68                           	FNROOT	intlevel1
    69                           	global	_TMR0_OverflowTarget
    70                           psect	idataBANK1l,class=CODE,space=0,delta=2
    71                           global __pidataBANK1l
    72  0746                     __pidataBANK1l:
    73                           	file	"primarymain.c"
    74                           	line	73
    75                           
    76                           ;initializer for _TMR0_OverflowTarget
    77  0746  3408               	retlw	08h
    78  0747  3400               	retlw	0
    79                           
    80                           	global	_DIR_READ
    81                           	global	_TARGET
    82                           	global	_i2cDirection
    83                           	global	_i2cSpeed
    84                           	global	_DIRECTION
    85                           	global	_i2cBufferVal
    86                           	global	_i2cRequest
    87                           	global	_i2cWriteInt
    88                           	global	_i2cBuffer
    89                           	global	_COUNTS
    90                           	global	_TMR0_OverflowCount
    91                           	global	_TMR1
    92  000E                     _TMR1	set	14
    93                           	global	_CCP2CON
    94  001D                     _CCP2CON	set	29
    95                           	global	_CCP2CONbits
    96  001D                     _CCP2CONbits	set	29
    97                           	global	_CCPR2L
    98  001B                     _CCPR2L	set	27
    99                           	global	_PIR1bits
   100  000C                     _PIR1bits	set	12
   101                           	global	_PORTBbits
   102  0006                     _PORTBbits	set	6
   103                           	global	_PORTD
   104  0008                     _PORTD	set	8
   105                           	global	_SSPBUF
   106  0013                     _SSPBUF	set	19
   107                           	global	_SSPCONbits
   108  0014                     _SSPCONbits	set	20
   109                           	global	_T1CON
   110  0010                     _T1CON	set	16
   111                           	global	_T2CON
   112  0012                     _T2CON	set	18
   113                           	global	_T2CONbits
   114  0012                     _T2CONbits	set	18
   115                           	global	_CARRY
   116  0018                     _CARRY	set	24
   117                           	global	_CKP
   118  00A4                     _CKP	set	164
   119                           	global	_GIE
   120  005F                     _GIE	set	95
   121                           	global	_PEIE
   122  005E                     _PEIE	set	94
   123                           	global	_RB5
   124  0035                     _RB5	set	53
   125                           	global	_RBIE
   126  005B                     _RBIE	set	91
   127                           	global	_RBIF
   128  0058                     _RBIF	set	88
   129                           	global	_SSPEN
   130  00A5                     _SSPEN	set	165
   131                           	global	_SSPIF
   132  0063                     _SSPIF	set	99
   133                           	global	_SSPM0
   134  00A0                     _SSPM0	set	160
   135                           	global	_SSPM1
   136  00A1                     _SSPM1	set	161
   137                           	global	_SSPM2
   138  00A2                     _SSPM2	set	162
   139                           	global	_SSPM3
   140  00A3                     _SSPM3	set	163
   141                           	global	_T0IE
   142  005D                     _T0IE	set	93
   143                           	global	_T0IF
   144  005A                     _T0IF	set	90
   145                           	global	_TMR1IF
   146  0060                     _TMR1IF	set	96
   147                           	global	_TMR2IF
   148  0061                     _TMR2IF	set	97
   149                           	global	_CMCON1
   150  0097                     _CMCON1	set	151
   151                           	global	_OPTION_REG
   152  0081                     _OPTION_REG	set	129
   153                           	global	_PIE1
   154  008C                     _PIE1	set	140
   155                           	global	_PIE1bits
   156  008C                     _PIE1bits	set	140
   157                           	global	_PIE2
   158  008D                     _PIE2	set	141
   159                           	global	_PR2
   160  0092                     _PR2	set	146
   161                           	global	_SSPADD
   162  0093                     _SSPADD	set	147
   163                           	global	_SSPSTAT
   164  0094                     _SSPSTAT	set	148
   165                           	global	_TRISB
   166  0086                     _TRISB	set	134
   167                           	global	_TRISD
   168  0088                     _TRISD	set	136
   169                           	global	_TRISDbits
   170  0088                     _TRISDbits	set	136
   171                           	global	_CKE
   172  04A6                     _CKE	set	1190
   173                           	global	_SMP
   174  04A7                     _SMP	set	1191
   175                           	global	_TRISC6
   176  043E                     _TRISC6	set	1086
   177                           	global	_TRISC7
   178  043F                     _TRISC7	set	1087
   179                           	global	_EEADR
   180  010D                     _EEADR	set	269
   181                           	global	_EEDATA
   182  010C                     _EEDATA	set	268
   183                           	global	_EECON1
   184  018C                     _EECON1	set	396
   185                           	global	_EECON2
   186  018D                     _EECON2	set	397
   187                           	global	_RD
   188  0C60                     _RD	set	3168
   189                           	global	_WR
   190  0C61                     _WR	set	3169
   191                           	global	_WREN
   192  0C62                     _WREN	set	3170
   193                           	global	_FLAG
   194  00AA                     _FLAG	set	170
   195                           	DABS	1,170,1	;_FLAG
   196                           
   197                           	global	_F
   198  00AA                     _F	set	170
   199                           	DABS	1,170,1	;_F
   200                           
   201                           	global	_DIR
   202  0553                     _DIR	set	1363
   203                           	DABS	1,170,1	;_DIR
   204                           
   205                           	global	_ERR
   206  0554                     _ERR	set	1364
   207                           	DABS	1,170,1	;_ERR
   208                           
   209                           	global	_I2C
   210  0550                     _I2C	set	1360
   211                           	DABS	1,170,1	;_I2C
   212                           
   213                           	global	_T0
   214  0551                     _T0	set	1361
   215                           	DABS	1,170,1	;_T0
   216                           
   217                           	global	_T1
   218  0552                     _T1	set	1362
   219                           	DABS	1,170,1	;_T1
   220                           
   221                           	file	"C:\Users\Alan\AppData\Local\Temp\s3c4."
   222                           	line	#
   223                           psect cinit,class=CODE,delta=2
   224                           global start_initialization
   225  0652                     start_initialization:
   226                           
   227                           psect	bssCOMMON,class=COMMON,space=1
   228                           global __pbssCOMMON
   229  007A                     __pbssCOMMON:
   230  007A                     _i2cBufferVal:
   231  007A                            ds      1
   232                           
   233  007B                     _i2cRequest:
   234  007B                            ds      1
   235                           
   236  007C                     _i2cWriteInt:
   237  007C                            ds      1
   238                           
   239                           psect	bssBANK0,class=BANK0,space=1
   240                           global __pbssBANK0
   241  0069                     __pbssBANK0:
   242  0069                     _DIR_READ:
   243  0069                            ds      2
   244                           
   245  006B                     _TARGET:
   246  006B                            ds      2
   247                           
   248  006D                     _i2cDirection:
   249  006D                            ds      1
   250                           
   251  006E                     _i2cSpeed:
   252  006E                            ds      1
   253                           
   254                           psect	bssBANK1l,class=BANK1,space=1
   255                           global __pbssBANK1l
   256  00AB                     __pbssBANK1l:
   257  00AB                     _i2cBuffer:
   258  00AB                            ds      3
   259                           
   260  00AE                     _COUNTS:
   261  00AE                            ds      2
   262                           
   263  00B0                     _TMR0_OverflowCount:
   264  00B0                            ds      2
   265                           
   266                           psect	dataBANK1l,class=BANK1,space=1
   267                           global __pdataBANK1l
   268  00B2                     __pdataBANK1l:
   269                           	file	"primarymain.c"
   270  00B2                     _TMR0_OverflowTarget:
   271  00B2                            ds      2
   272                           
   273                           psect	bssBANK3,class=BANK3,space=1
   274                           global __pbssBANK3
   275  0190                     __pbssBANK3:
   276  0190                     _DIRECTION:
   277  0190                            ds      2
   278                           
   279                           ; Clear objects allocated to COMMON
   280                           psect cinit,class=CODE,delta=2
   281  0652  01FA               	clrf	((__pbssCOMMON)+0)&07Fh
   282  0653  01FB               	clrf	((__pbssCOMMON)+1)&07Fh
   283  0654  01FC               	clrf	((__pbssCOMMON)+2)&07Fh
   284                           ; Clear objects allocated to BANK0
   285                           psect cinit,class=CODE,delta=2
   286  0655  01E9               	clrf	((__pbssBANK0)+0)&07Fh
   287  0656  01EA               	clrf	((__pbssBANK0)+1)&07Fh
   288  0657  01EB               	clrf	((__pbssBANK0)+2)&07Fh
   289  0658  01EC               	clrf	((__pbssBANK0)+3)&07Fh
   290  0659  01ED               	clrf	((__pbssBANK0)+4)&07Fh
   291  065A  01EE               	clrf	((__pbssBANK0)+5)&07Fh
   292                           ; Clear objects allocated to BANK1l
   293                           psect cinit,class=CODE,delta=2
   294  065B  1683               	bsf	status, 5	;RP0=1, select bank1
   295  065C  1303               	bcf	status, 6	;RP1=0, select bank1
   296  065D  01AB               	clrf	((__pbssBANK1l)+0)&07Fh
   297  065E  01AC               	clrf	((__pbssBANK1l)+1)&07Fh
   298  065F  01AD               	clrf	((__pbssBANK1l)+2)&07Fh
   299  0660  01AE               	clrf	((__pbssBANK1l)+3)&07Fh
   300  0661  01AF               	clrf	((__pbssBANK1l)+4)&07Fh
   301  0662  01B0               	clrf	((__pbssBANK1l)+5)&07Fh
   302  0663  01B1               	clrf	((__pbssBANK1l)+6)&07Fh
   303                           ; Clear objects allocated to BANK3
   304                           psect cinit,class=CODE,delta=2
   305  0664  1683               	bsf	status, 5	;RP0=1, select bank3
   306  0665  1703               	bsf	status, 6	;RP1=1, select bank3
   307  0666  0190               	clrf	((__pbssBANK3)+0)&07Fh
   308  0667  0191               	clrf	((__pbssBANK3)+1)&07Fh
   309                           ; Initialize objects allocated to BANK1l
   310                           	global __pidataBANK1l
   311                           psect cinit,class=CODE,delta=2
   312  0668  1683               	bsf	status, 5	;RP0=1, select bank1
   313  0669  1303               	bcf	status, 6	;RP1=0, select bank1
   314  066A  120A  118A  2746   	fcall	__pidataBANK1l+0		;fetch initializer
              120A  118A         
   315  066F  00B2               	movwf	__pdataBANK1l+0&07fh		
   316  0670  120A  118A  2747   	fcall	__pidataBANK1l+1		;fetch initializer
              120A  118A         
   317  0675  00B3               	movwf	__pdataBANK1l+1&07fh		
   318                           psect cinit,class=CODE,delta=2
   319                           global end_of_initialization
   320                           
   321                           ;End of C runtime variable initialization code
   322                           
   323  0676                     end_of_initialization:
   324  0676  0183               clrf status
   325  0677  120A  118A  2815   ljmp _main	;jump to C main() function
   326                           psect	cstackCOMMON,class=COMMON,space=1
   327                           global __pcstackCOMMON
   328  0070                     __pcstackCOMMON:
   329                           	global	?_Initialise
   330  0070                     ?_Initialise:	; 0 bytes @ 0x0
   331                           	global	?_delay1sec
   332  0070                     ?_delay1sec:	; 0 bytes @ 0x0
   333                           	global	?_EncUpdate
   334  0070                     ?_EncUpdate:	; 0 bytes @ 0x0
   335                           	global	?_BeginPWM
   336  0070                     ?_BeginPWM:	; 0 bytes @ 0x0
   337                           	global	?_BeginEncoder
   338  0070                     ?_BeginEncoder:	; 0 bytes @ 0x0
   339                           	global	?_i2cInit
   340  0070                     ?_i2cInit:	; 0 bytes @ 0x0
   341                           	global	?_i2cIsrHandler
   342  0070                     ?_i2cIsrHandler:	; 0 bytes @ 0x0
   343                           	global	?_i2cSend
   344  0070                     ?_i2cSend:	; 0 bytes @ 0x0
   345                           	global	??_i2cSend
   346  0070                     ??_i2cSend:	; 0 bytes @ 0x0
   347                           	global	?_i2cDataUpdate
   348  0070                     ?_i2cDataUpdate:	; 0 bytes @ 0x0
   349                           	global	??_i2cDataUpdate
   350  0070                     ??_i2cDataUpdate:	; 0 bytes @ 0x0
   351                           	global	?_isr
   352  0070                     ?_isr:	; 0 bytes @ 0x0
   353                           	global	?_main
   354  0070                     ?_main:	; 2 bytes @ 0x0
   355                           	global	i2cSend@msg
   356  0070                     i2cSend@msg:	; 1 bytes @ 0x0
   357  0070                     	ds	1
   358                           	global	??_i2cIsrHandler
   359  0071                     ??_i2cIsrHandler:	; 0 bytes @ 0x1
   360  0071                     	ds	1
   361                           	global	i2cIsrHandler@i
   362  0072                     i2cIsrHandler@i:	; 2 bytes @ 0x2
   363  0072                     	ds	2
   364                           	global	??_isr
   365  0074                     ??_isr:	; 0 bytes @ 0x4
   366  0074                     	ds	6
   367                           psect	cstackBANK0,class=BANK0,space=1
   368                           global __pcstackBANK0
   369  0020                     __pcstackBANK0:
   370                           	global	??_delay1sec
   371  0020                     ??_delay1sec:	; 0 bytes @ 0x0
   372                           	global	?_setDirection
   373  0020                     ?_setDirection:	; 0 bytes @ 0x0
   374                           	global	?_SetPulse
   375  0020                     ?_SetPulse:	; 0 bytes @ 0x0
   376                           	global	??_EncUpdate
   377  0020                     ??_EncUpdate:	; 0 bytes @ 0x0
   378                           	global	?_UpdateData
   379  0020                     ?_UpdateData:	; 0 bytes @ 0x0
   380                           	global	??_BeginPWM
   381  0020                     ??_BeginPWM:	; 0 bytes @ 0x0
   382                           	global	??_BeginEncoder
   383  0020                     ??_BeginEncoder:	; 0 bytes @ 0x0
   384                           	global	??_i2cInit
   385  0020                     ??_i2cInit:	; 0 bytes @ 0x0
   386                           	global	?___ftpack
   387  0020                     ?___ftpack:	; 3 bytes @ 0x0
   388                           	global	EncUpdate@t1
   389  0020                     EncUpdate@t1:	; 1 bytes @ 0x0
   390                           	global	i2cInit@address
   391  0020                     i2cInit@address:	; 1 bytes @ 0x0
   392                           	global	UpdateData@c
   393  0020                     UpdateData@c:	; 2 bytes @ 0x0
   394                           	global	setDirection@dir
   395  0020                     setDirection@dir:	; 2 bytes @ 0x0
   396                           	global	delay1sec@i
   397  0020                     delay1sec@i:	; 2 bytes @ 0x0
   398                           	global	SetPulse@length
   399  0020                     SetPulse@length:	; 2 bytes @ 0x0
   400                           	global	___ftpack@arg
   401  0020                     ___ftpack@arg:	; 3 bytes @ 0x0
   402  0020                     	ds	1
   403                           	global	??_Initialise
   404  0021                     ??_Initialise:	; 0 bytes @ 0x1
   405  0021                     	ds	1
   406                           	global	??_setDirection
   407  0022                     ??_setDirection:	; 0 bytes @ 0x2
   408                           	global	??_SetPulse
   409  0022                     ??_SetPulse:	; 0 bytes @ 0x2
   410                           	global	??_UpdateData
   411  0022                     ??_UpdateData:	; 0 bytes @ 0x2
   412                           	global	SetPulse@temp
   413  0022                     SetPulse@temp:	; 2 bytes @ 0x2
   414  0022                     	ds	1
   415                           	global	___ftpack@exp
   416  0023                     ___ftpack@exp:	; 1 bytes @ 0x3
   417  0023                     	ds	1
   418                           	global	___ftpack@sign
   419  0024                     ___ftpack@sign:	; 1 bytes @ 0x4
   420  0024                     	ds	1
   421                           	global	??___ftpack
   422  0025                     ??___ftpack:	; 0 bytes @ 0x5
   423  0025                     	ds	3
   424                           	global	?___fttol
   425  0028                     ?___fttol:	; 4 bytes @ 0x8
   426                           	global	___fttol@f1
   427  0028                     ___fttol@f1:	; 3 bytes @ 0x8
   428  0028                     	ds	4
   429                           	global	??___fttol
   430  002C                     ??___fttol:	; 0 bytes @ 0xC
   431  002C                     	ds	4
   432                           	global	___fttol@sign1
   433  0030                     ___fttol@sign1:	; 1 bytes @ 0x10
   434  0030                     	ds	1
   435                           	global	___fttol@lval
   436  0031                     ___fttol@lval:	; 4 bytes @ 0x11
   437  0031                     	ds	4
   438                           	global	___fttol@exp1
   439  0035                     ___fttol@exp1:	; 1 bytes @ 0x15
   440  0035                     	ds	1
   441                           	global	?___awtoft
   442  0036                     ?___awtoft:	; 3 bytes @ 0x16
   443                           	global	___awtoft@c
   444  0036                     ___awtoft@c:	; 2 bytes @ 0x16
   445  0036                     	ds	3
   446                           	global	??___awtoft
   447  0039                     ??___awtoft:	; 0 bytes @ 0x19
   448  0039                     	ds	2
   449                           	global	___awtoft@sign
   450  003B                     ___awtoft@sign:	; 1 bytes @ 0x1B
   451  003B                     	ds	1
   452                           	global	?___ftmul
   453  003C                     ?___ftmul:	; 3 bytes @ 0x1C
   454                           	global	___ftmul@f1
   455  003C                     ___ftmul@f1:	; 3 bytes @ 0x1C
   456  003C                     	ds	3
   457                           	global	___ftmul@f2
   458  003F                     ___ftmul@f2:	; 3 bytes @ 0x1F
   459  003F                     	ds	3
   460                           	global	??___ftmul
   461  0042                     ??___ftmul:	; 0 bytes @ 0x22
   462  0042                     	ds	4
   463                           	global	___ftmul@exp
   464  0046                     ___ftmul@exp:	; 1 bytes @ 0x26
   465  0046                     	ds	1
   466                           	global	___ftmul@f3_as_product
   467  0047                     ___ftmul@f3_as_product:	; 3 bytes @ 0x27
   468  0047                     	ds	3
   469                           	global	___ftmul@cntr
   470  004A                     ___ftmul@cntr:	; 1 bytes @ 0x2A
   471  004A                     	ds	1
   472                           	global	___ftmul@sign
   473  004B                     ___ftmul@sign:	; 1 bytes @ 0x2B
   474  004B                     	ds	1
   475                           	global	?___ftadd
   476  004C                     ?___ftadd:	; 3 bytes @ 0x2C
   477                           	global	___ftadd@f1
   478  004C                     ___ftadd@f1:	; 3 bytes @ 0x2C
   479  004C                     	ds	3
   480                           	global	___ftadd@f2
   481  004F                     ___ftadd@f2:	; 3 bytes @ 0x2F
   482  004F                     	ds	3
   483                           	global	??___ftadd
   484  0052                     ??___ftadd:	; 0 bytes @ 0x32
   485  0052                     	ds	4
   486                           	global	___ftadd@sign
   487  0056                     ___ftadd@sign:	; 1 bytes @ 0x36
   488  0056                     	ds	1
   489                           	global	___ftadd@exp2
   490  0057                     ___ftadd@exp2:	; 1 bytes @ 0x37
   491  0057                     	ds	1
   492                           	global	___ftadd@exp1
   493  0058                     ___ftadd@exp1:	; 1 bytes @ 0x38
   494  0058                     	ds	1
   495                           	global	??_main
   496  0059                     ??_main:	; 0 bytes @ 0x39
   497  0059                     	ds	2
   498                           	global	main@D
   499  005B                     main@D:	; 2 bytes @ 0x3B
   500  005B                     	ds	2
   501                           	global	main@currentPWM
   502  005D                     main@currentPWM:	; 2 bytes @ 0x3D
   503  005D                     	ds	2
   504                           	global	main@P_old
   505  005F                     main@P_old:	; 2 bytes @ 0x3F
   506  005F                     	ds	2
   507                           	global	main@PID
   508  0061                     main@PID:	; 2 bytes @ 0x41
   509  0061                     	ds	2
   510                           	global	main@P
   511  0063                     main@P:	; 2 bytes @ 0x43
   512  0063                     	ds	2
   513                           	global	main@I
   514  0065                     main@I:	; 2 bytes @ 0x45
   515  0065                     	ds	2
   516                           	global	main@counts
   517  0067                     main@counts:	; 2 bytes @ 0x47
   518  0067                     	ds	2
   519 ;;Data sizes: Strings 0, constant 0, data 2, bss 18, persistent 0 stack 0
   520 ;;Auto spaces:   Size  Autos    Used
   521 ;; COMMON          14     10      13
   522 ;; BANK0           80     73      79
   523 ;; BANK1h          69      0       0
   524 ;; BANK1l          10      0       9
   525 ;; BANK3           96      0       2
   526 ;; BANK2           80      0       0
   527                           
   528 ;;
   529 ;; Pointer list with targets:
   530                           
   531 ;; ?___ftpack	float  size(1) Largest target is 0
   532 ;;
   533 ;; ?___fttol	long  size(1) Largest target is 0
   534 ;;
   535 ;; ?___ftmul	float  size(1) Largest target is 0
   536 ;;
   537 ;; ?___awtoft	float  size(1) Largest target is 0
   538 ;;
   539 ;; ?___ftadd	float  size(1) Largest target is 0
   540 ;;
   541 ;; EncUpdate@t1	PTR int  size(1) Largest target is 2
   542 ;;		 -> main@counts(BANK0[2]), 
   543 ;;
   544                           
   545                           
   546 ;;
   547 ;; Critical Paths under _main in COMMON
   548 ;;
   549 ;;   None.
   550 ;;
   551 ;; Critical Paths under _isr in COMMON
   552 ;;
   553 ;;   _isr->_i2cIsrHandler
   554 ;;   _i2cIsrHandler->_i2cSend
   555 ;;   _i2cIsrHandler->_i2cDataUpdate
   556 ;;
   557 ;; Critical Paths under _main in BANK0
   558 ;;
   559 ;;   _main->___ftadd
   560 ;;   ___awtoft->___fttol
   561 ;;   ___ftmul->___awtoft
   562 ;;   ___ftadd->___ftmul
   563 ;;   _Initialise->_i2cInit
   564 ;;   ___fttol->___ftpack
   565 ;;
   566 ;; Critical Paths under _isr in BANK0
   567 ;;
   568 ;;   None.
   569 ;;
   570 ;; Critical Paths under _main in BANK1h
   571 ;;
   572 ;;   None.
   573 ;;
   574 ;; Critical Paths under _isr in BANK1h
   575 ;;
   576 ;;   None.
   577 ;;
   578 ;; Critical Paths under _main in BANK1l
   579 ;;
   580 ;;   None.
   581 ;;
   582 ;; Critical Paths under _isr in BANK1l
   583 ;;
   584 ;;   None.
   585 ;;
   586 ;; Critical Paths under _main in BANK3
   587 ;;
   588 ;;   None.
   589 ;;
   590 ;; Critical Paths under _isr in BANK3
   591 ;;
   592 ;;   None.
   593 ;;
   594 ;; Critical Paths under _main in BANK2
   595 ;;
   596 ;;   None.
   597 ;;
   598 ;; Critical Paths under _isr in BANK2
   599 ;;
   600 ;;   None.
   601                           
   602 ;;
   603 ;;Main: autosize = 0, tempsize = 2, incstack = 0, save=0
   604 ;;
   605                           
   606 ;;
   607 ;;Call Graph Tables:
   608 ;;
   609 ;; ---------------------------------------------------------------------------------
   610 ;; (Depth) Function   	        Calls       Base Space   Used Autos Params    Refs
   611 ;; ---------------------------------------------------------------------------------
   612 ;; (0) _main                                                16    16      0    2705
   613 ;;                                             57 BANK0     16    16      0
   614 ;;                         _Initialise
   615 ;;                          _delay1sec
   616 ;;                       _setDirection
   617 ;;                           _SetPulse
   618 ;;                          _EncUpdate
   619 ;;                         _UpdateData
   620 ;;                           ___awtoft
   621 ;;                            ___ftmul
   622 ;;                            ___ftadd
   623 ;;                            ___fttol
   624 ;; ---------------------------------------------------------------------------------
   625 ;; (1) ___awtoft                                             6     3      3     300
   626 ;;                                             22 BANK0      6     3      3
   627 ;;                           ___ftpack
   628 ;;                            ___fttol (ARG)
   629 ;; ---------------------------------------------------------------------------------
   630 ;; (1) ___ftmul                                             16    10      6     535
   631 ;;                                             28 BANK0     16    10      6
   632 ;;                           ___ftpack
   633 ;;                           ___awtoft (ARG)
   634 ;;                            ___fttol (ARG)
   635 ;; ---------------------------------------------------------------------------------
   636 ;; (1) ___ftadd                                             13     7      6    1049
   637 ;;                                             44 BANK0     13     7      6
   638 ;;                           ___ftpack
   639 ;;                            ___ftmul (ARG)
   640 ;;                           ___awtoft (ARG)
   641 ;;                            ___fttol (ARG)
   642 ;; ---------------------------------------------------------------------------------
   643 ;; (1) _Initialise                                           0     0      0      22
   644 ;;                           _BeginPWM
   645 ;;                       _BeginEncoder
   646 ;;                            _i2cInit
   647 ;; ---------------------------------------------------------------------------------
   648 ;; (1) ___fttol                                             14    10      4     252
   649 ;;                                              8 BANK0     14    10      4
   650 ;;                           ___ftpack (ARG)
   651 ;; ---------------------------------------------------------------------------------
   652 ;; (2) ___ftpack                                             8     3      5     209
   653 ;;                                              0 BANK0      8     3      5
   654 ;; ---------------------------------------------------------------------------------
   655 ;; (2) _i2cInit                                              1     1      0      22
   656 ;;                                              0 BANK0      1     1      0
   657 ;; ---------------------------------------------------------------------------------
   658 ;; (2) _BeginEncoder                                         0     0      0       0
   659 ;; ---------------------------------------------------------------------------------
   660 ;; (2) _BeginPWM                                             0     0      0       0
   661 ;; ---------------------------------------------------------------------------------
   662 ;; (1) _UpdateData                                           2     0      2      44
   663 ;;                                              0 BANK0      2     0      2
   664 ;; ---------------------------------------------------------------------------------
   665 ;; (1) _EncUpdate                                            1     1      0      22
   666 ;;                                              0 BANK0      1     1      0
   667 ;; ---------------------------------------------------------------------------------
   668 ;; (1) _SetPulse                                             4     2      2      68
   669 ;;                                              0 BANK0      4     2      2
   670 ;; ---------------------------------------------------------------------------------
   671 ;; (1) _setDirection                                         2     0      2      44
   672 ;;                                              0 BANK0      2     0      2
   673 ;; ---------------------------------------------------------------------------------
   674 ;; (1) _delay1sec                                            2     2      0      46
   675 ;;                                              0 BANK0      2     2      0
   676 ;; ---------------------------------------------------------------------------------
   677 ;; Estimated maximum stack depth 2
   678 ;; ---------------------------------------------------------------------------------
   679 ;; (Depth) Function   	        Calls       Base Space   Used Autos Params    Refs
   680 ;; ---------------------------------------------------------------------------------
   681 ;; (3) _isr                                                  6     6      0      24
   682 ;;                                              4 COMMON     6     6      0
   683 ;;                      _i2cIsrHandler
   684 ;; ---------------------------------------------------------------------------------
   685 ;; (4) _i2cIsrHandler                                        3     3      0      24
   686 ;;                                              1 COMMON     3     3      0
   687 ;;                            _i2cSend
   688 ;;                      _i2cDataUpdate
   689 ;; ---------------------------------------------------------------------------------
   690 ;; (5) _i2cDataUpdate                                        1     1      0       0
   691 ;;                                              0 COMMON     1     1      0
   692 ;; ---------------------------------------------------------------------------------
   693 ;; (5) _i2cSend                                              1     1      0      22
   694 ;;                                              0 COMMON     1     1      0
   695 ;; ---------------------------------------------------------------------------------
   696 ;; Estimated maximum stack depth 5
   697 ;; ---------------------------------------------------------------------------------
   698                           
   699 ;; Call Graph Graphs:
   700                           
   701 ;; _main (ROOT)
   702 ;;   _Initialise
   703 ;;     _BeginPWM
   704 ;;     _BeginEncoder
   705 ;;     _i2cInit
   706 ;;   _delay1sec
   707 ;;   _setDirection
   708 ;;   _SetPulse
   709 ;;   _EncUpdate
   710 ;;   _UpdateData
   711 ;;   ___awtoft
   712 ;;     ___ftpack
   713 ;;     ___fttol (ARG)
   714 ;;       ___ftpack (ARG)
   715 ;;   ___ftmul
   716 ;;     ___ftpack
   717 ;;     ___awtoft (ARG)
   718 ;;       ___ftpack
   719 ;;       ___fttol (ARG)
   720 ;;         ___ftpack (ARG)
   721 ;;     ___fttol (ARG)
   722 ;;       ___ftpack (ARG)
   723 ;;   ___ftadd
   724 ;;     ___ftpack
   725 ;;     ___ftmul (ARG)
   726 ;;       ___ftpack
   727 ;;       ___awtoft (ARG)
   728 ;;         ___ftpack
   729 ;;         ___fttol (ARG)
   730 ;;           ___ftpack (ARG)
   731 ;;       ___fttol (ARG)
   732 ;;         ___ftpack (ARG)
   733 ;;     ___awtoft (ARG)
   734 ;;       ___ftpack
   735 ;;       ___fttol (ARG)
   736 ;;         ___ftpack (ARG)
   737 ;;     ___fttol (ARG)
   738 ;;       ___ftpack (ARG)
   739 ;;   ___fttol
   740 ;;     ___ftpack (ARG)
   741 ;;
   742 ;; _isr (ROOT)
   743 ;;   _i2cIsrHandler
   744 ;;     _i2cSend
   745 ;;     _i2cDataUpdate
   746 ;;
   747                           
   748 ;; Address spaces:
   749                           
   750 ;;Name               Size   Autos  Total    Cost      Usage
   751 ;;BANK3               60      0       2      10        2.1%
   752 ;;BITBANK3            60      0       0       9        0.0%
   753 ;;SFR3                 0      0       0       4        0.0%
   754 ;;BITSFR3              0      0       0       4        0.0%
   755 ;;BANK2               50      0       0      11        0.0%
   756 ;;BITBANK2            50      0       0      13        0.0%
   757 ;;SFR2                 0      0       0       5        0.0%
   758 ;;BITSFR2              0      0       0       5        0.0%
   759 ;;SFR1                 0      0       0       2        0.0%
   760 ;;BITSFR1              0      0       0       2        0.0%
   761 ;;BANK1l               A      0       9       8       90.0%
   762 ;;BITBANK1l            A      0       0       6        0.0%
   763 ;;BITBANK1h           45      0       0       5        0.0%
   764 ;;BANK1h              45      0       0       7        0.0%
   765 ;;CODE                 0      0       0       0        0.0%
   766 ;;DATA                 0      0      6F      14        0.0%
   767 ;;ABS                  0      0      67      12        0.0%
   768 ;;NULL                 0      0       0       0        0.0%
   769 ;;STACK                0      0       8       2        0.0%
   770 ;;BANK0               50     49      4F       4       98.8%
   771 ;;BITBANK0            50      0       0       3        0.0%
   772 ;;SFR0                 0      0       0       1        0.0%
   773 ;;BITSFR0              0      0       0       1        0.0%
   774 ;;COMMON               E      A       D       1       92.9%
   775 ;;BITCOMMON            E      0       0       0        0.0%
   776 ;;EEDATA             100      0       0       0        0.0%
   777                           
   778                           	global	_main
   779                           psect	maintext,global,class=CODE,delta=2
   780                           global __pmaintext
   781  0015                     __pmaintext:
   782                           
   783 ;; *************** function _main *****************
   784 ;; Defined at:
   785 ;;		line 100 in file "primarymain.c"
   786 ;; Parameters:    Size  Location     Type
   787 ;;		None
   788 ;; Auto vars:     Size  Location     Type
   789 ;;  counts          2   71[BANK0 ] int 
   790 ;;  I               2   69[BANK0 ] int 
   791 ;;  P               2   67[BANK0 ] int 
   792 ;;  PID             2   65[BANK0 ] int 
   793 ;;  P_old           2   63[BANK0 ] int 
   794 ;;  currentPWM      2   61[BANK0 ] int 
   795 ;;  D               2   59[BANK0 ] int 
   796 ;; Return value:  Size  Location     Type
   797 ;;                  2  1548[COMMON] int 
   798 ;; Registers used:
   799 ;;		wreg, fsr0l, fsr0h, status,2, status,0, btemp+1, pclath, cstack
   800 ;; Tracked objects:
   801 ;;		On entry : 17F/0
   802 ;;		On exit  : 0/0
   803 ;;		Unchanged: 0/0
   804 ;; Data sizes:     COMMON   BANK0  BANK1h  BANK1l   BANK3   BANK2
   805 ;;      Params:         0       0       0       0       0       0
   806 ;;      Locals:         0      14       0       0       0       0
   807 ;;      Temps:          0       2       0       0       0       0
   808 ;;      Totals:         0      16       0       0       0       0
   809 ;;Total ram usage:       16 bytes
   810 ;; Hardware stack levels required when called:    5
   811 ;; This function calls:
   812 ;;		_Initialise
   813 ;;		_delay1sec
   814 ;;		_setDirection
   815 ;;		_SetPulse
   816 ;;		_EncUpdate
   817 ;;		_UpdateData
   818 ;;		___awtoft
   819 ;;		___ftmul
   820 ;;		___ftadd
   821 ;;		___fttol
   822 ;; This function is called by:
   823 ;;		Startup code after reset
   824 ;; This function uses a non-reentrant model
   825 ;;
   826                           psect	maintext
   827                           	file	"primarymain.c"
   828                           	line	100
   829                           	global	__size_of_main
   830  0169                     	__size_of_main	equ	__end_of_main-_main
   831                           	
   832  0015                     _main:	
   833                           	opt	stack 3
   834                           ; Regs used in _main: [wreg-fsr0h+status,2+status,0+btemp+1+pclath+cstack]
   835                           	line	102
   836                           	
   837  0015                     l9647:	
   838                           ;primarymain.c: 102: int counts = 0,
   839  0015  1283               	bcf	status, 5	;RP0=0, select bank0
   840  0016  1303               	bcf	status, 6	;RP1=0, select bank0
   841  0017  01E7               	clrf	(main@counts)
   842  0018  01E8               	clrf	(main@counts+1)
   843                           	line	106
   844                           ;primarymain.c: 103: P,
   845                           ;primarymain.c: 104: I,
   846                           ;primarymain.c: 105: D,
   847                           ;primarymain.c: 106: P_old = 0,
   848  0019  01DF               	clrf	(main@P_old)
   849  001A  01E0               	clrf	(main@P_old+1)
   850                           	line	109
   851                           ;primarymain.c: 107: PID;
   852                           ;primarymain.c: 109: int currentPWM = 0;
   853  001B  01DD               	clrf	(main@currentPWM)
   854  001C  01DE               	clrf	(main@currentPWM+1)
   855                           	line	113
   856                           	
   857  001D                     l9649:	
   858                           ;primarymain.c: 113: Initialise();
   859  001D  120A  118A  25F9   	fcall	_Initialise
              120A  118A         
   860                           	line	115
   861                           	
   862  0022                     l9651:	
   863                           ;primarymain.c: 115: TARGET = 50;
   864  0022  3032               	movlw	low(032h)
   865  0023  1283               	bcf	status, 5	;RP0=0, select bank0
   866  0024  1303               	bcf	status, 6	;RP1=0, select bank0
   867  0025  00EB               	movwf	(_TARGET)
   868  0026  3000               	movlw	high(032h)
   869  0027  00EC               	movwf	((_TARGET))+1
   870                           	line	117
   871                           	
   872  0028                     l9653:	
   873                           ;primarymain.c: 117: T0IE = 0;
   874  0028  128B               	bcf	(93/8),(93)&7
   875                           	line	118
   876                           	
   877  0029                     l9655:	
   878                           ;primarymain.c: 118: delay1sec();
   879  0029  120A  118A  25C8   	fcall	_delay1sec
              120A  118A         
   880                           	line	119
   881                           	
   882  002E                     l9657:	
   883                           ;primarymain.c: 119: T0IE = 1;
   884  002E  168B               	bsf	(93/8),(93)&7
   885                           	line	120
   886                           	
   887  002F                     l9659:	
   888                           ;primarymain.c: 120: TMR1 = 0;
   889  002F  1283               	bcf	status, 5	;RP0=0, select bank0
   890  0030  1303               	bcf	status, 6	;RP1=0, select bank0
   891  0031  018E               	clrf	(14)	;volatile
   892  0032  018F               	clrf	(14+1)	;volatile
   893  0033  2834               	goto	l9661
   894                           	line	122
   895                           ;primarymain.c: 122: while(1)
   896                           	
   897  0034                     l1549:	
   898                           	line	132
   899                           	
   900  0034                     l9661:	
   901                           ;primarymain.c: 123: {
   902                           ;primarymain.c: 132: PORTD = TMR1;
   903  0034  1283               	bcf	status, 5	;RP0=0, select bank0
   904  0035  080E               	movf	(14),w	;volatile
   905  0036  0088               	movwf	(8)	;volatile
   906                           	line	137
   907                           	
   908  0037                     l9663:	
   909                           ;primarymain.c: 137: if (F.I2C == 1)
   910  0037  1683               	bsf	status, 5	;RP0=1, select bank1
   911  0038  1303               	bcf	status, 6	;RP1=0, select bank1
   912  0039  1C2A               	btfss	(170)^080h,0
   913  003A  283C               	goto	u3471
   914  003B  283D               	goto	u3470
   915  003C                     u3471:
   916  003C  2870               	goto	l9681
   917  003D                     u3470:
   918                           	line	146
   919                           	
   920  003D                     l9665:	
   921                           ;primarymain.c: 138: {
   922                           ;primarymain.c: 146: TARGET = i2cSpeed;
   923  003D  1283               	bcf	status, 5	;RP0=0, select bank0
   924  003E  1303               	bcf	status, 6	;RP1=0, select bank0
   925  003F  086E               	movf	(_i2cSpeed),w
   926  0040  00D9               	movwf	(??_main+0)+0
   927  0041  01DA               	clrf	(??_main+0)+0+1
   928  0042  0859               	movf	0+(??_main+0)+0,w
   929  0043  00EB               	movwf	(_TARGET)
   930  0044  085A               	movf	1+(??_main+0)+0,w
   931  0045  00EC               	movwf	(_TARGET+1)
   932                           	line	147
   933                           	
   934  0046                     l9667:	
   935                           ;primarymain.c: 147: setDirection(i2cDirection);
   936  0046  086D               	movf	(_i2cDirection),w
   937  0047  00D9               	movwf	(??_main+0)+0
   938  0048  01DA               	clrf	(??_main+0)+0+1
   939  0049  0859               	movf	0+(??_main+0)+0,w
   940  004A  00A0               	movwf	(?_setDirection)
   941  004B  085A               	movf	1+(??_main+0)+0,w
   942  004C  00A1               	movwf	(?_setDirection+1)
   943  004D  120A  118A  26F8   	fcall	_setDirection
              120A  118A         
   944                           	line	148
   945                           	
   946  0052                     l9669:	
   947                           ;primarymain.c: 148: SetPulse(i2cSpeed);
   948  0052  1283               	bcf	status, 5	;RP0=0, select bank0
   949  0053  1303               	bcf	status, 6	;RP1=0, select bank0
   950  0054  086E               	movf	(_i2cSpeed),w
   951  0055  00D9               	movwf	(??_main+0)+0
   952  0056  01DA               	clrf	(??_main+0)+0+1
   953  0057  0859               	movf	0+(??_main+0)+0,w
   954  0058  00A0               	movwf	(?_SetPulse)
   955  0059  085A               	movf	1+(??_main+0)+0,w
   956  005A  00A1               	movwf	(?_SetPulse+1)
   957  005B  120A  118A  269E   	fcall	_SetPulse
              120A  118A         
   958                           	line	150
   959                           	
   960  0060                     l9671:	
   961                           ;primarymain.c: 150: COUNTS = 0;
   962  0060  1683               	bsf	status, 5	;RP0=1, select bank1
   963  0061  1303               	bcf	status, 6	;RP1=0, select bank1
   964  0062  01AE               	clrf	(_COUNTS)^080h
   965  0063  01AF               	clrf	(_COUNTS+1)^080h
   966                           	line	151
   967                           	
   968  0064                     l9673:	
   969                           ;primarymain.c: 151: I = 0;
   970  0064  1283               	bcf	status, 5	;RP0=0, select bank0
   971  0065  1303               	bcf	status, 6	;RP1=0, select bank0
   972  0066  01E5               	clrf	(main@I)
   973  0067  01E6               	clrf	(main@I+1)
   974                           	line	152
   975                           	
   976  0068                     l9675:	
   977                           ;primarymain.c: 152: D = 0;
   978  0068  01DB               	clrf	(main@D)
   979  0069  01DC               	clrf	(main@D+1)
   980                           	line	153
   981                           	
   982  006A                     l9677:	
   983                           ;primarymain.c: 153: P_old = 0;
   984  006A  01DF               	clrf	(main@P_old)
   985  006B  01E0               	clrf	(main@P_old+1)
   986                           	line	156
   987                           	
   988  006C                     l9679:	
   989                           ;primarymain.c: 156: F.I2C = 0;
   990  006C  1683               	bsf	status, 5	;RP0=1, select bank1
   991  006D  1303               	bcf	status, 6	;RP1=0, select bank1
   992  006E  102A               	bcf	(170)^080h,0
   993  006F  2870               	goto	l9681
   994                           	line	157
   995                           	
   996  0070                     l1550:	
   997                           	line	159
   998                           	
   999  0070                     l9681:	
  1000                           ;primarymain.c: 157: }
  1001                           ;primarymain.c: 159: if (F.DIR == 1)
  1002  0070  1DAA               	btfss	(170)^080h,3
  1003  0071  2873               	goto	u3481
  1004  0072  2874               	goto	u3480
  1005  0073                     u3481:
  1006  0073  2899               	goto	l9691
  1007  0074                     u3480:
  1008                           	line	162
  1009                           	
  1010  0074                     l9683:	
  1011                           ;primarymain.c: 160: {
  1012                           ;primarymain.c: 162: EncUpdate(&counts);
  1013  0074  3067               	movlw	(main@counts)&0ffh
  1014  0075  120A  118A  2724   	fcall	_EncUpdate
              120A  118A         
  1015                           	line	163
  1016                           	
  1017  007A                     l9685:	
  1018                           ;primarymain.c: 163: UpdateData(counts);
  1019  007A  1283               	bcf	status, 5	;RP0=0, select bank0
  1020  007B  1303               	bcf	status, 6	;RP1=0, select bank0
  1021  007C  0868               	movf	(main@counts+1),w
  1022  007D  01A1               	clrf	(?_UpdateData+1)
  1023  007E  07A1               	addwf	(?_UpdateData+1)
  1024  007F  0867               	movf	(main@counts),w
  1025  0080  01A0               	clrf	(?_UpdateData)
  1026  0081  07A0               	addwf	(?_UpdateData)
  1027                           
  1028  0082  120A  118A  267A   	fcall	_UpdateData
              120A  118A         
  1029                           	line	166
  1030                           	
  1031  0087                     l9687:	
  1032                           ;primarymain.c: 166: DIR_READ = RB5;
  1033  0087  1003               	clrc
  1034  0088  1283               	bcf	status, 5	;RP0=0, select bank0
  1035  0089  1303               	bcf	status, 6	;RP1=0, select bank0
  1036  008A  1A86               	btfsc	(53/8),(53)&7
  1037  008B  1403               	setc
  1038  008C  3000               	movlw	0
  1039  008D  1803               	skipnc
  1040  008E  3001               	movlw	1
  1041                           
  1042  008F  00D9               	movwf	(??_main+0)+0
  1043  0090  01DA               	clrf	(??_main+0)+0+1
  1044  0091  0859               	movf	0+(??_main+0)+0,w
  1045  0092  00E9               	movwf	(_DIR_READ)
  1046  0093  085A               	movf	1+(??_main+0)+0,w
  1047  0094  00EA               	movwf	(_DIR_READ+1)
  1048                           	line	169
  1049                           	
  1050  0095                     l9689:	
  1051                           ;primarymain.c: 169: F.DIR = 0;
  1052  0095  1683               	bsf	status, 5	;RP0=1, select bank1
  1053  0096  1303               	bcf	status, 6	;RP1=0, select bank1
  1054  0097  11AA               	bcf	(170)^080h,3
  1055  0098  2899               	goto	l9691
  1056                           	line	170
  1057                           	
  1058  0099                     l1551:	
  1059                           	line	175
  1060                           	
  1061  0099                     l9691:	
  1062                           ;primarymain.c: 170: }
  1063                           ;primarymain.c: 175: if (F.T0 == 1)
  1064  0099  1CAA               	btfss	(170)^080h,1
  1065  009A  289C               	goto	u3491
  1066  009B  289D               	goto	u3490
  1067  009C                     u3491:
  1068  009C  2834               	goto	l9661
  1069  009D                     u3490:
  1070                           	line	179
  1071                           	
  1072  009D                     l9693:	
  1073                           ;primarymain.c: 176: {
  1074                           ;primarymain.c: 179: EncUpdate(&counts);
  1075  009D  3067               	movlw	(main@counts)&0ffh
  1076  009E  120A  118A  2724   	fcall	_EncUpdate
              120A  118A         
  1077                           	line	180
  1078                           	
  1079  00A3                     l9695:	
  1080                           ;primarymain.c: 180: UpdateData(counts);
  1081  00A3  1283               	bcf	status, 5	;RP0=0, select bank0
  1082  00A4  1303               	bcf	status, 6	;RP1=0, select bank0
  1083  00A5  0868               	movf	(main@counts+1),w
  1084  00A6  01A1               	clrf	(?_UpdateData+1)
  1085  00A7  07A1               	addwf	(?_UpdateData+1)
  1086  00A8  0867               	movf	(main@counts),w
  1087  00A9  01A0               	clrf	(?_UpdateData)
  1088  00AA  07A0               	addwf	(?_UpdateData)
  1089                           
  1090  00AB  120A  118A  267A   	fcall	_UpdateData
              120A  118A         
  1091                           	line	183
  1092                           	
  1093  00B0                     l9697:	
  1094                           ;primarymain.c: 183: P = TARGET - counts;
  1095  00B0  1283               	bcf	status, 5	;RP0=0, select bank0
  1096  00B1  1303               	bcf	status, 6	;RP1=0, select bank0
  1097  00B2  0967               	comf	(main@counts),w
  1098  00B3  00D9               	movwf	(??_main+0)+0
  1099  00B4  0968               	comf	(main@counts+1),w
  1100  00B5  00DA               	movwf	((??_main+0)+0+1)
  1101  00B6  0AD9               	incf	(??_main+0)+0,f
  1102  00B7  1903               	skipnz
  1103  00B8  0ADA               	incf	((??_main+0)+0+1),f
  1104  00B9  086B               	movf	(_TARGET),w
  1105  00BA  0759               	addwf	0+(??_main+0)+0,w
  1106  00BB  00E3               	movwf	(main@P)
  1107  00BC  086C               	movf	(_TARGET+1),w
  1108  00BD  1803               	skipnc
  1109  00BE  0A6C               	incf	(_TARGET+1),w
  1110  00BF  075A               	addwf	1+(??_main+0)+0,w
  1111  00C0  00E4               	movwf	1+(main@P)
  1112                           	line	184
  1113                           	
  1114  00C1                     l9699:	
  1115                           ;primarymain.c: 184: I = I + P;
  1116  00C1  0863               	movf	(main@P),w
  1117  00C2  0765               	addwf	(main@I),w
  1118  00C3  00E5               	movwf	(main@I)
  1119  00C4  0864               	movf	(main@P+1),w
  1120  00C5  1803               	skipnc
  1121  00C6  0A64               	incf	(main@P+1),w
  1122  00C7  0766               	addwf	(main@I+1),w
  1123  00C8  00E6               	movwf	1+(main@I)
  1124                           	line	186
  1125                           	
  1126  00C9                     l9701:	
  1127                           ;primarymain.c: 186: if (I > 200)
  1128  00C9  0866               	movf	(main@I+1),w
  1129  00CA  3A80               	xorlw	80h
  1130  00CB  00FF               	movwf	btemp+1
  1131  00CC  3080               	movlw	(high(0C9h))^80h
  1132  00CD  027F               	subwf	btemp+1,w
  1133  00CE  1D03               	skipz
  1134  00CF  28D2               	goto	u3505
  1135  00D0  30C9               	movlw	low(0C9h)
  1136  00D1  0265               	subwf	(main@I),w
  1137  00D2                     u3505:
  1138                           
  1139  00D2  1C03               	skipc
  1140  00D3  28D5               	goto	u3501
  1141  00D4  28D6               	goto	u3500
  1142  00D5                     u3501:
  1143  00D5  28DD               	goto	l9705
  1144  00D6                     u3500:
  1145                           	line	187
  1146                           	
  1147  00D6                     l9703:	
  1148                           ;primarymain.c: 187: I = 200;
  1149  00D6  30C8               	movlw	low(0C8h)
  1150  00D7  1283               	bcf	status, 5	;RP0=0, select bank0
  1151  00D8  1303               	bcf	status, 6	;RP1=0, select bank0
  1152  00D9  00E5               	movwf	(main@I)
  1153  00DA  3000               	movlw	high(0C8h)
  1154  00DB  00E6               	movwf	((main@I))+1
  1155  00DC  28F4               	goto	l9709
  1156                           	line	188
  1157                           	
  1158  00DD                     l1553:	
  1159                           	
  1160  00DD                     l9705:	
  1161                           ;primarymain.c: 188: else if (I < -200)
  1162  00DD  1283               	bcf	status, 5	;RP0=0, select bank0
  1163  00DE  1303               	bcf	status, 6	;RP1=0, select bank0
  1164  00DF  0866               	movf	(main@I+1),w
  1165  00E0  3A80               	xorlw	80h
  1166  00E1  00FF               	movwf	btemp+1
  1167  00E2  307F               	movlw	(high(-200))^80h
  1168  00E3  027F               	subwf	btemp+1,w
  1169  00E4  1D03               	skipz
  1170  00E5  28E8               	goto	u3515
  1171  00E6  3038               	movlw	low(-200)
  1172  00E7  0265               	subwf	(main@I),w
  1173  00E8                     u3515:
  1174                           
  1175  00E8  1803               	skipnc
  1176  00E9  28EB               	goto	u3511
  1177  00EA  28EC               	goto	u3510
  1178  00EB                     u3511:
  1179  00EB  28F4               	goto	l9709
  1180  00EC                     u3510:
  1181                           	line	189
  1182                           	
  1183  00EC                     l9707:	
  1184                           ;primarymain.c: 189: I = -200;
  1185  00EC  3038               	movlw	low(-200)
  1186  00ED  1283               	bcf	status, 5	;RP0=0, select bank0
  1187  00EE  1303               	bcf	status, 6	;RP1=0, select bank0
  1188  00EF  00E5               	movwf	(main@I)
  1189  00F0  30FF               	movlw	high(-200)
  1190  00F1  00E6               	movwf	((main@I))+1
  1191  00F2  28F4               	goto	l9709
  1192                           	
  1193  00F3                     l1555:	
  1194  00F3  28F4               	goto	l9709
  1195                           	line	192
  1196                           	
  1197  00F4                     l1554:	
  1198                           	
  1199  00F4                     l9709:	
  1200                           ;primarymain.c: 192: PID = (P * 3.0) + (I * 0.4);
  1201  00F4  1283               	bcf	status, 5	;RP0=0, select bank0
  1202  00F5  1303               	bcf	status, 6	;RP1=0, select bank0
  1203  00F6  0864               	movf	(main@P+1),w
  1204  00F7  01B7               	clrf	(?___awtoft+1)
  1205  00F8  07B7               	addwf	(?___awtoft+1)
  1206  00F9  0863               	movf	(main@P),w
  1207  00FA  01B6               	clrf	(?___awtoft)
  1208  00FB  07B6               	addwf	(?___awtoft)
  1209                           
  1210  00FC  120A  118A  2626   	fcall	___awtoft
              120A  118A         
  1211  0101  1283               	bcf	status, 5	;RP0=0, select bank0
  1212  0102  1303               	bcf	status, 6	;RP1=0, select bank0
  1213  0103  0836               	movf	(0+(?___awtoft)),w
  1214  0104  00BF               	movwf	0+(?___ftmul)+03h
  1215  0105  0837               	movf	(1+(?___awtoft)),w
  1216  0106  00C0               	movwf	1+(?___ftmul)+03h
  1217  0107  0838               	movf	(2+(?___awtoft)),w
  1218  0108  00C1               	movwf	2+(?___ftmul)+03h
  1219  0109  3000               	movlw	0x0
  1220  010A  00BC               	movwf	(?___ftmul)
  1221  010B  3040               	movlw	0x40
  1222  010C  00BD               	movwf	(?___ftmul+1)
  1223  010D  3040               	movlw	0x40
  1224  010E  00BE               	movwf	(?___ftmul+2)
  1225  010F  120A  118A  22C4   	fcall	___ftmul
              120A  118A         
  1226  0114  1283               	bcf	status, 5	;RP0=0, select bank0
  1227  0115  1303               	bcf	status, 6	;RP1=0, select bank0
  1228  0116  083C               	movf	(0+(?___ftmul)),w
  1229  0117  00CF               	movwf	0+(?___ftadd)+03h
  1230  0118  083D               	movf	(1+(?___ftmul)),w
  1231  0119  00D0               	movwf	1+(?___ftadd)+03h
  1232  011A  083E               	movf	(2+(?___ftmul)),w
  1233  011B  00D1               	movwf	2+(?___ftadd)+03h
  1234  011C  0866               	movf	(main@I+1),w
  1235  011D  01B7               	clrf	(?___awtoft+1)
  1236  011E  07B7               	addwf	(?___awtoft+1)
  1237  011F  0865               	movf	(main@I),w
  1238  0120  01B6               	clrf	(?___awtoft)
  1239  0121  07B6               	addwf	(?___awtoft)
  1240                           
  1241  0122  120A  118A  2626   	fcall	___awtoft
              120A  118A         
  1242  0127  1283               	bcf	status, 5	;RP0=0, select bank0
  1243  0128  1303               	bcf	status, 6	;RP1=0, select bank0
  1244  0129  0836               	movf	(0+(?___awtoft)),w
  1245  012A  00BF               	movwf	0+(?___ftmul)+03h
  1246  012B  0837               	movf	(1+(?___awtoft)),w
  1247  012C  00C0               	movwf	1+(?___ftmul)+03h
  1248  012D  0838               	movf	(2+(?___awtoft)),w
  1249  012E  00C1               	movwf	2+(?___ftmul)+03h
  1250  012F  30CD               	movlw	0xcd
  1251  0130  00BC               	movwf	(?___ftmul)
  1252  0131  30CC               	movlw	0xcc
  1253  0132  00BD               	movwf	(?___ftmul+1)
  1254  0133  303E               	movlw	0x3e
  1255  0134  00BE               	movwf	(?___ftmul+2)
  1256  0135  120A  118A  22C4   	fcall	___ftmul
              120A  118A         
  1257  013A  1283               	bcf	status, 5	;RP0=0, select bank0
  1258  013B  1303               	bcf	status, 6	;RP1=0, select bank0
  1259  013C  083C               	movf	(0+(?___ftmul)),w
  1260  013D  00CC               	movwf	(?___ftadd)
  1261  013E  083D               	movf	(1+(?___ftmul)),w
  1262  013F  00CD               	movwf	(?___ftadd+1)
  1263  0140  083E               	movf	(2+(?___ftmul)),w
  1264  0141  00CE               	movwf	(?___ftadd+2)
  1265  0142  120A  118A  217E   	fcall	___ftadd
              120A  118A         
  1266  0147  1283               	bcf	status, 5	;RP0=0, select bank0
  1267  0148  1303               	bcf	status, 6	;RP1=0, select bank0
  1268  0149  084C               	movf	(0+(?___ftadd)),w
  1269  014A  00A8               	movwf	(?___fttol)
  1270  014B  084D               	movf	(1+(?___ftadd)),w
  1271  014C  00A9               	movwf	(?___fttol+1)
  1272  014D  084E               	movf	(2+(?___ftadd)),w
  1273  014E  00AA               	movwf	(?___fttol+2)
  1274  014F  120A  118A  23B2   	fcall	___fttol
              120A  118A         
  1275  0154  1283               	bcf	status, 5	;RP0=0, select bank0
  1276  0155  1303               	bcf	status, 6	;RP1=0, select bank0
  1277  0156  0829               	movf	1+(((0+(?___fttol)))),w
  1278  0157  01E2               	clrf	(main@PID+1)
  1279  0158  07E2               	addwf	(main@PID+1)
  1280  0159  0828               	movf	0+(((0+(?___fttol)))),w
  1281  015A  01E1               	clrf	(main@PID)
  1282  015B  07E1               	addwf	(main@PID)
  1283                           
  1284                           	line	193
  1285                           	
  1286  015C                     l9711:	
  1287                           ;primarymain.c: 193: P_old = P;
  1288  015C  0864               	movf	(main@P+1),w
  1289  015D  01E0               	clrf	(main@P_old+1)
  1290  015E  07E0               	addwf	(main@P_old+1)
  1291  015F  0863               	movf	(main@P),w
  1292  0160  01DF               	clrf	(main@P_old)
  1293  0161  07DF               	addwf	(main@P_old)
  1294                           
  1295                           	line	195
  1296                           	
  1297  0162                     l9713:	
  1298                           ;primarymain.c: 195: if (P != 0)
  1299  0162  0864               	movf	(main@P+1),w
  1300  0163  0463               	iorwf	(main@P),w
  1301  0164  1903               	skipnz
  1302  0165  2967               	goto	u3521
  1303  0166  2968               	goto	u3520
  1304  0167                     u3521:
  1305  0167  296F               	goto	l9717
  1306  0168                     u3520:
  1307                           	line	197
  1308                           	
  1309  0168                     l9715:	
  1310                           ;primarymain.c: 196: {
  1311                           ;primarymain.c: 197: currentPWM = PID;
  1312  0168  0862               	movf	(main@PID+1),w
  1313  0169  01DE               	clrf	(main@currentPWM+1)
  1314  016A  07DE               	addwf	(main@currentPWM+1)
  1315  016B  0861               	movf	(main@PID),w
  1316  016C  01DD               	clrf	(main@currentPWM)
  1317  016D  07DD               	addwf	(main@currentPWM)
  1318                           
  1319  016E  296F               	goto	l9717
  1320                           	line	199
  1321                           	
  1322  016F                     l1556:	
  1323                           	line	201
  1324                           	
  1325  016F                     l9717:	
  1326                           ;primarymain.c: 199: }
  1327                           ;primarymain.c: 201: PORTD = COUNTS;
  1328  016F  1683               	bsf	status, 5	;RP0=1, select bank1
  1329  0170  1303               	bcf	status, 6	;RP1=0, select bank1
  1330  0171  082E               	movf	(_COUNTS)^080h,w
  1331  0172  1283               	bcf	status, 5	;RP0=0, select bank0
  1332  0173  1303               	bcf	status, 6	;RP1=0, select bank0
  1333  0174  0088               	movwf	(8)	;volatile
  1334                           	line	202
  1335                           	
  1336  0175                     l9719:	
  1337                           ;primarymain.c: 202: F.T0 = 0;
  1338  0175  1683               	bsf	status, 5	;RP0=1, select bank1
  1339  0176  1303               	bcf	status, 6	;RP1=0, select bank1
  1340  0177  10AA               	bcf	(170)^080h,1
  1341  0178  2834               	goto	l9661
  1342                           	line	203
  1343                           	
  1344  0179                     l1552:	
  1345  0179  2834               	goto	l9661
  1346                           	line	205
  1347                           	
  1348  017A                     l1557:	
  1349                           	line	122
  1350  017A  2834               	goto	l9661
  1351                           	
  1352  017B                     l1558:	
  1353                           	line	208
  1354                           ;primarymain.c: 203: }
  1355                           ;primarymain.c: 205: }
  1356                           ;primarymain.c: 207: return 1;
  1357                           ;	Return value of _main is never used
  1358                           	
  1359  017B                     l1559:	
  1360                           	global	start
  1361  017B  120A  118A  2812   	ljmp	start
  1362                           	opt stack 0
  1363                           GLOBAL	__end_of_main
  1364  017E                     	__end_of_main:
  1365 ;; =============== function _main ends ============
  1366                           
  1367                           	signat	_main,90
  1368                           	global	___awtoft
  1369                           psect	text494,local,class=CODE,delta=2
  1370                           global __ptext494
  1371  0626                     __ptext494:
  1372                           
  1373 ;; *************** function ___awtoft *****************
  1374 ;; Defined at:
  1375 ;;		line 33 in file "C:\Program Files (x86)\HI-TECH Software\PICC\9.83\sources\awtoft.c"
  1376 ;; Parameters:    Size  Location     Type
  1377 ;;  c               2   22[BANK0 ] int 
  1378 ;; Auto vars:     Size  Location     Type
  1379 ;;  sign            1   27[BANK0 ] unsigned char 
  1380 ;; Return value:  Size  Location     Type
  1381 ;;                  3   22[BANK0 ] float 
  1382 ;; Registers used:
  1383 ;;		wreg, status,2, status,0, pclath, cstack
  1384 ;; Tracked objects:
  1385 ;;		On entry : 0/0
  1386 ;;		On exit  : 0/0
  1387 ;;		Unchanged: 0/0
  1388 ;; Data sizes:     COMMON   BANK0  BANK1h  BANK1l   BANK3   BANK2
  1389 ;;      Params:         0       3       0       0       0       0
  1390 ;;      Locals:         0       1       0       0       0       0
  1391 ;;      Temps:          0       2       0       0       0       0
  1392 ;;      Totals:         0       6       0       0       0       0
  1393 ;;Total ram usage:        6 bytes
  1394 ;; Hardware stack levels used:    1
  1395 ;; Hardware stack levels required when called:    4
  1396 ;; This function calls:
  1397 ;;		___ftpack
  1398 ;; This function is called by:
  1399 ;;		_main
  1400 ;; This function uses a non-reentrant model
  1401 ;;
  1402                           psect	text494
  1403                           	file	"C:\Program Files (x86)\HI-TECH Software\PICC\9.83\sources\awtoft.c"
  1404                           	line	33
  1405                           	global	__size_of___awtoft
  1406  002C                     	__size_of___awtoft	equ	__end_of___awtoft-___awtoft
  1407                           	
  1408  0626                     ___awtoft:	
  1409                           	opt	stack 3
  1410                           ; Regs used in ___awtoft: [wreg+status,2+status,0+pclath+cstack]
  1411                           	line	36
  1412                           	
  1413  0626                     l9639:	
  1414  0626  1283               	bcf	status, 5	;RP0=0, select bank0
  1415  0627  1303               	bcf	status, 6	;RP1=0, select bank0
  1416  0628  01BB               	clrf	(___awtoft@sign)
  1417                           	line	37
  1418  0629  1FB7               	btfss	(___awtoft@c+1),7
  1419  062A  2E2C               	goto	u3461
  1420  062B  2E2D               	goto	u3460
  1421  062C                     u3461:
  1422  062C  2E36               	goto	l9643
  1423  062D                     u3460:
  1424                           	line	38
  1425                           	
  1426  062D                     l9641:	
  1427  062D  09B6               	comf	(___awtoft@c),f
  1428  062E  09B7               	comf	(___awtoft@c+1),f
  1429  062F  0AB6               	incf	(___awtoft@c),f
  1430  0630  1903               	skipnz
  1431  0631  0AB7               	incf	(___awtoft@c+1),f
  1432                           	line	39
  1433  0632  01BB               	clrf	(___awtoft@sign)
  1434  0633  1403               	bsf	status,0
  1435  0634  0DBB               	rlf	(___awtoft@sign),f
  1436  0635  2E36               	goto	l9643
  1437                           	line	40
  1438                           	
  1439  0636                     l7705:	
  1440                           	line	41
  1441                           	
  1442  0636                     l9643:	
  1443  0636  0836               	movf	(___awtoft@c),w
  1444  0637  00A0               	movwf	(?___ftpack)
  1445  0638  0837               	movf	(___awtoft@c+1),w
  1446  0639  00A1               	movwf	(?___ftpack+1)
  1447  063A  01A2               	clrf	(?___ftpack+2)
  1448  063B  308E               	movlw	(08Eh)
  1449  063C  00B9               	movwf	(??___awtoft+0)+0
  1450  063D  0839               	movf	(??___awtoft+0)+0,w
  1451  063E  00A3               	movwf	0+(?___ftpack)+03h
  1452  063F  083B               	movf	(___awtoft@sign),w
  1453  0640  00BA               	movwf	(??___awtoft+1)+0
  1454  0641  083A               	movf	(??___awtoft+1)+0,w
  1455  0642  00A4               	movwf	0+(?___ftpack)+04h
  1456  0643  120A  118A  24DF   	fcall	___ftpack
              120A  118A         
  1457  0648  1283               	bcf	status, 5	;RP0=0, select bank0
  1458  0649  1303               	bcf	status, 6	;RP1=0, select bank0
  1459  064A  0820               	movf	(0+(?___ftpack)),w
  1460  064B  00B6               	movwf	(?___awtoft)
  1461  064C  0821               	movf	(1+(?___ftpack)),w
  1462  064D  00B7               	movwf	(?___awtoft+1)
  1463  064E  0822               	movf	(2+(?___ftpack)),w
  1464  064F  00B8               	movwf	(?___awtoft+2)
  1465  0650  2E51               	goto	l7706
  1466                           	
  1467  0651                     l9645:	
  1468                           	line	42
  1469                           	
  1470  0651                     l7706:	
  1471  0651  0008               	return
  1472                           	opt stack 0
  1473                           GLOBAL	__end_of___awtoft
  1474  0652                     	__end_of___awtoft:
  1475 ;; =============== function ___awtoft ends ============
  1476                           
  1477                           	signat	___awtoft,4219
  1478                           	global	___ftmul
  1479                           psect	text495,local,class=CODE,delta=2
  1480                           global __ptext495
  1481  02C4                     __ptext495:
  1482                           
  1483 ;; *************** function ___ftmul *****************
  1484 ;; Defined at:
  1485 ;;		line 52 in file "C:\Program Files (x86)\HI-TECH Software\PICC\9.83\sources\ftmul.c"
  1486 ;; Parameters:    Size  Location     Type
  1487 ;;  f1              3   28[BANK0 ] float 
  1488 ;;  f2              3   31[BANK0 ] float 
  1489 ;; Auto vars:     Size  Location     Type
  1490 ;;  f3_as_produc    3   39[BANK0 ] unsigned um
  1491 ;;  sign            1   43[BANK0 ] unsigned char 
  1492 ;;  cntr            1   42[BANK0 ] unsigned char 
  1493 ;;  exp             1   38[BANK0 ] unsigned char 
  1494 ;; Return value:  Size  Location     Type
  1495 ;;                  3   28[BANK0 ] float 
  1496 ;; Registers used:
  1497 ;;		wreg, status,2, status,0, pclath, cstack
  1498 ;; Tracked objects:
  1499 ;;		On entry : 0/0
  1500 ;;		On exit  : 0/0
  1501 ;;		Unchanged: 0/0
  1502 ;; Data sizes:     COMMON   BANK0  BANK1h  BANK1l   BANK3   BANK2
  1503 ;;      Params:         0       6       0       0       0       0
  1504 ;;      Locals:         0       6       0       0       0       0
  1505 ;;      Temps:          0       4       0       0       0       0
  1506 ;;      Totals:         0      16       0       0       0       0
  1507 ;;Total ram usage:       16 bytes
  1508 ;; Hardware stack levels used:    1
  1509 ;; Hardware stack levels required when called:    4
  1510 ;; This function calls:
  1511 ;;		___ftpack
  1512 ;; This function is called by:
  1513 ;;		_main
  1514 ;; This function uses a non-reentrant model
  1515 ;;
  1516                           psect	text495
  1517                           	file	"C:\Program Files (x86)\HI-TECH Software\PICC\9.83\sources\ftmul.c"
  1518                           	line	52
  1519                           	global	__size_of___ftmul
  1520  00EE                     	__size_of___ftmul	equ	__end_of___ftmul-___ftmul
  1521                           	
  1522  02C4                     ___ftmul:	
  1523                           	opt	stack 3
  1524                           ; Regs used in ___ftmul: [wreg+status,2+status,0+pclath+cstack]
  1525                           	line	56
  1526                           	
  1527  02C4                     l9589:	
  1528  02C4  1283               	bcf	status, 5	;RP0=0, select bank0
  1529  02C5  1303               	bcf	status, 6	;RP1=0, select bank0
  1530  02C6  083C               	movf	(___ftmul@f1),w
  1531  02C7  00C2               	movwf	((??___ftmul+0)+0)
  1532  02C8  083D               	movf	(___ftmul@f1+1),w
  1533  02C9  00C3               	movwf	((??___ftmul+0)+0+1)
  1534  02CA  083E               	movf	(___ftmul@f1+2),w
  1535  02CB  00C4               	movwf	((??___ftmul+0)+0+2)
  1536  02CC  1003               	clrc
  1537  02CD  0D43               	rlf	(??___ftmul+0)+1,w
  1538  02CE  0D44               	rlf	(??___ftmul+0)+2,w
  1539  02CF  00C5               	movwf	(??___ftmul+3)+0
  1540  02D0  0845               	movf	(??___ftmul+3)+0,w
  1541  02D1  00C6               	movwf	(___ftmul@exp)
  1542  02D2  08C6               	movf	((___ftmul@exp)),f
  1543  02D3  1D03               	skipz
  1544  02D4  2AD6               	goto	u3321
  1545  02D5  2AD7               	goto	u3320
  1546  02D6                     u3321:
  1547  02D6  2ADF               	goto	l9595
  1548  02D7                     u3320:
  1549                           	line	57
  1550                           	
  1551  02D7                     l9591:	
  1552  02D7  3000               	movlw	0x0
  1553  02D8  00BC               	movwf	(?___ftmul)
  1554  02D9  3000               	movlw	0x0
  1555  02DA  00BD               	movwf	(?___ftmul+1)
  1556  02DB  3000               	movlw	0x0
  1557  02DC  00BE               	movwf	(?___ftmul+2)
  1558  02DD  2BB1               	goto	l7668
  1559                           	
  1560  02DE                     l9593:	
  1561  02DE  2BB1               	goto	l7668
  1562                           	
  1563  02DF                     l7667:	
  1564                           	line	58
  1565                           	
  1566  02DF                     l9595:	
  1567  02DF  083F               	movf	(___ftmul@f2),w
  1568  02E0  00C2               	movwf	((??___ftmul+0)+0)
  1569  02E1  0840               	movf	(___ftmul@f2+1),w
  1570  02E2  00C3               	movwf	((??___ftmul+0)+0+1)
  1571  02E3  0841               	movf	(___ftmul@f2+2),w
  1572  02E4  00C4               	movwf	((??___ftmul+0)+0+2)
  1573  02E5  1003               	clrc
  1574  02E6  0D43               	rlf	(??___ftmul+0)+1,w
  1575  02E7  0D44               	rlf	(??___ftmul+0)+2,w
  1576  02E8  00C5               	movwf	(??___ftmul+3)+0
  1577  02E9  0845               	movf	(??___ftmul+3)+0,w
  1578  02EA  00CB               	movwf	(___ftmul@sign)
  1579  02EB  08CB               	movf	((___ftmul@sign)),f
  1580  02EC  1D03               	skipz
  1581  02ED  2AEF               	goto	u3331
  1582  02EE  2AF0               	goto	u3330
  1583  02EF                     u3331:
  1584  02EF  2AF8               	goto	l9601
  1585  02F0                     u3330:
  1586                           	line	59
  1587                           	
  1588  02F0                     l9597:	
  1589  02F0  3000               	movlw	0x0
  1590  02F1  00BC               	movwf	(?___ftmul)
  1591  02F2  3000               	movlw	0x0
  1592  02F3  00BD               	movwf	(?___ftmul+1)
  1593  02F4  3000               	movlw	0x0
  1594  02F5  00BE               	movwf	(?___ftmul+2)
  1595  02F6  2BB1               	goto	l7668
  1596                           	
  1597  02F7                     l9599:	
  1598  02F7  2BB1               	goto	l7668
  1599                           	
  1600  02F8                     l7669:	
  1601                           	line	60
  1602                           	
  1603  02F8                     l9601:	
  1604  02F8  084B               	movf	(___ftmul@sign),w
  1605  02F9  3E7B               	addlw	07Bh
  1606  02FA  00C2               	movwf	(??___ftmul+0)+0
  1607  02FB  0842               	movf	(??___ftmul+0)+0,w
  1608  02FC  07C6               	addwf	(___ftmul@exp),f
  1609                           	line	61
  1610  02FD  083C               	movf	(___ftmul@f1),w
  1611  02FE  00C2               	movwf	((??___ftmul+0)+0)
  1612  02FF  083D               	movf	(___ftmul@f1+1),w
  1613  0300  00C3               	movwf	((??___ftmul+0)+0+1)
  1614  0301  083E               	movf	(___ftmul@f1+2),w
  1615  0302  00C4               	movwf	((??___ftmul+0)+0+2)
  1616  0303  3010               	movlw	010h
  1617  0304                     u3345:
  1618  0304  1003               	clrc
  1619  0305  0CC4               	rrf	(??___ftmul+0)+2,f
  1620  0306  0CC3               	rrf	(??___ftmul+0)+1,f
  1621  0307  0CC2               	rrf	(??___ftmul+0)+0,f
  1622  0308                     u3340:
  1623  0308  3EFF               	addlw	-1
  1624  0309  1D03               	skipz
  1625  030A  2B04               	goto	u3345
  1626  030B  0842               	movf	0+(??___ftmul+0)+0,w
  1627  030C  00C5               	movwf	(??___ftmul+3)+0
  1628  030D  0845               	movf	(??___ftmul+3)+0,w
  1629  030E  00CB               	movwf	(___ftmul@sign)
  1630                           	line	62
  1631  030F  083F               	movf	(___ftmul@f2),w
  1632  0310  00C2               	movwf	((??___ftmul+0)+0)
  1633  0311  0840               	movf	(___ftmul@f2+1),w
  1634  0312  00C3               	movwf	((??___ftmul+0)+0+1)
  1635  0313  0841               	movf	(___ftmul@f2+2),w
  1636  0314  00C4               	movwf	((??___ftmul+0)+0+2)
  1637  0315  3010               	movlw	010h
  1638  0316                     u3355:
  1639  0316  1003               	clrc
  1640  0317  0CC4               	rrf	(??___ftmul+0)+2,f
  1641  0318  0CC3               	rrf	(??___ftmul+0)+1,f
  1642  0319  0CC2               	rrf	(??___ftmul+0)+0,f
  1643  031A                     u3350:
  1644  031A  3EFF               	addlw	-1
  1645  031B  1D03               	skipz
  1646  031C  2B16               	goto	u3355
  1647  031D  0842               	movf	0+(??___ftmul+0)+0,w
  1648  031E  00C5               	movwf	(??___ftmul+3)+0
  1649  031F  0845               	movf	(??___ftmul+3)+0,w
  1650  0320  06CB               	xorwf	(___ftmul@sign),f
  1651                           	line	63
  1652  0321  3080               	movlw	(080h)
  1653  0322  00C2               	movwf	(??___ftmul+0)+0
  1654  0323  0842               	movf	(??___ftmul+0)+0,w
  1655  0324  05CB               	andwf	(___ftmul@sign),f
  1656                           	line	64
  1657                           	
  1658  0325                     l9603:	
  1659  0325  17BD               	bsf	(___ftmul@f1)+(15/8),(15)&7
  1660                           	line	66
  1661                           	
  1662  0326                     l9605:	
  1663  0326  17C0               	bsf	(___ftmul@f2)+(15/8),(15)&7
  1664                           	line	67
  1665                           	
  1666  0327                     l9607:	
  1667  0327  30FF               	movlw	0FFh
  1668  0328  05BF               	andwf	(___ftmul@f2),f
  1669  0329  30FF               	movlw	0FFh
  1670  032A  05C0               	andwf	(___ftmul@f2+1),f
  1671  032B  3000               	movlw	0
  1672  032C  05C1               	andwf	(___ftmul@f2+2),f
  1673                           	line	68
  1674                           	
  1675  032D                     l9609:	
  1676  032D  3000               	movlw	0
  1677  032E  00C7               	movwf	(___ftmul@f3_as_product)
  1678  032F  3000               	movlw	0
  1679  0330  00C8               	movwf	(___ftmul@f3_as_product+1)
  1680  0331  3000               	movlw	0
  1681  0332  00C9               	movwf	(___ftmul@f3_as_product+2)
  1682                           	line	69
  1683                           	
  1684  0333                     l9611:	
  1685  0333  3007               	movlw	(07h)
  1686  0334  00C2               	movwf	(??___ftmul+0)+0
  1687  0335  0842               	movf	(??___ftmul+0)+0,w
  1688  0336  00CA               	movwf	(___ftmul@cntr)
  1689  0337  2B38               	goto	l9613
  1690                           	line	70
  1691                           	
  1692  0338                     l7670:	
  1693                           	line	71
  1694                           	
  1695  0338                     l9613:	
  1696  0338  1C3C               	btfss	(___ftmul@f1),(0)&7
  1697  0339  2B3B               	goto	u3361
  1698  033A  2B3C               	goto	u3360
  1699  033B                     u3361:
  1700  033B  2B4D               	goto	l9617
  1701  033C                     u3360:
  1702                           	line	72
  1703                           	
  1704  033C                     l9615:	
  1705  033C  083F               	movf	(___ftmul@f2),w
  1706  033D  07C7               	addwf	(___ftmul@f3_as_product),f
  1707  033E  0840               	movf	(___ftmul@f2+1),w
  1708  033F  1103               	clrz
  1709  0340  1803               	skipnc
  1710  0341  0A40               	incf	(___ftmul@f2+1),w
  1711  0342  1903               	skipnz
  1712  0343  2B45               	goto	u3371
  1713  0344  07C8               	addwf	(___ftmul@f3_as_product+1),f
  1714  0345                     u3371:
  1715  0345  0841               	movf	(___ftmul@f2+2),w
  1716  0346  1103               	clrz
  1717  0347  1803               	skipnc
  1718  0348  0A41               	incf	(___ftmul@f2+2),w
  1719  0349  1903               	skipnz
  1720  034A  2B4C               	goto	u3372
  1721  034B  07C9               	addwf	(___ftmul@f3_as_product+2),f
  1722  034C                     u3372:
  1723                           
  1724  034C  2B4D               	goto	l9617
  1725                           	
  1726  034D                     l7671:	
  1727                           	line	73
  1728                           	
  1729  034D                     l9617:	
  1730  034D  3001               	movlw	01h
  1731  034E                     u3385:
  1732  034E  1003               	clrc
  1733  034F  0CBE               	rrf	(___ftmul@f1+2),f
  1734  0350  0CBD               	rrf	(___ftmul@f1+1),f
  1735  0351  0CBC               	rrf	(___ftmul@f1),f
  1736  0352  3EFF               	addlw	-1
  1737  0353  1D03               	skipz
  1738  0354  2B4E               	goto	u3385
  1739                           
  1740                           	line	74
  1741                           	
  1742  0355                     l9619:	
  1743  0355  3001               	movlw	01h
  1744  0356                     u3395:
  1745  0356  1003               	clrc
  1746  0357  0DBF               	rlf	(___ftmul@f2),f
  1747  0358  0DC0               	rlf	(___ftmul@f2+1),f
  1748  0359  0DC1               	rlf	(___ftmul@f2+2),f
  1749  035A  3EFF               	addlw	-1
  1750  035B  1D03               	skipz
  1751  035C  2B56               	goto	u3395
  1752                           	line	75
  1753                           	
  1754  035D                     l9621:	
  1755  035D  3001               	movlw	low(01h)
  1756  035E  02CA               	subwf	(___ftmul@cntr),f
  1757  035F  1D03               	btfss	status,2
  1758  0360  2B62               	goto	u3401
  1759  0361  2B63               	goto	u3400
  1760  0362                     u3401:
  1761  0362  2B38               	goto	l9613
  1762  0363                     u3400:
  1763  0363  2B64               	goto	l9623
  1764                           	
  1765  0364                     l7672:	
  1766                           	line	76
  1767                           	
  1768  0364                     l9623:	
  1769  0364  3009               	movlw	(09h)
  1770  0365  00C2               	movwf	(??___ftmul+0)+0
  1771  0366  0842               	movf	(??___ftmul+0)+0,w
  1772  0367  00CA               	movwf	(___ftmul@cntr)
  1773  0368  2B69               	goto	l9625
  1774                           	line	77
  1775                           	
  1776  0369                     l7673:	
  1777                           	line	78
  1778                           	
  1779  0369                     l9625:	
  1780  0369  1C3C               	btfss	(___ftmul@f1),(0)&7
  1781  036A  2B6C               	goto	u3411
  1782  036B  2B6D               	goto	u3410
  1783  036C                     u3411:
  1784  036C  2B7E               	goto	l9629
  1785  036D                     u3410:
  1786                           	line	79
  1787                           	
  1788  036D                     l9627:	
  1789  036D  083F               	movf	(___ftmul@f2),w
  1790  036E  07C7               	addwf	(___ftmul@f3_as_product),f
  1791  036F  0840               	movf	(___ftmul@f2+1),w
  1792  0370  1103               	clrz
  1793  0371  1803               	skipnc
  1794  0372  0A40               	incf	(___ftmul@f2+1),w
  1795  0373  1903               	skipnz
  1796  0374  2B76               	goto	u3421
  1797  0375  07C8               	addwf	(___ftmul@f3_as_product+1),f
  1798  0376                     u3421:
  1799  0376  0841               	movf	(___ftmul@f2+2),w
  1800  0377  1103               	clrz
  1801  0378  1803               	skipnc
  1802  0379  0A41               	incf	(___ftmul@f2+2),w
  1803  037A  1903               	skipnz
  1804  037B  2B7D               	goto	u3422
  1805  037C  07C9               	addwf	(___ftmul@f3_as_product+2),f
  1806  037D                     u3422:
  1807                           
  1808  037D  2B7E               	goto	l9629
  1809                           	
  1810  037E                     l7674:	
  1811                           	line	80
  1812                           	
  1813  037E                     l9629:	
  1814  037E  3001               	movlw	01h
  1815  037F                     u3435:
  1816  037F  1003               	clrc
  1817  0380  0CBE               	rrf	(___ftmul@f1+2),f
  1818  0381  0CBD               	rrf	(___ftmul@f1+1),f
  1819  0382  0CBC               	rrf	(___ftmul@f1),f
  1820  0383  3EFF               	addlw	-1
  1821  0384  1D03               	skipz
  1822  0385  2B7F               	goto	u3435
  1823                           
  1824                           	line	81
  1825                           	
  1826  0386                     l9631:	
  1827  0386  3001               	movlw	01h
  1828  0387                     u3445:
  1829  0387  1003               	clrc
  1830  0388  0CC9               	rrf	(___ftmul@f3_as_product+2),f
  1831  0389  0CC8               	rrf	(___ftmul@f3_as_product+1),f
  1832  038A  0CC7               	rrf	(___ftmul@f3_as_product),f
  1833  038B  3EFF               	addlw	-1
  1834  038C  1D03               	skipz
  1835  038D  2B87               	goto	u3445
  1836                           
  1837                           	line	82
  1838                           	
  1839  038E                     l9633:	
  1840  038E  3001               	movlw	low(01h)
  1841  038F  02CA               	subwf	(___ftmul@cntr),f
  1842  0390  1D03               	btfss	status,2
  1843  0391  2B93               	goto	u3451
  1844  0392  2B94               	goto	u3450
  1845  0393                     u3451:
  1846  0393  2B69               	goto	l9625
  1847  0394                     u3450:
  1848  0394  2B95               	goto	l9635
  1849                           	
  1850  0395                     l7675:	
  1851                           	line	83
  1852                           	
  1853  0395                     l9635:	
  1854  0395  0847               	movf	(___ftmul@f3_as_product),w
  1855  0396  00A0               	movwf	(?___ftpack)
  1856  0397  0848               	movf	(___ftmul@f3_as_product+1),w
  1857  0398  00A1               	movwf	(?___ftpack+1)
  1858  0399  0849               	movf	(___ftmul@f3_as_product+2),w
  1859  039A  00A2               	movwf	(?___ftpack+2)
  1860  039B  0846               	movf	(___ftmul@exp),w
  1861  039C  00C2               	movwf	(??___ftmul+0)+0
  1862  039D  0842               	movf	(??___ftmul+0)+0,w
  1863  039E  00A3               	movwf	0+(?___ftpack)+03h
  1864  039F  084B               	movf	(___ftmul@sign),w
  1865  03A0  00C3               	movwf	(??___ftmul+1)+0
  1866  03A1  0843               	movf	(??___ftmul+1)+0,w
  1867  03A2  00A4               	movwf	0+(?___ftpack)+04h
  1868  03A3  120A  118A  24DF   	fcall	___ftpack
              120A  118A         
  1869  03A8  1283               	bcf	status, 5	;RP0=0, select bank0
  1870  03A9  1303               	bcf	status, 6	;RP1=0, select bank0
  1871  03AA  0820               	movf	(0+(?___ftpack)),w
  1872  03AB  00BC               	movwf	(?___ftmul)
  1873  03AC  0821               	movf	(1+(?___ftpack)),w
  1874  03AD  00BD               	movwf	(?___ftmul+1)
  1875  03AE  0822               	movf	(2+(?___ftpack)),w
  1876  03AF  00BE               	movwf	(?___ftmul+2)
  1877  03B0  2BB1               	goto	l7668
  1878                           	
  1879  03B1                     l9637:	
  1880                           	line	84
  1881                           	
  1882  03B1                     l7668:	
  1883  03B1  0008               	return
  1884                           	opt stack 0
  1885                           GLOBAL	__end_of___ftmul
  1886  03B2                     	__end_of___ftmul:
  1887 ;; =============== function ___ftmul ends ============
  1888                           
  1889                           	signat	___ftmul,8315
  1890                           	global	___ftadd
  1891                           psect	text496,local,class=CODE,delta=2
  1892                           global __ptext496
  1893  017E                     __ptext496:
  1894                           
  1895 ;; *************** function ___ftadd *****************
  1896 ;; Defined at:
  1897 ;;		line 87 in file "C:\Program Files (x86)\HI-TECH Software\PICC\9.83\sources\ftadd.c"
  1898 ;; Parameters:    Size  Location     Type
  1899 ;;  f1              3   44[BANK0 ] float 
  1900 ;;  f2              3   47[BANK0 ] float 
  1901 ;; Auto vars:     Size  Location     Type
  1902 ;;  exp1            1   56[BANK0 ] unsigned char 
  1903 ;;  exp2            1   55[BANK0 ] unsigned char 
  1904 ;;  sign            1   54[BANK0 ] unsigned char 
  1905 ;; Return value:  Size  Location     Type
  1906 ;;                  3   44[BANK0 ] float 
  1907 ;; Registers used:
  1908 ;;		wreg, status,2, status,0, pclath, cstack
  1909 ;; Tracked objects:
  1910 ;;		On entry : 0/0
  1911 ;;		On exit  : 0/0
  1912 ;;		Unchanged: 0/0
  1913 ;; Data sizes:     COMMON   BANK0  BANK1h  BANK1l   BANK3   BANK2
  1914 ;;      Params:         0       6       0       0       0       0
  1915 ;;      Locals:         0       3       0       0       0       0
  1916 ;;      Temps:          0       4       0       0       0       0
  1917 ;;      Totals:         0      13       0       0       0       0
  1918 ;;Total ram usage:       13 bytes
  1919 ;; Hardware stack levels used:    1
  1920 ;; Hardware stack levels required when called:    4
  1921 ;; This function calls:
  1922 ;;		___ftpack
  1923 ;; This function is called by:
  1924 ;;		_main
  1925 ;;		___ftsub
  1926 ;; This function uses a non-reentrant model
  1927 ;;
  1928                           psect	text496
  1929                           	file	"C:\Program Files (x86)\HI-TECH Software\PICC\9.83\sources\ftadd.c"
  1930                           	line	87
  1931                           	global	__size_of___ftadd
  1932  0146                     	__size_of___ftadd	equ	__end_of___ftadd-___ftadd
  1933                           	
  1934  017E                     ___ftadd:	
  1935                           	opt	stack 3
  1936                           ; Regs used in ___ftadd: [wreg+status,2+status,0+pclath+cstack]
  1937                           	line	90
  1938                           	
  1939  017E                     l9519:	
  1940  017E  1283               	bcf	status, 5	;RP0=0, select bank0
  1941  017F  1303               	bcf	status, 6	;RP1=0, select bank0
  1942  0180  084C               	movf	(___ftadd@f1),w
  1943  0181  00D2               	movwf	((??___ftadd+0)+0)
  1944  0182  084D               	movf	(___ftadd@f1+1),w
  1945  0183  00D3               	movwf	((??___ftadd+0)+0+1)
  1946  0184  084E               	movf	(___ftadd@f1+2),w
  1947  0185  00D4               	movwf	((??___ftadd+0)+0+2)
  1948  0186  1003               	clrc
  1949  0187  0D53               	rlf	(??___ftadd+0)+1,w
  1950  0188  0D54               	rlf	(??___ftadd+0)+2,w
  1951  0189  00D5               	movwf	(??___ftadd+3)+0
  1952  018A  0855               	movf	(??___ftadd+3)+0,w
  1953  018B  00D8               	movwf	(___ftadd@exp1)
  1954                           	line	91
  1955  018C  084F               	movf	(___ftadd@f2),w
  1956  018D  00D2               	movwf	((??___ftadd+0)+0)
  1957  018E  0850               	movf	(___ftadd@f2+1),w
  1958  018F  00D3               	movwf	((??___ftadd+0)+0+1)
  1959  0190  0851               	movf	(___ftadd@f2+2),w
  1960  0191  00D4               	movwf	((??___ftadd+0)+0+2)
  1961  0192  1003               	clrc
  1962  0193  0D53               	rlf	(??___ftadd+0)+1,w
  1963  0194  0D54               	rlf	(??___ftadd+0)+2,w
  1964  0195  00D5               	movwf	(??___ftadd+3)+0
  1965  0196  0855               	movf	(??___ftadd+3)+0,w
  1966  0197  00D7               	movwf	(___ftadd@exp2)
  1967                           	line	92
  1968                           	
  1969  0198                     l9521:	
  1970  0198  0858               	movf	(___ftadd@exp1),w
  1971  0199  1D03               	skipz
  1972  019A  299C               	goto	u3080
  1973  019B  29AD               	goto	l9527
  1974  019C                     u3080:
  1975                           	
  1976  019C                     l9523:	
  1977  019C  0857               	movf	(___ftadd@exp2),w
  1978  019D  0258               	subwf	(___ftadd@exp1),w
  1979  019E  1803               	skipnc
  1980  019F  29A1               	goto	u3091
  1981  01A0  29A2               	goto	u3090
  1982  01A1                     u3091:
  1983  01A1  29B5               	goto	l9531
  1984  01A2                     u3090:
  1985                           	
  1986  01A2                     l9525:	
  1987  01A2  0358               	decf	(___ftadd@exp1),w
  1988  01A3  3AFF               	xorlw	0ffh
  1989  01A4  0757               	addwf	(___ftadd@exp2),w
  1990  01A5  00D2               	movwf	(??___ftadd+0)+0
  1991  01A6  3019               	movlw	(019h)
  1992  01A7  0252               	subwf	0+(??___ftadd+0)+0,w
  1993  01A8  1C03               	skipc
  1994  01A9  29AB               	goto	u3101
  1995  01AA  29AC               	goto	u3100
  1996  01AB                     u3101:
  1997  01AB  29B5               	goto	l9531
  1998  01AC                     u3100:
  1999  01AC  29AD               	goto	l9527
  2000                           	
  2001  01AD                     l7615:	
  2002                           	line	93
  2003                           	
  2004  01AD                     l9527:	
  2005  01AD  084F               	movf	(___ftadd@f2),w
  2006  01AE  00CC               	movwf	(?___ftadd)
  2007  01AF  0850               	movf	(___ftadd@f2+1),w
  2008  01B0  00CD               	movwf	(?___ftadd+1)
  2009  01B1  0851               	movf	(___ftadd@f2+2),w
  2010  01B2  00CE               	movwf	(?___ftadd+2)
  2011  01B3  2AC3               	goto	l7616
  2012                           	
  2013  01B4                     l9529:	
  2014  01B4  2AC3               	goto	l7616
  2015                           	
  2016  01B5                     l7613:	
  2017                           	line	94
  2018                           	
  2019  01B5                     l9531:	
  2020  01B5  0857               	movf	(___ftadd@exp2),w
  2021  01B6  1D03               	skipz
  2022  01B7  29B9               	goto	u3110
  2023  01B8  29C9               	goto	l7619
  2024  01B9                     u3110:
  2025                           	
  2026  01B9                     l9533:	
  2027  01B9  0858               	movf	(___ftadd@exp1),w
  2028  01BA  0257               	subwf	(___ftadd@exp2),w
  2029  01BB  1803               	skipnc
  2030  01BC  29BE               	goto	u3121
  2031  01BD  29BF               	goto	u3120
  2032  01BE                     u3121:
  2033  01BE  29CA               	goto	l9537
  2034  01BF                     u3120:
  2035                           	
  2036  01BF                     l9535:	
  2037  01BF  0357               	decf	(___ftadd@exp2),w
  2038  01C0  3AFF               	xorlw	0ffh
  2039  01C1  0758               	addwf	(___ftadd@exp1),w
  2040  01C2  00D2               	movwf	(??___ftadd+0)+0
  2041  01C3  3019               	movlw	(019h)
  2042  01C4  0252               	subwf	0+(??___ftadd+0)+0,w
  2043  01C5  1C03               	skipc
  2044  01C6  29C8               	goto	u3131
  2045  01C7  29C9               	goto	u3130
  2046  01C8                     u3131:
  2047  01C8  29CA               	goto	l9537
  2048  01C9                     u3130:
  2049                           	
  2050  01C9                     l7619:	
  2051                           	line	95
  2052  01C9  2AC3               	goto	l7616
  2053                           	
  2054  01CA                     l7617:	
  2055                           	line	96
  2056                           	
  2057  01CA                     l9537:	
  2058  01CA  3006               	movlw	(06h)
  2059  01CB  00D2               	movwf	(??___ftadd+0)+0
  2060  01CC  0852               	movf	(??___ftadd+0)+0,w
  2061  01CD  00D6               	movwf	(___ftadd@sign)
  2062                           	line	97
  2063                           	
  2064  01CE                     l9539:	
  2065  01CE  1FCE               	btfss	(___ftadd@f1+2),(23)&7
  2066  01CF  29D1               	goto	u3141
  2067  01D0  29D2               	goto	u3140
  2068  01D1                     u3141:
  2069  01D1  29D3               	goto	l7620
  2070  01D2                     u3140:
  2071                           	line	98
  2072                           	
  2073  01D2                     l9541:	
  2074  01D2  17D6               	bsf	(___ftadd@sign)+(7/8),(7)&7
  2075                           	
  2076  01D3                     l7620:	
  2077                           	line	99
  2078  01D3  1FD1               	btfss	(___ftadd@f2+2),(23)&7
  2079  01D4  29D6               	goto	u3151
  2080  01D5  29D7               	goto	u3150
  2081  01D6                     u3151:
  2082  01D6  29D8               	goto	l7621
  2083  01D7                     u3150:
  2084                           	line	100
  2085                           	
  2086  01D7                     l9543:	
  2087  01D7  1756               	bsf	(___ftadd@sign)+(6/8),(6)&7
  2088                           	
  2089  01D8                     l7621:	
  2090                           	line	101
  2091  01D8  17CD               	bsf	(___ftadd@f1)+(15/8),(15)&7
  2092                           	line	102
  2093                           	
  2094  01D9                     l9545:	
  2095  01D9  30FF               	movlw	0FFh
  2096  01DA  05CC               	andwf	(___ftadd@f1),f
  2097  01DB  30FF               	movlw	0FFh
  2098  01DC  05CD               	andwf	(___ftadd@f1+1),f
  2099  01DD  3000               	movlw	0
  2100  01DE  05CE               	andwf	(___ftadd@f1+2),f
  2101                           	line	103
  2102                           	
  2103  01DF                     l9547:	
  2104  01DF  17D0               	bsf	(___ftadd@f2)+(15/8),(15)&7
  2105                           	line	104
  2106  01E0  30FF               	movlw	0FFh
  2107  01E1  05CF               	andwf	(___ftadd@f2),f
  2108  01E2  30FF               	movlw	0FFh
  2109  01E3  05D0               	andwf	(___ftadd@f2+1),f
  2110  01E4  3000               	movlw	0
  2111  01E5  05D1               	andwf	(___ftadd@f2+2),f
  2112                           	line	106
  2113  01E6  0857               	movf	(___ftadd@exp2),w
  2114  01E7  0258               	subwf	(___ftadd@exp1),w
  2115  01E8  1803               	skipnc
  2116  01E9  29EB               	goto	u3161
  2117  01EA  29EC               	goto	u3160
  2118  01EB                     u3161:
  2119  01EB  2A1D               	goto	l9559
  2120  01EC                     u3160:
  2121  01EC  29ED               	goto	l9549
  2122                           	line	109
  2123                           	
  2124  01ED                     l7623:	
  2125                           	line	110
  2126                           	
  2127  01ED                     l9549:	
  2128  01ED  3001               	movlw	01h
  2129  01EE                     u3175:
  2130  01EE  1003               	clrc
  2131  01EF  0DCF               	rlf	(___ftadd@f2),f
  2132  01F0  0DD0               	rlf	(___ftadd@f2+1),f
  2133  01F1  0DD1               	rlf	(___ftadd@f2+2),f
  2134  01F2  3EFF               	addlw	-1
  2135  01F3  1D03               	skipz
  2136  01F4  29EE               	goto	u3175
  2137                           	line	111
  2138  01F5  3001               	movlw	low(01h)
  2139  01F6  02D7               	subwf	(___ftadd@exp2),f
  2140                           	line	112
  2141                           	
  2142  01F7                     l9551:	
  2143  01F7  0857               	movf	(___ftadd@exp2),w
  2144  01F8  0658               	xorwf	(___ftadd@exp1),w
  2145  01F9  1903               	skipnz
  2146  01FA  29FC               	goto	u3181
  2147  01FB  29FD               	goto	u3180
  2148  01FC                     u3181:
  2149  01FC  2A15               	goto	l9557
  2150  01FD                     u3180:
  2151                           	
  2152  01FD                     l9553:	
  2153  01FD  3001               	movlw	low(01h)
  2154  01FE  02D6               	subwf	(___ftadd@sign),f
  2155  01FF  0856               	movf	((___ftadd@sign)),w
  2156  0200  3907               	andlw	07h
  2157  0201  1D03               	btfss	status,2
  2158  0202  2A04               	goto	u3191
  2159  0203  2A05               	goto	u3190
  2160  0204                     u3191:
  2161  0204  29ED               	goto	l9549
  2162  0205                     u3190:
  2163  0205  2A15               	goto	l9557
  2164                           	
  2165  0206                     l7625:	
  2166  0206  2A15               	goto	l9557
  2167                           	
  2168  0207                     l7626:	
  2169                           	line	113
  2170  0207  2A15               	goto	l9557
  2171                           	
  2172  0208                     l7628:	
  2173                           	line	114
  2174                           	
  2175  0208                     l9555:	
  2176  0208  3001               	movlw	01h
  2177  0209                     u3205:
  2178  0209  1003               	clrc
  2179  020A  0CCE               	rrf	(___ftadd@f1+2),f
  2180  020B  0CCD               	rrf	(___ftadd@f1+1),f
  2181  020C  0CCC               	rrf	(___ftadd@f1),f
  2182  020D  3EFF               	addlw	-1
  2183  020E  1D03               	skipz
  2184  020F  2A09               	goto	u3205
  2185                           
  2186                           	line	115
  2187  0210  3001               	movlw	(01h)
  2188  0211  00D2               	movwf	(??___ftadd+0)+0
  2189  0212  0852               	movf	(??___ftadd+0)+0,w
  2190  0213  07D8               	addwf	(___ftadd@exp1),f
  2191  0214  2A15               	goto	l9557
  2192                           	line	116
  2193                           	
  2194  0215                     l7627:	
  2195                           	line	113
  2196                           	
  2197  0215                     l9557:	
  2198  0215  0858               	movf	(___ftadd@exp1),w
  2199  0216  0657               	xorwf	(___ftadd@exp2),w
  2200  0217  1D03               	skipz
  2201  0218  2A1A               	goto	u3211
  2202  0219  2A1B               	goto	u3210
  2203  021A                     u3211:
  2204  021A  2A08               	goto	l9555
  2205  021B                     u3210:
  2206  021B  2A54               	goto	l7630
  2207                           	
  2208  021C                     l7629:	
  2209                           	line	117
  2210  021C  2A54               	goto	l7630
  2211                           	
  2212  021D                     l7622:	
  2213                           	
  2214  021D                     l9559:	
  2215  021D  0858               	movf	(___ftadd@exp1),w
  2216  021E  0257               	subwf	(___ftadd@exp2),w
  2217  021F  1803               	skipnc
  2218  0220  2A22               	goto	u3221
  2219  0221  2A23               	goto	u3220
  2220  0222                     u3221:
  2221  0222  2A54               	goto	l7630
  2222  0223                     u3220:
  2223  0223  2A24               	goto	l9561
  2224                           	line	120
  2225                           	
  2226  0224                     l7632:	
  2227                           	line	121
  2228                           	
  2229  0224                     l9561:	
  2230  0224  3001               	movlw	01h
  2231  0225                     u3235:
  2232  0225  1003               	clrc
  2233  0226  0DCC               	rlf	(___ftadd@f1),f
  2234  0227  0DCD               	rlf	(___ftadd@f1+1),f
  2235  0228  0DCE               	rlf	(___ftadd@f1+2),f
  2236  0229  3EFF               	addlw	-1
  2237  022A  1D03               	skipz
  2238  022B  2A25               	goto	u3235
  2239                           	line	122
  2240  022C  3001               	movlw	low(01h)
  2241  022D  02D8               	subwf	(___ftadd@exp1),f
  2242                           	line	123
  2243                           	
  2244  022E                     l9563:	
  2245  022E  0857               	movf	(___ftadd@exp2),w
  2246  022F  0658               	xorwf	(___ftadd@exp1),w
  2247  0230  1903               	skipnz
  2248  0231  2A33               	goto	u3241
  2249  0232  2A34               	goto	u3240
  2250  0233                     u3241:
  2251  0233  2A4C               	goto	l9569
  2252  0234                     u3240:
  2253                           	
  2254  0234                     l9565:	
  2255  0234  3001               	movlw	low(01h)
  2256  0235  02D6               	subwf	(___ftadd@sign),f
  2257  0236  0856               	movf	((___ftadd@sign)),w
  2258  0237  3907               	andlw	07h
  2259  0238  1D03               	btfss	status,2
  2260  0239  2A3B               	goto	u3251
  2261  023A  2A3C               	goto	u3250
  2262  023B                     u3251:
  2263  023B  2A24               	goto	l9561
  2264  023C                     u3250:
  2265  023C  2A4C               	goto	l9569
  2266                           	
  2267  023D                     l7634:	
  2268  023D  2A4C               	goto	l9569
  2269                           	
  2270  023E                     l7635:	
  2271                           	line	124
  2272  023E  2A4C               	goto	l9569
  2273                           	
  2274  023F                     l7637:	
  2275                           	line	125
  2276                           	
  2277  023F                     l9567:	
  2278  023F  3001               	movlw	01h
  2279  0240                     u3265:
  2280  0240  1003               	clrc
  2281  0241  0CD1               	rrf	(___ftadd@f2+2),f
  2282  0242  0CD0               	rrf	(___ftadd@f2+1),f
  2283  0243  0CCF               	rrf	(___ftadd@f2),f
  2284  0244  3EFF               	addlw	-1
  2285  0245  1D03               	skipz
  2286  0246  2A40               	goto	u3265
  2287                           
  2288                           	line	126
  2289  0247  3001               	movlw	(01h)
  2290  0248  00D2               	movwf	(??___ftadd+0)+0
  2291  0249  0852               	movf	(??___ftadd+0)+0,w
  2292  024A  07D7               	addwf	(___ftadd@exp2),f
  2293  024B  2A4C               	goto	l9569
  2294                           	line	127
  2295                           	
  2296  024C                     l7636:	
  2297                           	line	124
  2298                           	
  2299  024C                     l9569:	
  2300  024C  0858               	movf	(___ftadd@exp1),w
  2301  024D  0657               	xorwf	(___ftadd@exp2),w
  2302  024E  1D03               	skipz
  2303  024F  2A51               	goto	u3271
  2304  0250  2A52               	goto	u3270
  2305  0251                     u3271:
  2306  0251  2A3F               	goto	l9567
  2307  0252                     u3270:
  2308  0252  2A54               	goto	l7630
  2309                           	
  2310  0253                     l7638:	
  2311  0253  2A54               	goto	l7630
  2312                           	line	128
  2313                           	
  2314  0254                     l7631:	
  2315                           	line	129
  2316                           	
  2317  0254                     l7630:	
  2318  0254  1FD6               	btfss	(___ftadd@sign),(7)&7
  2319  0255  2A57               	goto	u3281
  2320  0256  2A58               	goto	u3280
  2321  0257                     u3281:
  2322  0257  2A69               	goto	l9573
  2323  0258                     u3280:
  2324                           	line	131
  2325                           	
  2326  0258                     l9571:	
  2327  0258  30FF               	movlw	0FFh
  2328  0259  06CC               	xorwf	(___ftadd@f1),f
  2329  025A  30FF               	movlw	0FFh
  2330  025B  06CD               	xorwf	(___ftadd@f1+1),f
  2331  025C  30FF               	movlw	0FFh
  2332  025D  06CE               	xorwf	(___ftadd@f1+2),f
  2333                           	line	132
  2334  025E  3001               	movlw	01h
  2335  025F  07CC               	addwf	(___ftadd@f1),f
  2336  0260  3000               	movlw	0
  2337  0261  1803               	skipnc
  2338  0262  3001               movlw 1
  2339  0263  07CD               	addwf	(___ftadd@f1+1),f
  2340  0264  3000               	movlw	0
  2341  0265  1803               	skipnc
  2342  0266  3001               movlw 1
  2343  0267  07CE               	addwf	(___ftadd@f1+2),f
  2344  0268  2A69               	goto	l9573
  2345                           	line	133
  2346                           	
  2347  0269                     l7639:	
  2348                           	line	134
  2349                           	
  2350  0269                     l9573:	
  2351  0269  1F56               	btfss	(___ftadd@sign),(6)&7
  2352  026A  2A6C               	goto	u3291
  2353  026B  2A6D               	goto	u3290
  2354  026C                     u3291:
  2355  026C  2A7E               	goto	l9577
  2356  026D                     u3290:
  2357                           	line	136
  2358                           	
  2359  026D                     l9575:	
  2360  026D  30FF               	movlw	0FFh
  2361  026E  06CF               	xorwf	(___ftadd@f2),f
  2362  026F  30FF               	movlw	0FFh
  2363  0270  06D0               	xorwf	(___ftadd@f2+1),f
  2364  0271  30FF               	movlw	0FFh
  2365  0272  06D1               	xorwf	(___ftadd@f2+2),f
  2366                           	line	137
  2367  0273  3001               	movlw	01h
  2368  0274  07CF               	addwf	(___ftadd@f2),f
  2369  0275  3000               	movlw	0
  2370  0276  1803               	skipnc
  2371  0277  3001               movlw 1
  2372  0278  07D0               	addwf	(___ftadd@f2+1),f
  2373  0279  3000               	movlw	0
  2374  027A  1803               	skipnc
  2375  027B  3001               movlw 1
  2376  027C  07D1               	addwf	(___ftadd@f2+2),f
  2377  027D  2A7E               	goto	l9577
  2378                           	line	138
  2379                           	
  2380  027E                     l7640:	
  2381                           	line	139
  2382                           	
  2383  027E                     l9577:	
  2384  027E  01D6               	clrf	(___ftadd@sign)
  2385                           	line	140
  2386  027F  084C               	movf	(___ftadd@f1),w
  2387  0280  07CF               	addwf	(___ftadd@f2),f
  2388  0281  084D               	movf	(___ftadd@f1+1),w
  2389  0282  1103               	clrz
  2390  0283  1803               	skipnc
  2391  0284  0A4D               	incf	(___ftadd@f1+1),w
  2392  0285  1903               	skipnz
  2393  0286  2A88               	goto	u3301
  2394  0287  07D0               	addwf	(___ftadd@f2+1),f
  2395  0288                     u3301:
  2396  0288  084E               	movf	(___ftadd@f1+2),w
  2397  0289  1103               	clrz
  2398  028A  1803               	skipnc
  2399  028B  0A4E               	incf	(___ftadd@f1+2),w
  2400  028C  1903               	skipnz
  2401  028D  2A8F               	goto	u3302
  2402  028E  07D1               	addwf	(___ftadd@f2+2),f
  2403  028F                     u3302:
  2404                           
  2405                           	line	141
  2406                           	
  2407  028F                     l9579:	
  2408  028F  1FD1               	btfss	(___ftadd@f2+2),(23)&7
  2409  0290  2A92               	goto	u3311
  2410  0291  2A93               	goto	u3310
  2411  0292                     u3311:
  2412  0292  2AA7               	goto	l9585
  2413  0293                     u3310:
  2414                           	line	142
  2415                           	
  2416  0293                     l9581:	
  2417  0293  30FF               	movlw	0FFh
  2418  0294  06CF               	xorwf	(___ftadd@f2),f
  2419  0295  30FF               	movlw	0FFh
  2420  0296  06D0               	xorwf	(___ftadd@f2+1),f
  2421  0297  30FF               	movlw	0FFh
  2422  0298  06D1               	xorwf	(___ftadd@f2+2),f
  2423                           	line	143
  2424  0299  3001               	movlw	01h
  2425  029A  07CF               	addwf	(___ftadd@f2),f
  2426  029B  3000               	movlw	0
  2427  029C  1803               	skipnc
  2428  029D  3001               movlw 1
  2429  029E  07D0               	addwf	(___ftadd@f2+1),f
  2430  029F  3000               	movlw	0
  2431  02A0  1803               	skipnc
  2432  02A1  3001               movlw 1
  2433  02A2  07D1               	addwf	(___ftadd@f2+2),f
  2434                           	line	144
  2435                           	
  2436  02A3                     l9583:	
  2437  02A3  01D6               	clrf	(___ftadd@sign)
  2438  02A4  1403               	bsf	status,0
  2439  02A5  0DD6               	rlf	(___ftadd@sign),f
  2440  02A6  2AA7               	goto	l9585
  2441                           	line	145
  2442                           	
  2443  02A7                     l7641:	
  2444                           	line	146
  2445                           	
  2446  02A7                     l9585:	
  2447  02A7  084F               	movf	(___ftadd@f2),w
  2448  02A8  00A0               	movwf	(?___ftpack)
  2449  02A9  0850               	movf	(___ftadd@f2+1),w
  2450  02AA  00A1               	movwf	(?___ftpack+1)
  2451  02AB  0851               	movf	(___ftadd@f2+2),w
  2452  02AC  00A2               	movwf	(?___ftpack+2)
  2453  02AD  0858               	movf	(___ftadd@exp1),w
  2454  02AE  00D2               	movwf	(??___ftadd+0)+0
  2455  02AF  0852               	movf	(??___ftadd+0)+0,w
  2456  02B0  00A3               	movwf	0+(?___ftpack)+03h
  2457  02B1  0856               	movf	(___ftadd@sign),w
  2458  02B2  00D3               	movwf	(??___ftadd+1)+0
  2459  02B3  0853               	movf	(??___ftadd+1)+0,w
  2460  02B4  00A4               	movwf	0+(?___ftpack)+04h
  2461  02B5  120A  118A  24DF   	fcall	___ftpack
              120A  118A         
  2462  02BA  1283               	bcf	status, 5	;RP0=0, select bank0
  2463  02BB  1303               	bcf	status, 6	;RP1=0, select bank0
  2464  02BC  0820               	movf	(0+(?___ftpack)),w
  2465  02BD  00CC               	movwf	(?___ftadd)
  2466  02BE  0821               	movf	(1+(?___ftpack)),w
  2467  02BF  00CD               	movwf	(?___ftadd+1)
  2468  02C0  0822               	movf	(2+(?___ftpack)),w
  2469  02C1  00CE               	movwf	(?___ftadd+2)
  2470  02C2  2AC3               	goto	l7616
  2471                           	
  2472  02C3                     l9587:	
  2473                           	line	148
  2474                           	
  2475  02C3                     l7616:	
  2476  02C3  0008               	return
  2477                           	opt stack 0
  2478                           GLOBAL	__end_of___ftadd
  2479  02C4                     	__end_of___ftadd:
  2480 ;; =============== function ___ftadd ends ============
  2481                           
  2482                           	signat	___ftadd,8315
  2483                           	global	_Initialise
  2484                           psect	text497,local,class=CODE,delta=2
  2485                           global __ptext497
  2486  05F9                     __ptext497:
  2487                           
  2488 ;; *************** function _Initialise *****************
  2489 ;; Defined at:
  2490 ;;		line 214 in file "primarymain.c"
  2491 ;; Parameters:    Size  Location     Type
  2492 ;;		None
  2493 ;; Auto vars:     Size  Location     Type
  2494 ;;		None
  2495 ;; Return value:  Size  Location     Type
  2496 ;;		None               void
  2497 ;; Registers used:
  2498 ;;		wreg, status,2, status,0, pclath, cstack
  2499 ;; Tracked objects:
  2500 ;;		On entry : 0/0
  2501 ;;		On exit  : 0/0
  2502 ;;		Unchanged: 0/0
  2503 ;; Data sizes:     COMMON   BANK0  BANK1h  BANK1l   BANK3   BANK2
  2504 ;;      Params:         0       0       0       0       0       0
  2505 ;;      Locals:         0       0       0       0       0       0
  2506 ;;      Temps:          0       0       0       0       0       0
  2507 ;;      Totals:         0       0       0       0       0       0
  2508 ;;Total ram usage:        0 bytes
  2509 ;; Hardware stack levels used:    1
  2510 ;; Hardware stack levels required when called:    4
  2511 ;; This function calls:
  2512 ;;		_BeginPWM
  2513 ;;		_BeginEncoder
  2514 ;;		_i2cInit
  2515 ;; This function is called by:
  2516 ;;		_main
  2517 ;; This function uses a non-reentrant model
  2518 ;;
  2519                           psect	text497
  2520                           	file	"primarymain.c"
  2521                           	line	214
  2522                           	global	__size_of_Initialise
  2523  002D                     	__size_of_Initialise	equ	__end_of_Initialise-_Initialise
  2524                           	
  2525  05F9                     _Initialise:	
  2526                           	opt	stack 3
  2527                           ; Regs used in _Initialise: [wreg+status,2+status,0+pclath+cstack]
  2528                           	line	215
  2529                           	
  2530  05F9                     l9489:	
  2531                           ;primarymain.c: 215: FLAG = 0;
  2532  05F9  1683               	bsf	status, 5	;RP0=1, select bank1
  2533  05FA  1303               	bcf	status, 6	;RP1=0, select bank1
  2534  05FB  01AA               	clrf	(170)^080h
  2535                           	line	216
  2536                           	
  2537  05FC                     l9491:	
  2538                           ;primarymain.c: 216: BeginPWM();
  2539  05FC  120A  118A  26BE   	fcall	_BeginPWM
              120A  118A         
  2540                           	line	217
  2541                           ;primarymain.c: 217: BeginEncoder();
  2542  0601  120A  118A  2732   	fcall	_BeginEncoder
              120A  118A         
  2543                           	line	218
  2544                           ;primarymain.c: 218: i2cInit(0x06);
  2545  0606  3006               	movlw	(06h)
  2546  0607  120A  118A  26DC   	fcall	_i2cInit
              120A  118A         
  2547                           	line	221
  2548                           	
  2549  060C                     l9493:	
  2550                           ;primarymain.c: 221: PEIE = 1;
  2551  060C  170B               	bsf	(94/8),(94)&7
  2552                           	line	222
  2553                           	
  2554  060D                     l9495:	
  2555                           ;primarymain.c: 222: RBIE = 1;
  2556  060D  158B               	bsf	(91/8),(91)&7
  2557                           	line	223
  2558                           	
  2559  060E                     l9497:	
  2560                           ;primarymain.c: 223: T0IE = 1;
  2561  060E  168B               	bsf	(93/8),(93)&7
  2562                           	line	224
  2563                           	
  2564  060F                     l9499:	
  2565                           ;primarymain.c: 224: PIE1 = 0b00001001;
  2566  060F  3009               	movlw	(09h)
  2567  0610  1683               	bsf	status, 5	;RP0=1, select bank1
  2568  0611  1303               	bcf	status, 6	;RP1=0, select bank1
  2569  0612  008C               	movwf	(140)^080h	;volatile
  2570                           	line	225
  2571                           	
  2572  0613                     l9501:	
  2573                           ;primarymain.c: 225: PIE2 = 0;
  2574  0613  018D               	clrf	(141)^080h	;volatile
  2575                           	line	227
  2576                           	
  2577  0614                     l9503:	
  2578                           ;primarymain.c: 227: SSPIF = 0;
  2579  0614  1283               	bcf	status, 5	;RP0=0, select bank0
  2580  0615  1303               	bcf	status, 6	;RP1=0, select bank0
  2581  0616  118C               	bcf	(99/8),(99)&7
  2582                           	line	228
  2583                           	
  2584  0617                     l9505:	
  2585                           ;primarymain.c: 228: RBIF = 0;
  2586  0617  100B               	bcf	(88/8),(88)&7
  2587                           	line	229
  2588                           	
  2589  0618                     l9507:	
  2590                           ;primarymain.c: 229: T0IF = 0;
  2591  0618  110B               	bcf	(90/8),(90)&7
  2592                           	line	230
  2593                           	
  2594  0619                     l9509:	
  2595                           ;primarymain.c: 230: TMR1IF = 0;
  2596  0619  100C               	bcf	(96/8),(96)&7
  2597                           	line	232
  2598                           	
  2599  061A                     l9511:	
  2600                           ;primarymain.c: 232: GIE = 1;
  2601  061A  178B               	bsf	(95/8),(95)&7
  2602                           	line	234
  2603                           	
  2604  061B                     l9513:	
  2605                           ;primarymain.c: 234: TRISB = 0b11110111;
  2606  061B  30F7               	movlw	(0F7h)
  2607  061C  1683               	bsf	status, 5	;RP0=1, select bank1
  2608  061D  1303               	bcf	status, 6	;RP1=0, select bank1
  2609  061E  0086               	movwf	(134)^080h	;volatile
  2610                           	line	235
  2611                           	
  2612  061F                     l9515:	
  2613                           ;primarymain.c: 235: PORTBbits.RB3 = 0;
  2614  061F  1283               	bcf	status, 5	;RP0=0, select bank0
  2615  0620  1303               	bcf	status, 6	;RP1=0, select bank0
  2616  0621  1186               	bcf	(6),3	;volatile
  2617                           	line	237
  2618                           	
  2619  0622                     l9517:	
  2620                           ;primarymain.c: 237: TRISD = 0;
  2621  0622  1683               	bsf	status, 5	;RP0=1, select bank1
  2622  0623  1303               	bcf	status, 6	;RP1=0, select bank1
  2623  0624  0188               	clrf	(136)^080h	;volatile
  2624                           	line	238
  2625                           	
  2626  0625                     l1562:	
  2627  0625  0008               	return
  2628                           	opt stack 0
  2629                           GLOBAL	__end_of_Initialise
  2630  0626                     	__end_of_Initialise:
  2631 ;; =============== function _Initialise ends ============
  2632                           
  2633                           	signat	_Initialise,88
  2634                           	global	___fttol
  2635                           psect	text498,local,class=CODE,delta=2
  2636                           global __ptext498
  2637  03B2                     __ptext498:
  2638                           
  2639 ;; *************** function ___fttol *****************
  2640 ;; Defined at:
  2641 ;;		line 45 in file "C:\Program Files (x86)\HI-TECH Software\PICC\9.83\sources\fttol.c"
  2642 ;; Parameters:    Size  Location     Type
  2643 ;;  f1              3    8[BANK0 ] float 
  2644 ;; Auto vars:     Size  Location     Type
  2645 ;;  lval            4   17[BANK0 ] unsigned long 
  2646 ;;  exp1            1   21[BANK0 ] unsigned char 
  2647 ;;  sign1           1   16[BANK0 ] unsigned char 
  2648 ;; Return value:  Size  Location     Type
  2649 ;;                  4    8[BANK0 ] long 
  2650 ;; Registers used:
  2651 ;;		wreg, status,2, status,0
  2652 ;; Tracked objects:
  2653 ;;		On entry : 0/0
  2654 ;;		On exit  : 0/0
  2655 ;;		Unchanged: 0/0
  2656 ;; Data sizes:     COMMON   BANK0  BANK1h  BANK1l   BANK3   BANK2
  2657 ;;      Params:         0       4       0       0       0       0
  2658 ;;      Locals:         0       6       0       0       0       0
  2659 ;;      Temps:          0       4       0       0       0       0
  2660 ;;      Totals:         0      14       0       0       0       0
  2661 ;;Total ram usage:       14 bytes
  2662 ;; Hardware stack levels used:    1
  2663 ;; Hardware stack levels required when called:    3
  2664 ;; This function calls:
  2665 ;;		Nothing
  2666 ;; This function is called by:
  2667 ;;		_main
  2668 ;; This function uses a non-reentrant model
  2669 ;;
  2670                           psect	text498
  2671                           	file	"C:\Program Files (x86)\HI-TECH Software\PICC\9.83\sources\fttol.c"
  2672                           	line	45
  2673                           	global	__size_of___fttol
  2674  00A6                     	__size_of___fttol	equ	__end_of___fttol-___fttol
  2675                           	
  2676  03B2                     ___fttol:	
  2677                           	opt	stack 4
  2678                           ; Regs used in ___fttol: [wreg+status,2+status,0]
  2679                           	line	49
  2680                           	
  2681  03B2                     l9387:	
  2682  03B2  1283               	bcf	status, 5	;RP0=0, select bank0
  2683  03B3  1303               	bcf	status, 6	;RP1=0, select bank0
  2684  03B4  0828               	movf	(___fttol@f1),w
  2685  03B5  00AC               	movwf	((??___fttol+0)+0)
  2686  03B6  0829               	movf	(___fttol@f1+1),w
  2687  03B7  00AD               	movwf	((??___fttol+0)+0+1)
  2688  03B8  082A               	movf	(___fttol@f1+2),w
  2689  03B9  00AE               	movwf	((??___fttol+0)+0+2)
  2690  03BA  1003               	clrc
  2691  03BB  0D2D               	rlf	(??___fttol+0)+1,w
  2692  03BC  0D2E               	rlf	(??___fttol+0)+2,w
  2693  03BD  00AF               	movwf	(??___fttol+3)+0
  2694  03BE  082F               	movf	(??___fttol+3)+0,w
  2695  03BF  00B5               	movwf	(___fttol@exp1)
  2696  03C0  08B5               	movf	((___fttol@exp1)),f
  2697  03C1  1D03               	skipz
  2698  03C2  2BC4               	goto	u2911
  2699  03C3  2BC5               	goto	u2910
  2700  03C4                     u2911:
  2701  03C4  2BCF               	goto	l9393
  2702  03C5                     u2910:
  2703                           	line	50
  2704                           	
  2705  03C5                     l9389:	
  2706  03C5  3000               	movlw	0
  2707  03C6  00AB               	movwf	(?___fttol+3)
  2708  03C7  3000               	movlw	0
  2709  03C8  00AA               	movwf	(?___fttol+2)
  2710  03C9  3000               	movlw	0
  2711  03CA  00A9               	movwf	(?___fttol+1)
  2712  03CB  3000               	movlw	0
  2713  03CC  00A8               	movwf	(?___fttol)
  2714                           
  2715  03CD  2C57               	goto	l7679
  2716                           	
  2717  03CE                     l9391:	
  2718  03CE  2C57               	goto	l7679
  2719                           	
  2720  03CF                     l7678:	
  2721                           	line	51
  2722                           	
  2723  03CF                     l9393:	
  2724  03CF  0828               	movf	(___fttol@f1),w
  2725  03D0  00AC               	movwf	((??___fttol+0)+0)
  2726  03D1  0829               	movf	(___fttol@f1+1),w
  2727  03D2  00AD               	movwf	((??___fttol+0)+0+1)
  2728  03D3  082A               	movf	(___fttol@f1+2),w
  2729  03D4  00AE               	movwf	((??___fttol+0)+0+2)
  2730  03D5  3017               	movlw	017h
  2731  03D6                     u2925:
  2732  03D6  1003               	clrc
  2733  03D7  0CAE               	rrf	(??___fttol+0)+2,f
  2734  03D8  0CAD               	rrf	(??___fttol+0)+1,f
  2735  03D9  0CAC               	rrf	(??___fttol+0)+0,f
  2736  03DA                     u2920:
  2737  03DA  3EFF               	addlw	-1
  2738  03DB  1D03               	skipz
  2739  03DC  2BD6               	goto	u2925
  2740  03DD  082C               	movf	0+(??___fttol+0)+0,w
  2741  03DE  00AF               	movwf	(??___fttol+3)+0
  2742  03DF  082F               	movf	(??___fttol+3)+0,w
  2743  03E0  00B0               	movwf	(___fttol@sign1)
  2744                           	line	52
  2745                           	
  2746  03E1                     l9395:	
  2747  03E1  17A9               	bsf	(___fttol@f1)+(15/8),(15)&7
  2748                           	line	53
  2749                           	
  2750  03E2                     l9397:	
  2751  03E2  30FF               	movlw	0FFh
  2752  03E3  05A8               	andwf	(___fttol@f1),f
  2753  03E4  30FF               	movlw	0FFh
  2754  03E5  05A9               	andwf	(___fttol@f1+1),f
  2755  03E6  3000               	movlw	0
  2756  03E7  05AA               	andwf	(___fttol@f1+2),f
  2757                           	line	54
  2758                           	
  2759  03E8                     l9399:	
  2760  03E8  0828               	movf	(___fttol@f1),w
  2761  03E9  00B1               	movwf	(___fttol@lval)
  2762  03EA  0829               	movf	(___fttol@f1+1),w
  2763  03EB  00B2               	movwf	((___fttol@lval))+1
  2764  03EC  082A               	movf	(___fttol@f1+2),w
  2765  03ED  00B3               	movwf	((___fttol@lval))+2
  2766  03EE  01B4               	clrf	((___fttol@lval))+3
  2767                           	line	55
  2768                           	
  2769  03EF                     l9401:	
  2770  03EF  308E               	movlw	low(08Eh)
  2771  03F0  02B5               	subwf	(___fttol@exp1),f
  2772                           	line	56
  2773                           	
  2774  03F1                     l9403:	
  2775  03F1  1FB5               	btfss	(___fttol@exp1),7
  2776  03F2  2BF4               	goto	u2931
  2777  03F3  2BF5               	goto	u2930
  2778  03F4                     u2931:
  2779  03F4  2C1A               	goto	l9413
  2780  03F5                     u2930:
  2781                           	line	57
  2782                           	
  2783  03F5                     l9405:	
  2784  03F5  0835               	movf	(___fttol@exp1),w
  2785  03F6  3A80               	xorlw	80h
  2786  03F7  3E8F               	addlw	-((-15)^80h)
  2787  03F8  1803               	skipnc
  2788  03F9  2BFB               	goto	u2941
  2789  03FA  2BFC               	goto	u2940
  2790  03FB                     u2941:
  2791  03FB  2C07               	goto	l9411
  2792  03FC                     u2940:
  2793                           	line	58
  2794                           	
  2795  03FC                     l9407:	
  2796  03FC  3000               	movlw	0
  2797  03FD  00AB               	movwf	(?___fttol+3)
  2798  03FE  3000               	movlw	0
  2799  03FF  00AA               	movwf	(?___fttol+2)
  2800  0400  3000               	movlw	0
  2801  0401  00A9               	movwf	(?___fttol+1)
  2802  0402  3000               	movlw	0
  2803  0403  00A8               	movwf	(?___fttol)
  2804                           
  2805  0404  2C57               	goto	l7679
  2806                           	
  2807  0405                     l9409:	
  2808  0405  2C57               	goto	l7679
  2809                           	
  2810  0406                     l7681:	
  2811  0406  2C07               	goto	l9411
  2812                           	line	59
  2813                           	
  2814  0407                     l7682:	
  2815                           	line	60
  2816                           	
  2817  0407                     l9411:	
  2818  0407  3001               	movlw	01h
  2819  0408                     u2955:
  2820  0408  1003               	clrc
  2821  0409  0CB4               	rrf	(___fttol@lval+3),f
  2822  040A  0CB3               	rrf	(___fttol@lval+2),f
  2823  040B  0CB2               	rrf	(___fttol@lval+1),f
  2824  040C  0CB1               	rrf	(___fttol@lval),f
  2825  040D  3EFF               	addlw	-1
  2826  040E  1D03               	skipz
  2827  040F  2C08               	goto	u2955
  2828                           
  2829                           	line	61
  2830  0410  3001               	movlw	(01h)
  2831  0411  00AC               	movwf	(??___fttol+0)+0
  2832  0412  082C               	movf	(??___fttol+0)+0,w
  2833  0413  07B5               	addwf	(___fttol@exp1),f
  2834  0414  1D03               	btfss	status,2
  2835  0415  2C17               	goto	u2961
  2836  0416  2C18               	goto	u2960
  2837  0417                     u2961:
  2838  0417  2C07               	goto	l9411
  2839  0418                     u2960:
  2840  0418  2C3E               	goto	l9423
  2841                           	
  2842  0419                     l7683:	
  2843                           	line	62
  2844  0419  2C3E               	goto	l9423
  2845                           	
  2846  041A                     l7680:	
  2847                           	line	63
  2848                           	
  2849  041A                     l9413:	
  2850  041A  3018               	movlw	(018h)
  2851  041B  0235               	subwf	(___fttol@exp1),w
  2852  041C  1C03               	skipc
  2853  041D  2C1F               	goto	u2971
  2854  041E  2C20               	goto	u2970
  2855  041F                     u2971:
  2856  041F  2C37               	goto	l9421
  2857  0420                     u2970:
  2858                           	line	64
  2859                           	
  2860  0420                     l9415:	
  2861  0420  3000               	movlw	0
  2862  0421  00AB               	movwf	(?___fttol+3)
  2863  0422  3000               	movlw	0
  2864  0423  00AA               	movwf	(?___fttol+2)
  2865  0424  3000               	movlw	0
  2866  0425  00A9               	movwf	(?___fttol+1)
  2867  0426  3000               	movlw	0
  2868  0427  00A8               	movwf	(?___fttol)
  2869                           
  2870  0428  2C57               	goto	l7679
  2871                           	
  2872  0429                     l9417:	
  2873  0429  2C57               	goto	l7679
  2874                           	
  2875  042A                     l7685:	
  2876                           	line	65
  2877  042A  2C37               	goto	l9421
  2878                           	
  2879  042B                     l7687:	
  2880                           	line	66
  2881                           	
  2882  042B                     l9419:	
  2883  042B  3001               	movlw	01h
  2884  042C  00AC               	movwf	(??___fttol+0)+0
  2885  042D                     u2985:
  2886  042D  1003               	clrc
  2887  042E  0DB1               	rlf	(___fttol@lval),f
  2888  042F  0DB2               	rlf	(___fttol@lval+1),f
  2889  0430  0DB3               	rlf	(___fttol@lval+2),f
  2890  0431  0DB4               	rlf	(___fttol@lval+3),f
  2891  0432  0BAC               	decfsz	(??___fttol+0)+0
  2892  0433  2C2D               	goto	u2985
  2893                           	line	67
  2894  0434  3001               	movlw	low(01h)
  2895  0435  02B5               	subwf	(___fttol@exp1),f
  2896  0436  2C37               	goto	l9421
  2897                           	line	68
  2898                           	
  2899  0437                     l7686:	
  2900                           	line	65
  2901                           	
  2902  0437                     l9421:	
  2903  0437  08B5               	movf	(___fttol@exp1),f
  2904  0438  1D03               	skipz
  2905  0439  2C3B               	goto	u2991
  2906  043A  2C3C               	goto	u2990
  2907  043B                     u2991:
  2908  043B  2C2B               	goto	l9419
  2909  043C                     u2990:
  2910  043C  2C3E               	goto	l9423
  2911                           	
  2912  043D                     l7688:	
  2913  043D  2C3E               	goto	l9423
  2914                           	line	69
  2915                           	
  2916  043E                     l7684:	
  2917                           	line	70
  2918                           	
  2919  043E                     l9423:	
  2920  043E  0830               	movf	(___fttol@sign1),w
  2921  043F  1D03               	skipz
  2922  0440  2C42               	goto	u3000
  2923  0441  2C4E               	goto	l9427
  2924  0442                     u3000:
  2925                           	line	71
  2926                           	
  2927  0442                     l9425:	
  2928  0442  09B1               	comf	(___fttol@lval),f
  2929  0443  09B2               	comf	(___fttol@lval+1),f
  2930  0444  09B3               	comf	(___fttol@lval+2),f
  2931  0445  09B4               	comf	(___fttol@lval+3),f
  2932  0446  0AB1               	incf	(___fttol@lval),f
  2933  0447  1903               	skipnz
  2934  0448  0AB2               	incf	(___fttol@lval+1),f
  2935  0449  1903               	skipnz
  2936  044A  0AB3               	incf	(___fttol@lval+2),f
  2937  044B  1903               	skipnz
  2938  044C  0AB4               	incf	(___fttol@lval+3),f
  2939  044D  2C4E               	goto	l9427
  2940                           	
  2941  044E                     l7689:	
  2942                           	line	72
  2943                           	
  2944  044E                     l9427:	
  2945  044E  0834               	movf	(___fttol@lval+3),w
  2946  044F  00AB               	movwf	(?___fttol+3)
  2947  0450  0833               	movf	(___fttol@lval+2),w
  2948  0451  00AA               	movwf	(?___fttol+2)
  2949  0452  0832               	movf	(___fttol@lval+1),w
  2950  0453  00A9               	movwf	(?___fttol+1)
  2951  0454  0831               	movf	(___fttol@lval),w
  2952  0455  00A8               	movwf	(?___fttol)
  2953                           
  2954  0456  2C57               	goto	l7679
  2955                           	
  2956  0457                     l9429:	
  2957                           	line	73
  2958                           	
  2959  0457                     l7679:	
  2960  0457  0008               	return
  2961                           	opt stack 0
  2962                           GLOBAL	__end_of___fttol
  2963  0458                     	__end_of___fttol:
  2964 ;; =============== function ___fttol ends ============
  2965                           
  2966                           	signat	___fttol,4220
  2967                           	global	___ftpack
  2968                           psect	text499,local,class=CODE,delta=2
  2969                           global __ptext499
  2970  04DF                     __ptext499:
  2971                           
  2972 ;; *************** function ___ftpack *****************
  2973 ;; Defined at:
  2974 ;;		line 63 in file "C:\Program Files (x86)\HI-TECH Software\PICC\9.83\sources\float.c"
  2975 ;; Parameters:    Size  Location     Type
  2976 ;;  arg             3    0[BANK0 ] unsigned um
  2977 ;;  exp             1    3[BANK0 ] unsigned char 
  2978 ;;  sign            1    4[BANK0 ] unsigned char 
  2979 ;; Auto vars:     Size  Location     Type
  2980 ;;		None
  2981 ;; Return value:  Size  Location     Type
  2982 ;;                  3    0[BANK0 ] float 
  2983 ;; Registers used:
  2984 ;;		wreg, status,2, status,0
  2985 ;; Tracked objects:
  2986 ;;		On entry : 0/0
  2987 ;;		On exit  : 0/0
  2988 ;;		Unchanged: 0/0
  2989 ;; Data sizes:     COMMON   BANK0  BANK1h  BANK1l   BANK3   BANK2
  2990 ;;      Params:         0       5       0       0       0       0
  2991 ;;      Locals:         0       0       0       0       0       0
  2992 ;;      Temps:          0       3       0       0       0       0
  2993 ;;      Totals:         0       8       0       0       0       0
  2994 ;;Total ram usage:        8 bytes
  2995 ;; Hardware stack levels used:    1
  2996 ;; Hardware stack levels required when called:    3
  2997 ;; This function calls:
  2998 ;;		Nothing
  2999 ;; This function is called by:
  3000 ;;		___ftadd
  3001 ;;		___ftmul
  3002 ;;		___awtoft
  3003 ;;		___ftdiv
  3004 ;;		___lbtoft
  3005 ;;		___abtoft
  3006 ;;		___lwtoft
  3007 ;;		___altoft
  3008 ;;		___lltoft
  3009 ;;		___attoft
  3010 ;;		___lttoft
  3011 ;; This function uses a non-reentrant model
  3012 ;;
  3013                           psect	text499
  3014                           	file	"C:\Program Files (x86)\HI-TECH Software\PICC\9.83\sources\float.c"
  3015                           	line	63
  3016                           	global	__size_of___ftpack
  3017  007D                     	__size_of___ftpack	equ	__end_of___ftpack-___ftpack
  3018                           	
  3019  04DF                     ___ftpack:	
  3020                           	opt	stack 3
  3021                           ; Regs used in ___ftpack: [wreg+status,2+status,0]
  3022                           	line	64
  3023                           	
  3024  04DF                     l9313:	
  3025  04DF  1283               	bcf	status, 5	;RP0=0, select bank0
  3026  04E0  1303               	bcf	status, 6	;RP1=0, select bank0
  3027  04E1  0823               	movf	(___ftpack@exp),w
  3028  04E2  1D03               	skipz
  3029  04E3  2CE5               	goto	u2720
  3030  04E4  2CED               	goto	l9317
  3031  04E5                     u2720:
  3032                           	
  3033  04E5                     l9315:	
  3034  04E5  0822               	movf	(___ftpack@arg+2),w
  3035  04E6  0421               	iorwf	(___ftpack@arg+1),w
  3036  04E7  0420               	iorwf	(___ftpack@arg),w
  3037  04E8  1D03               	skipz
  3038  04E9  2CEB               	goto	u2731
  3039  04EA  2CEC               	goto	u2730
  3040  04EB                     u2731:
  3041  04EB  2D03               	goto	l9323
  3042  04EC                     u2730:
  3043  04EC  2CED               	goto	l9317
  3044                           	
  3045  04ED                     l7903:	
  3046                           	line	65
  3047                           	
  3048  04ED                     l9317:	
  3049  04ED  3000               	movlw	0x0
  3050  04EE  00A0               	movwf	(?___ftpack)
  3051  04EF  3000               	movlw	0x0
  3052  04F0  00A1               	movwf	(?___ftpack+1)
  3053  04F1  3000               	movlw	0x0
  3054  04F2  00A2               	movwf	(?___ftpack+2)
  3055  04F3  2D5B               	goto	l7904
  3056                           	
  3057  04F4                     l9319:	
  3058  04F4  2D5B               	goto	l7904
  3059                           	
  3060  04F5                     l7901:	
  3061                           	line	66
  3062  04F5  2D03               	goto	l9323
  3063                           	
  3064  04F6                     l7906:	
  3065                           	line	67
  3066                           	
  3067  04F6                     l9321:	
  3068  04F6  3001               	movlw	(01h)
  3069  04F7  00A5               	movwf	(??___ftpack+0)+0
  3070  04F8  0825               	movf	(??___ftpack+0)+0,w
  3071  04F9  07A3               	addwf	(___ftpack@exp),f
  3072                           	line	68
  3073  04FA  3001               	movlw	01h
  3074  04FB                     u2745:
  3075  04FB  1003               	clrc
  3076  04FC  0CA2               	rrf	(___ftpack@arg+2),f
  3077  04FD  0CA1               	rrf	(___ftpack@arg+1),f
  3078  04FE  0CA0               	rrf	(___ftpack@arg),f
  3079  04FF  3EFF               	addlw	-1
  3080  0500  1D03               	skipz
  3081  0501  2CFB               	goto	u2745
  3082                           
  3083  0502  2D03               	goto	l9323
  3084                           	line	69
  3085                           	
  3086  0503                     l7905:	
  3087                           	line	66
  3088                           	
  3089  0503                     l9323:	
  3090  0503  30FE               	movlw	low highword(0FE0000h)
  3091  0504  0522               	andwf	(___ftpack@arg+2),w
  3092  0505  1D03               	btfss	status,2
  3093  0506  2D08               	goto	u2751
  3094  0507  2D09               	goto	u2750
  3095  0508                     u2751:
  3096  0508  2CF6               	goto	l9321
  3097  0509                     u2750:
  3098  0509  2D21               	goto	l7908
  3099                           	
  3100  050A                     l7907:	
  3101                           	line	70
  3102  050A  2D21               	goto	l7908
  3103                           	
  3104  050B                     l7909:	
  3105                           	line	71
  3106                           	
  3107  050B                     l9325:	
  3108  050B  3001               	movlw	(01h)
  3109  050C  00A5               	movwf	(??___ftpack+0)+0
  3110  050D  0825               	movf	(??___ftpack+0)+0,w
  3111  050E  07A3               	addwf	(___ftpack@exp),f
  3112                           	line	72
  3113                           	
  3114  050F                     l9327:	
  3115  050F  3001               	movlw	01h
  3116  0510  07A0               	addwf	(___ftpack@arg),f
  3117  0511  3000               	movlw	0
  3118  0512  1803               	skipnc
  3119  0513  3001               movlw 1
  3120  0514  07A1               	addwf	(___ftpack@arg+1),f
  3121  0515  3000               	movlw	0
  3122  0516  1803               	skipnc
  3123  0517  3001               movlw 1
  3124  0518  07A2               	addwf	(___ftpack@arg+2),f
  3125                           	line	73
  3126                           	
  3127  0519                     l9329:	
  3128  0519  3001               	movlw	01h
  3129  051A                     u2765:
  3130  051A  1003               	clrc
  3131  051B  0CA2               	rrf	(___ftpack@arg+2),f
  3132  051C  0CA1               	rrf	(___ftpack@arg+1),f
  3133  051D  0CA0               	rrf	(___ftpack@arg),f
  3134  051E  3EFF               	addlw	-1
  3135  051F  1D03               	skipz
  3136  0520  2D1A               	goto	u2765
  3137                           
  3138                           	line	74
  3139                           	
  3140  0521                     l7908:	
  3141                           	line	70
  3142  0521  30FF               	movlw	low highword(0FF0000h)
  3143  0522  0522               	andwf	(___ftpack@arg+2),w
  3144  0523  1D03               	btfss	status,2
  3145  0524  2D26               	goto	u2771
  3146  0525  2D27               	goto	u2770
  3147  0526                     u2771:
  3148  0526  2D0B               	goto	l9325
  3149  0527                     u2770:
  3150  0527  2D34               	goto	l9333
  3151                           	
  3152  0528                     l7910:	
  3153                           	line	75
  3154  0528  2D34               	goto	l9333
  3155                           	
  3156  0529                     l7912:	
  3157                           	line	76
  3158                           	
  3159  0529                     l9331:	
  3160  0529  3001               	movlw	low(01h)
  3161  052A  02A3               	subwf	(___ftpack@exp),f
  3162                           	line	77
  3163  052B  3001               	movlw	01h
  3164  052C                     u2785:
  3165  052C  1003               	clrc
  3166  052D  0DA0               	rlf	(___ftpack@arg),f
  3167  052E  0DA1               	rlf	(___ftpack@arg+1),f
  3168  052F  0DA2               	rlf	(___ftpack@arg+2),f
  3169  0530  3EFF               	addlw	-1
  3170  0531  1D03               	skipz
  3171  0532  2D2C               	goto	u2785
  3172  0533  2D34               	goto	l9333
  3173                           	line	78
  3174                           	
  3175  0534                     l7911:	
  3176                           	line	75
  3177                           	
  3178  0534                     l9333:	
  3179  0534  1FA1               	btfss	(___ftpack@arg+1),(15)&7
  3180  0535  2D37               	goto	u2791
  3181  0536  2D38               	goto	u2790
  3182  0537                     u2791:
  3183  0537  2D29               	goto	l9331
  3184  0538                     u2790:
  3185                           	
  3186  0538                     l7913:	
  3187                           	line	79
  3188  0538  1823               	btfsc	(___ftpack@exp),(0)&7
  3189  0539  2D3B               	goto	u2801
  3190  053A  2D3C               	goto	u2800
  3191  053B                     u2801:
  3192  053B  2D42               	goto	l7914
  3193  053C                     u2800:
  3194                           	line	80
  3195                           	
  3196  053C                     l9335:	
  3197  053C  30FF               	movlw	0FFh
  3198  053D  05A0               	andwf	(___ftpack@arg),f
  3199  053E  307F               	movlw	07Fh
  3200  053F  05A1               	andwf	(___ftpack@arg+1),f
  3201  0540  30FF               	movlw	0FFh
  3202  0541  05A2               	andwf	(___ftpack@arg+2),f
  3203                           	
  3204  0542                     l7914:	
  3205                           	line	81
  3206  0542  1003               	clrc
  3207  0543  0CA3               	rrf	(___ftpack@exp),f
  3208                           
  3209                           	line	82
  3210                           	
  3211  0544                     l9337:	
  3212  0544  0823               	movf	(___ftpack@exp),w
  3213  0545  00A5               	movwf	((??___ftpack+0)+0)
  3214  0546  01A6               	clrf	((??___ftpack+0)+0+1)
  3215  0547  01A7               	clrf	((??___ftpack+0)+0+2)
  3216  0548  3010               	movlw	010h
  3217  0549                     u2815:
  3218  0549  1003               	clrc
  3219  054A  0DA5               	rlf	(??___ftpack+0)+0,f
  3220  054B  0DA6               	rlf	(??___ftpack+0)+1,f
  3221  054C  0DA7               	rlf	(??___ftpack+0)+2,f
  3222  054D                     u2810:
  3223  054D  3EFF               	addlw	-1
  3224  054E  1D03               	skipz
  3225  054F  2D49               	goto	u2815
  3226  0550  0825               	movf	0+(??___ftpack+0)+0,w
  3227  0551  04A0               	iorwf	(___ftpack@arg),f
  3228  0552  0826               	movf	1+(??___ftpack+0)+0,w
  3229  0553  04A1               	iorwf	(___ftpack@arg+1),f
  3230  0554  0827               	movf	2+(??___ftpack+0)+0,w
  3231  0555  04A2               	iorwf	(___ftpack@arg+2),f
  3232                           	line	83
  3233                           	
  3234  0556                     l9339:	
  3235  0556  0824               	movf	(___ftpack@sign),w
  3236  0557  1D03               	skipz
  3237  0558  2D5A               	goto	u2820
  3238  0559  2D5B               	goto	l7915
  3239  055A                     u2820:
  3240                           	line	84
  3241                           	
  3242  055A                     l9341:	
  3243  055A  17A2               	bsf	(___ftpack@arg)+(23/8),(23)&7
  3244                           	
  3245  055B                     l7915:	
  3246                           	line	85
  3247                           	line	86
  3248                           	
  3249  055B                     l7904:	
  3250  055B  0008               	return
  3251                           	opt stack 0
  3252                           GLOBAL	__end_of___ftpack
  3253  055C                     	__end_of___ftpack:
  3254 ;; =============== function ___ftpack ends ============
  3255                           
  3256                           	signat	___ftpack,12411
  3257                           	global	_i2cInit
  3258                           psect	text500,local,class=CODE,delta=2
  3259                           global __ptext500
  3260  06DC                     __ptext500:
  3261                           
  3262 ;; *************** function _i2cInit *****************
  3263 ;; Defined at:
  3264 ;;		line 17 in file "i2cSlave.c"
  3265 ;; Parameters:    Size  Location     Type
  3266 ;;  address         1    wreg     unsigned char 
  3267 ;; Auto vars:     Size  Location     Type
  3268 ;;  address         1    0[BANK0 ] unsigned char 
  3269 ;; Return value:  Size  Location     Type
  3270 ;;		None               void
  3271 ;; Registers used:
  3272 ;;		wreg
  3273 ;; Tracked objects:
  3274 ;;		On entry : 0/0
  3275 ;;		On exit  : 0/0
  3276 ;;		Unchanged: 0/0
  3277 ;; Data sizes:     COMMON   BANK0  BANK1h  BANK1l   BANK3   BANK2
  3278 ;;      Params:         0       0       0       0       0       0
  3279 ;;      Locals:         0       1       0       0       0       0
  3280 ;;      Temps:          0       0       0       0       0       0
  3281 ;;      Totals:         0       1       0       0       0       0
  3282 ;;Total ram usage:        1 bytes
  3283 ;; Hardware stack levels used:    1
  3284 ;; Hardware stack levels required when called:    3
  3285 ;; This function calls:
  3286 ;;		Nothing
  3287 ;; This function is called by:
  3288 ;;		_Initialise
  3289 ;; This function uses a non-reentrant model
  3290 ;;
  3291                           psect	text500
  3292                           	file	"i2cSlave.c"
  3293                           	line	17
  3294                           	global	__size_of_i2cInit
  3295  001C                     	__size_of_i2cInit	equ	__end_of_i2cInit-_i2cInit
  3296                           	
  3297  06DC                     _i2cInit:	
  3298                           	opt	stack 3
  3299                           ; Regs used in _i2cInit: [wreg]
  3300                           ;i2cInit@address stored from wreg
  3301                           	line	19
  3302  06DC  1283               	bcf	status, 5	;RP0=0, select bank0
  3303  06DD  1303               	bcf	status, 6	;RP1=0, select bank0
  3304  06DE  00A0               	movwf	(i2cInit@address)
  3305                           	
  3306  06DF                     l9221:	
  3307                           ;i2cSlave.c: 19: TRISC6 = 1;
  3308  06DF  1683               	bsf	status, 5	;RP0=1, select bank1
  3309  06E0  1303               	bcf	status, 6	;RP1=0, select bank1
  3310  06E1  1707               	bsf	(1086/8)^080h,(1086)&7
  3311                           	line	20
  3312                           ;i2cSlave.c: 20: TRISC7 = 1;
  3313  06E2  1787               	bsf	(1087/8)^080h,(1087)&7
  3314                           	line	21
  3315                           ;i2cSlave.c: 21: SSPEN = 1;
  3316  06E3  1283               	bcf	status, 5	;RP0=0, select bank0
  3317  06E4  1303               	bcf	status, 6	;RP1=0, select bank0
  3318  06E5  1694               	bsf	(165/8),(165)&7
  3319                           	line	22
  3320                           ;i2cSlave.c: 22: CKE = 0;
  3321  06E6  1683               	bsf	status, 5	;RP0=1, select bank1
  3322  06E7  1303               	bcf	status, 6	;RP1=0, select bank1
  3323  06E8  1314               	bcf	(1190/8)^080h,(1190)&7
  3324                           	line	23
  3325                           ;i2cSlave.c: 23: SMP = 0;
  3326  06E9  1394               	bcf	(1191/8)^080h,(1191)&7
  3327                           	line	24
  3328                           ;i2cSlave.c: 24: CKP = 1;
  3329  06EA  1283               	bcf	status, 5	;RP0=0, select bank0
  3330  06EB  1303               	bcf	status, 6	;RP1=0, select bank0
  3331  06EC  1614               	bsf	(164/8),(164)&7
  3332                           	line	26
  3333                           ;i2cSlave.c: 26: SSPM0 = 0;
  3334  06ED  1014               	bcf	(160/8),(160)&7
  3335                           	line	27
  3336                           ;i2cSlave.c: 27: SSPM1 = 1;
  3337  06EE  1494               	bsf	(161/8),(161)&7
  3338                           	line	28
  3339                           ;i2cSlave.c: 28: SSPM2 = 1;
  3340  06EF  1514               	bsf	(162/8),(162)&7
  3341                           	line	29
  3342                           ;i2cSlave.c: 29: SSPM3 = 0;
  3343  06F0  1194               	bcf	(163/8),(163)&7
  3344                           	line	33
  3345                           	
  3346  06F1                     l9223:	
  3347                           ;i2cSlave.c: 33: SSPADD = address;
  3348  06F1  0820               	movf	(i2cInit@address),w
  3349  06F2  1683               	bsf	status, 5	;RP0=1, select bank1
  3350  06F3  1303               	bcf	status, 6	;RP1=0, select bank1
  3351  06F4  0093               	movwf	(147)^080h	;volatile
  3352                           	line	39
  3353                           	
  3354  06F5                     l9225:	
  3355                           ;i2cSlave.c: 39: i2cBufferVal = 0;
  3356  06F5  01FA               	clrf	(_i2cBufferVal)
  3357                           	line	40
  3358                           	
  3359  06F6                     l9227:	
  3360                           ;i2cSlave.c: 40: i2cWriteInt = 0;
  3361  06F6  01FC               	clrf	(_i2cWriteInt)
  3362                           	line	41
  3363                           	
  3364  06F7                     l6108:	
  3365  06F7  0008               	return
  3366                           	opt stack 0
  3367                           GLOBAL	__end_of_i2cInit
  3368  06F8                     	__end_of_i2cInit:
  3369 ;; =============== function _i2cInit ends ============
  3370                           
  3371                           	signat	_i2cInit,4216
  3372                           	global	_BeginEncoder
  3373                           psect	text501,local,class=CODE,delta=2
  3374                           global __ptext501
  3375  0732                     __ptext501:
  3376                           
  3377 ;; *************** function _BeginEncoder *****************
  3378 ;; Defined at:
  3379 ;;		line 22 in file "enclib.c"
  3380 ;; Parameters:    Size  Location     Type
  3381 ;;		None
  3382 ;; Auto vars:     Size  Location     Type
  3383 ;;		None
  3384 ;; Return value:  Size  Location     Type
  3385 ;;		None               void
  3386 ;; Registers used:
  3387 ;;		wreg
  3388 ;; Tracked objects:
  3389 ;;		On entry : 0/0
  3390 ;;		On exit  : 0/0
  3391 ;;		Unchanged: 0/0
  3392 ;; Data sizes:     COMMON   BANK0  BANK1h  BANK1l   BANK3   BANK2
  3393 ;;      Params:         0       0       0       0       0       0
  3394 ;;      Locals:         0       0       0       0       0       0
  3395 ;;      Temps:          0       0       0       0       0       0
  3396 ;;      Totals:         0       0       0       0       0       0
  3397 ;;Total ram usage:        0 bytes
  3398 ;; Hardware stack levels used:    1
  3399 ;; Hardware stack levels required when called:    3
  3400 ;; This function calls:
  3401 ;;		Nothing
  3402 ;; This function is called by:
  3403 ;;		_Initialise
  3404 ;; This function uses a non-reentrant model
  3405 ;;
  3406                           psect	text501
  3407                           	file	"enclib.c"
  3408                           	line	22
  3409                           	global	__size_of_BeginEncoder
  3410  000B                     	__size_of_BeginEncoder	equ	__end_of_BeginEncoder-_BeginEncoder
  3411                           	
  3412  0732                     _BeginEncoder:	
  3413                           	opt	stack 3
  3414                           ; Regs used in _BeginEncoder: [wreg]
  3415                           	line	28
  3416                           	
  3417  0732                     l9219:	
  3418                           ;enclib.c: 28: OPTION_REG = 0b10010111;
  3419  0732  3097               	movlw	(097h)
  3420  0733  1683               	bsf	status, 5	;RP0=1, select bank1
  3421  0734  1303               	bcf	status, 6	;RP1=0, select bank1
  3422  0735  0081               	movwf	(129)^080h	;volatile
  3423                           	line	34
  3424                           ;enclib.c: 34: CMCON1 = 0x02;
  3425  0736  3002               	movlw	(02h)
  3426  0737  0097               	movwf	(151)^080h	;volatile
  3427                           	line	35
  3428                           ;enclib.c: 35: T1CON = 0b00000111;
  3429  0738  3007               	movlw	(07h)
  3430  0739  1283               	bcf	status, 5	;RP0=0, select bank0
  3431  073A  1303               	bcf	status, 6	;RP1=0, select bank0
  3432  073B  0090               	movwf	(16)	;volatile
  3433                           	line	36
  3434                           	
  3435  073C                     l4598:	
  3436  073C  0008               	return
  3437                           	opt stack 0
  3438                           GLOBAL	__end_of_BeginEncoder
  3439  073D                     	__end_of_BeginEncoder:
  3440 ;; =============== function _BeginEncoder ends ============
  3441                           
  3442                           	signat	_BeginEncoder,88
  3443                           	global	_BeginPWM
  3444                           psect	text502,local,class=CODE,delta=2
  3445                           global __ptext502
  3446  06BE                     __ptext502:
  3447                           
  3448 ;; *************** function _BeginPWM *****************
  3449 ;; Defined at:
  3450 ;;		line 41 in file "pwmlib.c"
  3451 ;; Parameters:    Size  Location     Type
  3452 ;;		None
  3453 ;; Auto vars:     Size  Location     Type
  3454 ;;		None
  3455 ;; Return value:  Size  Location     Type
  3456 ;;		None               void
  3457 ;; Registers used:
  3458 ;;		wreg, status,2
  3459 ;; Tracked objects:
  3460 ;;		On entry : 0/0
  3461 ;;		On exit  : 0/0
  3462 ;;		Unchanged: 0/0
  3463 ;; Data sizes:     COMMON   BANK0  BANK1h  BANK1l   BANK3   BANK2
  3464 ;;      Params:         0       0       0       0       0       0
  3465 ;;      Locals:         0       0       0       0       0       0
  3466 ;;      Temps:          0       0       0       0       0       0
  3467 ;;      Totals:         0       0       0       0       0       0
  3468 ;;Total ram usage:        0 bytes
  3469 ;; Hardware stack levels used:    1
  3470 ;; Hardware stack levels required when called:    3
  3471 ;; This function calls:
  3472 ;;		Nothing
  3473 ;; This function is called by:
  3474 ;;		_Initialise
  3475 ;; This function uses a non-reentrant model
  3476 ;;
  3477                           psect	text502
  3478                           	file	"pwmlib.c"
  3479                           	line	41
  3480                           	global	__size_of_BeginPWM
  3481  001E                     	__size_of_BeginPWM	equ	__end_of_BeginPWM-_BeginPWM
  3482                           	
  3483  06BE                     _BeginPWM:	
  3484                           	opt	stack 3
  3485                           ; Regs used in _BeginPWM: [wreg+status,2]
  3486                           	line	44
  3487                           	
  3488  06BE                     l9201:	
  3489                           ;pwmlib.c: 44: TRISDbits.TRISD2 = 1;
  3490  06BE  1683               	bsf	status, 5	;RP0=1, select bank1
  3491  06BF  1303               	bcf	status, 6	;RP1=0, select bank1
  3492  06C0  1508               	bsf	(136)^080h,2	;volatile
  3493                           	line	47
  3494                           ;pwmlib.c: 47: PIE1bits.TMR2IE = 0;
  3495  06C1  108C               	bcf	(140)^080h,1	;volatile
  3496                           	line	51
  3497                           	
  3498  06C2                     l9203:	
  3499                           ;pwmlib.c: 51: PR2 = 0xFF;
  3500  06C2  30FF               	movlw	(0FFh)
  3501  06C3  0092               	movwf	(146)^080h	;volatile
  3502                           	line	55
  3503                           ;pwmlib.c: 55: CCP2CON = 0b00001100;
  3504  06C4  300C               	movlw	(0Ch)
  3505  06C5  1283               	bcf	status, 5	;RP0=0, select bank0
  3506  06C6  1303               	bcf	status, 6	;RP1=0, select bank0
  3507  06C7  009D               	movwf	(29)	;volatile
  3508                           	line	59
  3509                           	
  3510  06C8                     l9205:	
  3511                           ;pwmlib.c: 59: CCPR2L = 0;
  3512  06C8  019B               	clrf	(27)	;volatile
  3513                           	line	60
  3514                           	
  3515  06C9                     l9207:	
  3516                           ;pwmlib.c: 60: CCP2CONbits.CCP2X = 0;
  3517  06C9  129D               	bcf	(29),5	;volatile
  3518                           	line	61
  3519                           	
  3520  06CA                     l9209:	
  3521                           ;pwmlib.c: 61: CCP2CONbits.CCP2Y = 0;
  3522  06CA  121D               	bcf	(29),4	;volatile
  3523                           	line	66
  3524                           	
  3525  06CB                     l9211:	
  3526                           ;pwmlib.c: 66: PIR1bits.TMR2IF = 0;
  3527  06CB  108C               	bcf	(12),1	;volatile
  3528                           	line	70
  3529                           	
  3530  06CC                     l9213:	
  3531                           ;pwmlib.c: 70: T2CON = 0b00000100;
  3532  06CC  3004               	movlw	(04h)
  3533  06CD  0092               	movwf	(18)	;volatile
  3534  06CE  2ECF               	goto	l9215
  3535                           	line	75
  3536                           ;pwmlib.c: 75: while(1)
  3537                           	
  3538  06CF                     l3092:	
  3539                           	line	77
  3540                           	
  3541  06CF                     l9215:	
  3542                           ;pwmlib.c: 76: {
  3543                           ;pwmlib.c: 77: if(PIR1bits.TMR2IF == 1)
  3544  06CF  1283               	bcf	status, 5	;RP0=0, select bank0
  3545  06D0  1C8C               	btfss	(12),1	;volatile
  3546  06D1  2ED3               	goto	u2581
  3547  06D2  2ED4               	goto	u2580
  3548  06D3                     u2581:
  3549  06D3  2ECF               	goto	l9215
  3550  06D4                     u2580:
  3551                           	line	79
  3552                           	
  3553  06D4                     l9217:	
  3554                           ;pwmlib.c: 78: {
  3555                           ;pwmlib.c: 79: TMR2IF = 0;
  3556  06D4  108C               	bcf	(97/8),(97)&7
  3557                           	line	80
  3558                           ;pwmlib.c: 80: TRISDbits.TRISD2 = 0;
  3559  06D5  1683               	bsf	status, 5	;RP0=1, select bank1
  3560  06D6  1303               	bcf	status, 6	;RP1=0, select bank1
  3561  06D7  1108               	bcf	(136)^080h,2	;volatile
  3562                           	line	81
  3563                           ;pwmlib.c: 81: break;
  3564  06D8  2EDB               	goto	l3096
  3565                           	line	82
  3566                           	
  3567  06D9                     l3093:	
  3568  06D9  2ECF               	goto	l9215
  3569                           	line	83
  3570                           	
  3571  06DA                     l3095:	
  3572                           	line	75
  3573  06DA  2ECF               	goto	l9215
  3574                           	
  3575  06DB                     l3094:	
  3576                           	line	84
  3577                           	
  3578  06DB                     l3096:	
  3579  06DB  0008               	return
  3580                           	opt stack 0
  3581                           GLOBAL	__end_of_BeginPWM
  3582  06DC                     	__end_of_BeginPWM:
  3583 ;; =============== function _BeginPWM ends ============
  3584                           
  3585                           	signat	_BeginPWM,88
  3586                           	global	_UpdateData
  3587                           psect	text503,local,class=CODE,delta=2
  3588                           global __ptext503
  3589  067A                     __ptext503:
  3590                           
  3591 ;; *************** function _UpdateData *****************
  3592 ;; Defined at:
  3593 ;;		line 288 in file "primarymain.c"
  3594 ;; Parameters:    Size  Location     Type
  3595 ;;  c               2    0[BANK0 ] int 
  3596 ;; Auto vars:     Size  Location     Type
  3597 ;;		None
  3598 ;; Return value:  Size  Location     Type
  3599 ;;		None               void
  3600 ;; Registers used:
  3601 ;;		wreg, status,2, status,0
  3602 ;; Tracked objects:
  3603 ;;		On entry : 0/0
  3604 ;;		On exit  : 0/0
  3605 ;;		Unchanged: 0/0
  3606 ;; Data sizes:     COMMON   BANK0  BANK1h  BANK1l   BANK3   BANK2
  3607 ;;      Params:         0       2       0       0       0       0
  3608 ;;      Locals:         0       0       0       0       0       0
  3609 ;;      Temps:          0       0       0       0       0       0
  3610 ;;      Totals:         0       2       0       0       0       0
  3611 ;;Total ram usage:        2 bytes
  3612 ;; Hardware stack levels used:    1
  3613 ;; Hardware stack levels required when called:    3
  3614 ;; This function calls:
  3615 ;;		Nothing
  3616 ;; This function is called by:
  3617 ;;		_main
  3618 ;; This function uses a non-reentrant model
  3619 ;;
  3620                           psect	text503
  3621                           	file	"primarymain.c"
  3622                           	line	288
  3623                           	global	__size_of_UpdateData
  3624  0024                     	__size_of_UpdateData	equ	__end_of_UpdateData-_UpdateData
  3625                           	
  3626  067A                     _UpdateData:	
  3627                           	opt	stack 4
  3628                           ; Regs used in _UpdateData: [wreg+status,2+status,0]
  3629                           	line	292
  3630                           	
  3631  067A                     l9195:	
  3632                           ;primarymain.c: 292: if (DIR_READ == 0)
  3633  067A  1283               	bcf	status, 5	;RP0=0, select bank0
  3634  067B  1303               	bcf	status, 6	;RP1=0, select bank0
  3635  067C  086A               	movf	((_DIR_READ+1)),w
  3636  067D  0469               	iorwf	((_DIR_READ)),w
  3637  067E  1D03               	skipz
  3638  067F  2E81               	goto	u2571
  3639  0680  2E82               	goto	u2570
  3640  0681                     u2571:
  3641  0681  2E8F               	goto	l9199
  3642  0682                     u2570:
  3643                           	line	294
  3644                           	
  3645  0682                     l9197:	
  3646                           ;primarymain.c: 293: {
  3647                           ;primarymain.c: 294: COUNTS += c;
  3648  0682  0820               	movf	(UpdateData@c),w
  3649  0683  1683               	bsf	status, 5	;RP0=1, select bank1
  3650  0684  1303               	bcf	status, 6	;RP1=0, select bank1
  3651  0685  07AE               	addwf	(_COUNTS)^080h,f
  3652  0686  1803               	skipnc
  3653  0687  0AAF               	incf	(_COUNTS+1)^080h,f
  3654  0688  1283               	bcf	status, 5	;RP0=0, select bank0
  3655  0689  1303               	bcf	status, 6	;RP1=0, select bank0
  3656  068A  0821               	movf	(UpdateData@c+1),w
  3657  068B  1683               	bsf	status, 5	;RP0=1, select bank1
  3658  068C  1303               	bcf	status, 6	;RP1=0, select bank1
  3659  068D  07AF               	addwf	(_COUNTS+1)^080h,f
  3660                           	line	295
  3661                           ;primarymain.c: 295: } else
  3662  068E  2E9D               	goto	l1582
  3663                           	
  3664  068F                     l1580:	
  3665                           	line	297
  3666                           	
  3667  068F                     l9199:	
  3668                           ;primarymain.c: 296: {
  3669                           ;primarymain.c: 297: COUNTS -= c;
  3670  068F  1283               	bcf	status, 5	;RP0=0, select bank0
  3671  0690  0820               	movf	(UpdateData@c),w
  3672  0691  1683               	bsf	status, 5	;RP0=1, select bank1
  3673  0692  1303               	bcf	status, 6	;RP1=0, select bank1
  3674  0693  02AE               	subwf	(_COUNTS)^080h,f
  3675  0694  1283               	bcf	status, 5	;RP0=0, select bank0
  3676  0695  1303               	bcf	status, 6	;RP1=0, select bank0
  3677  0696  0821               	movf	(UpdateData@c+1),w
  3678  0697  1683               	bsf	status, 5	;RP0=1, select bank1
  3679  0698  1303               	bcf	status, 6	;RP1=0, select bank1
  3680  0699  1C03               	skipc
  3681  069A  03AF               	decf	(_COUNTS+1)^080h,f
  3682  069B  02AF               	subwf	(_COUNTS+1)^080h,f
  3683  069C  2E9D               	goto	l1582
  3684                           	line	298
  3685                           	
  3686  069D                     l1581:	
  3687                           	line	299
  3688                           	
  3689  069D                     l1582:	
  3690  069D  0008               	return
  3691                           	opt stack 0
  3692                           GLOBAL	__end_of_UpdateData
  3693  069E                     	__end_of_UpdateData:
  3694 ;; =============== function _UpdateData ends ============
  3695                           
  3696                           	signat	_UpdateData,4216
  3697                           	global	_EncUpdate
  3698                           psect	text504,local,class=CODE,delta=2
  3699                           global __ptext504
  3700  0724                     __ptext504:
  3701                           
  3702 ;; *************** function _EncUpdate *****************
  3703 ;; Defined at:
  3704 ;;		line 42 in file "enclib.c"
  3705 ;; Parameters:    Size  Location     Type
  3706 ;;  t1              1    wreg     PTR int 
  3707 ;;		 -> main@counts(2), 
  3708 ;; Auto vars:     Size  Location     Type
  3709 ;;  t1              1    0[BANK0 ] PTR int 
  3710 ;;		 -> main@counts(2), 
  3711 ;; Return value:  Size  Location     Type
  3712 ;;		None               void
  3713 ;; Registers used:
  3714 ;;		wreg, fsr0l, fsr0h, status,2
  3715 ;; Tracked objects:
  3716 ;;		On entry : 0/0
  3717 ;;		On exit  : 0/0
  3718 ;;		Unchanged: 0/0
  3719 ;; Data sizes:     COMMON   BANK0  BANK1h  BANK1l   BANK3   BANK2
  3720 ;;      Params:         0       0       0       0       0       0
  3721 ;;      Locals:         0       1       0       0       0       0
  3722 ;;      Temps:          0       0       0       0       0       0
  3723 ;;      Totals:         0       1       0       0       0       0
  3724 ;;Total ram usage:        1 bytes
  3725 ;; Hardware stack levels used:    1
  3726 ;; Hardware stack levels required when called:    3
  3727 ;; This function calls:
  3728 ;;		Nothing
  3729 ;; This function is called by:
  3730 ;;		_main
  3731 ;; This function uses a non-reentrant model
  3732 ;;
  3733                           psect	text504
  3734                           	file	"enclib.c"
  3735                           	line	42
  3736                           	global	__size_of_EncUpdate
  3737  000E                     	__size_of_EncUpdate	equ	__end_of_EncUpdate-_EncUpdate
  3738                           	
  3739  0724                     _EncUpdate:	
  3740                           	opt	stack 4
  3741                           ; Regs used in _EncUpdate: [wreg-fsr0h+status,2]
  3742                           ;EncUpdate@t1 stored from wreg
  3743  0724  1283               	bcf	status, 5	;RP0=0, select bank0
  3744  0725  1303               	bcf	status, 6	;RP1=0, select bank0
  3745  0726  00A0               	movwf	(EncUpdate@t1)
  3746                           	line	43
  3747                           	
  3748  0727                     l9191:	
  3749                           ;enclib.c: 43: *t1 = TMR1;
  3750  0727  0820               	movf	(EncUpdate@t1),w
  3751  0728  0084               	movwf	fsr0
  3752  0729  080E               	movf	(14),w	;volatile
  3753  072A  1383               	bcf	status, 7	;select IRP bank0
  3754  072B  0080               	movwf	indf
  3755  072C  0A84               	incf	fsr0,f
  3756  072D  080F               	movf	(14+1),w	;volatile
  3757  072E  0080               	movwf	indf
  3758                           	line	45
  3759                           	
  3760  072F                     l9193:	
  3761                           ;enclib.c: 45: TMR1 = 0;
  3762  072F  018E               	clrf	(14)	;volatile
  3763  0730  018F               	clrf	(14+1)	;volatile
  3764                           	line	47
  3765                           	
  3766  0731                     l4601:	
  3767  0731  0008               	return
  3768                           	opt stack 0
  3769                           GLOBAL	__end_of_EncUpdate
  3770  0732                     	__end_of_EncUpdate:
  3771 ;; =============== function _EncUpdate ends ============
  3772                           
  3773                           	signat	_EncUpdate,4216
  3774                           	global	_SetPulse
  3775                           psect	text505,local,class=CODE,delta=2
  3776                           global __ptext505
  3777  069E                     __ptext505:
  3778                           
  3779 ;; *************** function _SetPulse *****************
  3780 ;; Defined at:
  3781 ;;		line 105 in file "pwmlib.c"
  3782 ;; Parameters:    Size  Location     Type
  3783 ;;  length          2    0[BANK0 ] int 
  3784 ;; Auto vars:     Size  Location     Type
  3785 ;;  temp            2    2[BANK0 ] int 
  3786 ;; Return value:  Size  Location     Type
  3787 ;;		None               void
  3788 ;; Registers used:
  3789 ;;		wreg, status,2, status,0, btemp+1
  3790 ;; Tracked objects:
  3791 ;;		On entry : 0/0
  3792 ;;		On exit  : 0/0
  3793 ;;		Unchanged: 0/0
  3794 ;; Data sizes:     COMMON   BANK0  BANK1h  BANK1l   BANK3   BANK2
  3795 ;;      Params:         0       2       0       0       0       0
  3796 ;;      Locals:         0       2       0       0       0       0
  3797 ;;      Temps:          0       0       0       0       0       0
  3798 ;;      Totals:         0       4       0       0       0       0
  3799 ;;Total ram usage:        4 bytes
  3800 ;; Hardware stack levels used:    1
  3801 ;; Hardware stack levels required when called:    3
  3802 ;; This function calls:
  3803 ;;		Nothing
  3804 ;; This function is called by:
  3805 ;;		_main
  3806 ;; This function uses a non-reentrant model
  3807 ;;
  3808                           psect	text505
  3809                           	file	"pwmlib.c"
  3810                           	line	105
  3811                           	global	__size_of_SetPulse
  3812  0020                     	__size_of_SetPulse	equ	__end_of_SetPulse-_SetPulse
  3813                           	
  3814  069E                     _SetPulse:	
  3815                           	opt	stack 4
  3816                           ; Regs used in _SetPulse: [wreg+status,2+status,0+btemp+1]
  3817                           	line	106
  3818                           	
  3819  069E                     l9185:	
  3820                           ;pwmlib.c: 106: int temp = length;
  3821  069E  1283               	bcf	status, 5	;RP0=0, select bank0
  3822  069F  1303               	bcf	status, 6	;RP1=0, select bank0
  3823  06A0  0821               	movf	(SetPulse@length+1),w
  3824  06A1  01A3               	clrf	(SetPulse@temp+1)
  3825  06A2  07A3               	addwf	(SetPulse@temp+1)
  3826  06A3  0820               	movf	(SetPulse@length),w
  3827  06A4  01A2               	clrf	(SetPulse@temp)
  3828  06A5  07A2               	addwf	(SetPulse@temp)
  3829                           
  3830                           	line	107
  3831                           	
  3832  06A6                     l9187:	
  3833                           ;pwmlib.c: 107: if (temp > 255)
  3834  06A6  0823               	movf	(SetPulse@temp+1),w
  3835  06A7  3A80               	xorlw	80h
  3836  06A8  00FF               	movwf	btemp+1
  3837  06A9  3081               	movlw	(high(0100h))^80h
  3838  06AA  027F               	subwf	btemp+1,w
  3839  06AB  1D03               	skipz
  3840  06AC  2EAF               	goto	u2565
  3841  06AD  3000               	movlw	low(0100h)
  3842  06AE  0222               	subwf	(SetPulse@temp),w
  3843  06AF                     u2565:
  3844                           
  3845  06AF  1C03               	skipc
  3846  06B0  2EB2               	goto	u2561
  3847  06B1  2EB3               	goto	u2560
  3848  06B2                     u2561:
  3849  06B2  2EB9               	goto	l3103
  3850  06B3                     u2560:
  3851                           	line	108
  3852                           	
  3853  06B3                     l9189:	
  3854                           ;pwmlib.c: 108: temp = 255;
  3855  06B3  30FF               	movlw	low(0FFh)
  3856  06B4  1283               	bcf	status, 5	;RP0=0, select bank0
  3857  06B5  1303               	bcf	status, 6	;RP1=0, select bank0
  3858  06B6  00A2               	movwf	(SetPulse@temp)
  3859  06B7  3000               	movlw	high(0FFh)
  3860  06B8  00A3               	movwf	((SetPulse@temp))+1
  3861                           	
  3862  06B9                     l3103:	
  3863                           	line	109
  3864                           ;pwmlib.c: 109: CCPR2L = temp;
  3865  06B9  1283               	bcf	status, 5	;RP0=0, select bank0
  3866  06BA  1303               	bcf	status, 6	;RP1=0, select bank0
  3867  06BB  0822               	movf	(SetPulse@temp),w
  3868  06BC  009B               	movwf	(27)	;volatile
  3869                           	line	113
  3870                           	
  3871  06BD                     l3104:	
  3872  06BD  0008               	return
  3873                           	opt stack 0
  3874                           GLOBAL	__end_of_SetPulse
  3875  06BE                     	__end_of_SetPulse:
  3876 ;; =============== function _SetPulse ends ============
  3877                           
  3878                           	signat	_SetPulse,4216
  3879                           	global	_setDirection
  3880                           psect	text506,local,class=CODE,delta=2
  3881                           global __ptext506
  3882  06F8                     __ptext506:
  3883                           
  3884 ;; *************** function _setDirection *****************
  3885 ;; Defined at:
  3886 ;;		line 304 in file "primarymain.c"
  3887 ;; Parameters:    Size  Location     Type
  3888 ;;  dir             2    0[BANK0 ] int 
  3889 ;; Auto vars:     Size  Location     Type
  3890 ;;		None
  3891 ;; Return value:  Size  Location     Type
  3892 ;;		None               void
  3893 ;; Registers used:
  3894 ;;		wreg, status,2, status,0
  3895 ;; Tracked objects:
  3896 ;;		On entry : 0/0
  3897 ;;		On exit  : 0/0
  3898 ;;		Unchanged: 0/0
  3899 ;; Data sizes:     COMMON   BANK0  BANK1h  BANK1l   BANK3   BANK2
  3900 ;;      Params:         0       2       0       0       0       0
  3901 ;;      Locals:         0       0       0       0       0       0
  3902 ;;      Temps:          0       0       0       0       0       0
  3903 ;;      Totals:         0       2       0       0       0       0
  3904 ;;Total ram usage:        2 bytes
  3905 ;; Hardware stack levels used:    1
  3906 ;; Hardware stack levels required when called:    3
  3907 ;; This function calls:
  3908 ;;		Nothing
  3909 ;; This function is called by:
  3910 ;;		_main
  3911 ;; This function uses a non-reentrant model
  3912 ;;
  3913                           psect	text506
  3914                           	file	"primarymain.c"
  3915                           	line	304
  3916                           	global	__size_of_setDirection
  3917  0017                     	__size_of_setDirection	equ	__end_of_setDirection-_setDirection
  3918                           	
  3919  06F8                     _setDirection:	
  3920                           	opt	stack 4
  3921                           ; Regs used in _setDirection: [wreg+status,2+status,0]
  3922                           	line	305
  3923                           	
  3924  06F8                     l9177:	
  3925                           ;primarymain.c: 305: if (dir == 0)
  3926  06F8  1283               	bcf	status, 5	;RP0=0, select bank0
  3927  06F9  1303               	bcf	status, 6	;RP1=0, select bank0
  3928  06FA  0821               	movf	((setDirection@dir+1)),w
  3929  06FB  0420               	iorwf	((setDirection@dir)),w
  3930  06FC  1D03               	skipz
  3931  06FD  2EFF               	goto	u2541
  3932  06FE  2F00               	goto	u2540
  3933  06FF                     u2541:
  3934  06FF  2F02               	goto	l9181
  3935  0700                     u2540:
  3936                           	line	306
  3937                           	
  3938  0700                     l9179:	
  3939                           ;primarymain.c: 306: PORTBbits.RB3 = 0;
  3940  0700  1186               	bcf	(6),3	;volatile
  3941  0701  2F0E               	goto	l1589
  3942                           	line	307
  3943                           	
  3944  0702                     l1585:	
  3945                           	
  3946  0702                     l9181:	
  3947                           ;primarymain.c: 307: else if (dir == 1)
  3948  0702  3001               	movlw	01h
  3949  0703  0620               	xorwf	(setDirection@dir),w
  3950  0704  0421               	iorwf	(setDirection@dir+1),w
  3951  0705  1D03               	skipz
  3952  0706  2F08               	goto	u2551
  3953  0707  2F09               	goto	u2550
  3954  0708                     u2551:
  3955  0708  2F0B               	goto	l1587
  3956  0709                     u2550:
  3957                           	line	308
  3958                           	
  3959  0709                     l9183:	
  3960                           ;primarymain.c: 308: PORTBbits.RB3 = !0;
  3961  0709  1586               	bsf	(6),3	;volatile
  3962  070A  2F0E               	goto	l1589
  3963                           	line	309
  3964                           	
  3965  070B                     l1587:	
  3966                           	line	310
  3967                           ;primarymain.c: 309: else
  3968                           ;primarymain.c: 310: PORTBbits.RB3 = 0;
  3969  070B  1186               	bcf	(6),3	;volatile
  3970  070C  2F0E               	goto	l1589
  3971                           	
  3972  070D                     l1588:	
  3973  070D  2F0E               	goto	l1589
  3974                           	
  3975  070E                     l1586:	
  3976                           	line	311
  3977                           	
  3978  070E                     l1589:	
  3979  070E  0008               	return
  3980                           	opt stack 0
  3981                           GLOBAL	__end_of_setDirection
  3982  070F                     	__end_of_setDirection:
  3983 ;; =============== function _setDirection ends ============
  3984                           
  3985                           	signat	_setDirection,4216
  3986                           	global	_delay1sec
  3987                           psect	text507,local,class=CODE,delta=2
  3988                           global __ptext507
  3989  05C8                     __ptext507:
  3990                           
  3991 ;; *************** function _delay1sec *****************
  3992 ;; Defined at:
  3993 ;;		line 326 in file "primarymain.c"
  3994 ;; Parameters:    Size  Location     Type
  3995 ;;		None
  3996 ;; Auto vars:     Size  Location     Type
  3997 ;;  i               2    0[BANK0 ] int 
  3998 ;; Return value:  Size  Location     Type
  3999 ;;		None               void
  4000 ;; Registers used:
  4001 ;;		wreg, status,2, btemp+1
  4002 ;; Tracked objects:
  4003 ;;		On entry : 0/0
  4004 ;;		On exit  : 0/0
  4005 ;;		Unchanged: 0/0
  4006 ;; Data sizes:     COMMON   BANK0  BANK1h  BANK1l   BANK3   BANK2
  4007 ;;      Params:         0       0       0       0       0       0
  4008 ;;      Locals:         0       2       0       0       0       0
  4009 ;;      Temps:          0       0       0       0       0       0
  4010 ;;      Totals:         0       2       0       0       0       0
  4011 ;;Total ram usage:        2 bytes
  4012 ;; Hardware stack levels used:    1
  4013 ;; Hardware stack levels required when called:    3
  4014 ;; This function calls:
  4015 ;;		Nothing
  4016 ;; This function is called by:
  4017 ;;		_main
  4018 ;; This function uses a non-reentrant model
  4019 ;;
  4020                           psect	text507
  4021                           	file	"primarymain.c"
  4022                           	line	326
  4023                           	global	__size_of_delay1sec
  4024  0031                     	__size_of_delay1sec	equ	__end_of_delay1sec-_delay1sec
  4025                           	
  4026  05C8                     _delay1sec:	
  4027                           	opt	stack 4
  4028                           ; Regs used in _delay1sec: [wreg+status,2+btemp+1]
  4029                           	line	329
  4030                           	
  4031  05C8                     l9167:	
  4032                           ;primarymain.c: 327: int i;
  4033                           ;primarymain.c: 329: for(i = 0; i <= 76; i++)
  4034  05C8  1283               	bcf	status, 5	;RP0=0, select bank0
  4035  05C9  1303               	bcf	status, 6	;RP1=0, select bank0
  4036  05CA  01A0               	clrf	(delay1sec@i)
  4037  05CB  01A1               	clrf	(delay1sec@i+1)
  4038                           	
  4039  05CC                     l9169:	
  4040  05CC  0821               	movf	(delay1sec@i+1),w
  4041  05CD  3A80               	xorlw	80h
  4042  05CE  00FF               	movwf	btemp+1
  4043  05CF  3080               	movlw	(high(04Dh))^80h
  4044  05D0  027F               	subwf	btemp+1,w
  4045  05D1  1D03               	skipz
  4046  05D2  2DD5               	goto	u2515
  4047  05D3  304D               	movlw	low(04Dh)
  4048  05D4  0220               	subwf	(delay1sec@i),w
  4049  05D5                     u2515:
  4050                           
  4051  05D5  1C03               	skipc
  4052  05D6  2DD8               	goto	u2511
  4053  05D7  2DD9               	goto	u2510
  4054  05D8                     u2511:
  4055  05D8  2DDD               	goto	l1598
  4056  05D9                     u2510:
  4057  05D9  2DF8               	goto	l1601
  4058                           	
  4059  05DA                     l9171:	
  4060  05DA  2DF8               	goto	l1601
  4061                           	line	330
  4062                           	
  4063  05DB                     l1596:	
  4064                           	line	331
  4065                           ;primarymain.c: 330: {
  4066                           ;primarymain.c: 331: while (T0IF == 0)
  4067  05DB  2DDD               	goto	l1598
  4068                           	
  4069  05DC                     l1599:	
  4070                           	line	332
  4071                           # 332 "primarymain.c"
  4072  05DC  0000               nop ;#
  4073                           psect	text507
  4074                           	
  4075  05DD                     l1598:	
  4076                           	line	331
  4077  05DD  1D0B               	btfss	(90/8),(90)&7
  4078  05DE  2DE0               	goto	u2521
  4079  05DF  2DE1               	goto	u2520
  4080  05E0                     u2521:
  4081  05E0  2DDC               	goto	l1599
  4082  05E1                     u2520:
  4083                           	
  4084  05E1                     l1600:	
  4085                           	line	333
  4086                           ;primarymain.c: 333: T0IF = 0;
  4087  05E1  110B               	bcf	(90/8),(90)&7
  4088                           	line	329
  4089                           	
  4090  05E2                     l9173:	
  4091  05E2  3001               	movlw	low(01h)
  4092  05E3  1283               	bcf	status, 5	;RP0=0, select bank0
  4093  05E4  1303               	bcf	status, 6	;RP1=0, select bank0
  4094  05E5  07A0               	addwf	(delay1sec@i),f
  4095  05E6  1803               	skipnc
  4096  05E7  0AA1               	incf	(delay1sec@i+1),f
  4097  05E8  3000               	movlw	high(01h)
  4098  05E9  07A1               	addwf	(delay1sec@i+1),f
  4099                           	
  4100  05EA                     l9175:	
  4101  05EA  0821               	movf	(delay1sec@i+1),w
  4102  05EB  3A80               	xorlw	80h
  4103  05EC  00FF               	movwf	btemp+1
  4104  05ED  3080               	movlw	(high(04Dh))^80h
  4105  05EE  027F               	subwf	btemp+1,w
  4106  05EF  1D03               	skipz
  4107  05F0  2DF3               	goto	u2535
  4108  05F1  304D               	movlw	low(04Dh)
  4109  05F2  0220               	subwf	(delay1sec@i),w
  4110  05F3                     u2535:
  4111                           
  4112  05F3  1C03               	skipc
  4113  05F4  2DF6               	goto	u2531
  4114  05F5  2DF7               	goto	u2530
  4115  05F6                     u2531:
  4116  05F6  2DDD               	goto	l1598
  4117  05F7                     u2530:
  4118  05F7  2DF8               	goto	l1601
  4119                           	
  4120  05F8                     l1597:	
  4121                           	line	335
  4122                           	
  4123  05F8                     l1601:	
  4124  05F8  0008               	return
  4125                           	opt stack 0
  4126                           GLOBAL	__end_of_delay1sec
  4127  05F9                     	__end_of_delay1sec:
  4128 ;; =============== function _delay1sec ends ============
  4129                           
  4130                           	signat	_delay1sec,88
  4131                           	global	_isr
  4132                           psect	text508,local,class=CODE,delta=2
  4133                           global __ptext508
  4134  055C                     __ptext508:
  4135                           
  4136 ;; *************** function _isr *****************
  4137 ;; Defined at:
  4138 ;;		line 243 in file "primarymain.c"
  4139 ;; Parameters:    Size  Location     Type
  4140 ;;		None
  4141 ;; Auto vars:     Size  Location     Type
  4142 ;;		None
  4143 ;; Return value:  Size  Location     Type
  4144 ;;		None               void
  4145 ;; Registers used:
  4146 ;;		wreg, fsr0l, fsr0h, fsr1l, fsr1h, status,2, status,0, btemp+1, pclath, cstack
  4147 ;; Tracked objects:
  4148 ;;		On entry : 0/0
  4149 ;;		On exit  : 0/0
  4150 ;;		Unchanged: 0/0
  4151 ;; Data sizes:     COMMON   BANK0  BANK1h  BANK1l   BANK3   BANK2
  4152 ;;      Params:         0       0       0       0       0       0
  4153 ;;      Locals:         0       0       0       0       0       0
  4154 ;;      Temps:          6       0       0       0       0       0
  4155 ;;      Totals:         6       0       0       0       0       0
  4156 ;;Total ram usage:        6 bytes
  4157 ;; Hardware stack levels used:    1
  4158 ;; Hardware stack levels required when called:    2
  4159 ;; This function calls:
  4160 ;;		_i2cIsrHandler
  4161 ;; This function is called by:
  4162 ;;		Interrupt level 1
  4163 ;; This function uses a non-reentrant model
  4164 ;;
  4165                           psect	text508
  4166                           	file	"primarymain.c"
  4167                           	line	243
  4168                           	global	__size_of_isr
  4169  006C                     	__size_of_isr	equ	__end_of_isr-_isr
  4170                           	
  4171  055C                     _isr:	
  4172                           	opt	stack 3
  4173                           ; Regs used in _isr: [allreg]
  4174                           psect	intentry,class=CODE,delta=2
  4175                           global __pintentry
  4176  0004                     __pintentry:
  4177                           global interrupt_function
  4178  0004                     interrupt_function:
  4179                           	global saved_w
  4180  007E                     	saved_w	set	btemp+0
  4181  0004  00FE               	movwf	saved_w
  4182  0005  0E03               	swapf	status,w
  4183  0006  00F6               	movwf	(??_isr+2)
  4184  0007  0804               	movf	fsr0,w
  4185  0008  00F7               	movwf	(??_isr+3)
  4186  0009  080A               	movf	pclath,w
  4187  000A  00F8               	movwf	(??_isr+4)
  4188  000B  1283               	bcf	status, 5	;RP0=0, select bank0
  4189  000C  1303               	bcf	status, 6	;RP1=0, select bank0
  4190  000D  087F               	movf	btemp+1,w
  4191  000E  00F9               	movwf	(??_isr+5)
  4192  000F  120A  118A  2D5C   	ljmp	_isr
  4193                           psect	text508
  4194                           	line	244
  4195                           	
  4196  055C                     i1l9229:	
  4197                           ;primarymain.c: 244: if (SSPIF == 1)
  4198  055C  1D8C               	btfss	(99/8),(99)&7
  4199  055D  2D5F               	goto	u259_21
  4200  055E  2D60               	goto	u259_20
  4201  055F                     u259_21:
  4202  055F  2D69               	goto	i1l1565
  4203  0560                     u259_20:
  4204                           	line	246
  4205                           	
  4206  0560                     i1l9231:	
  4207                           ;primarymain.c: 245: {
  4208                           ;primarymain.c: 246: F.I2C = 1;
  4209  0560  1683               	bsf	status, 5	;RP0=1, select bank1
  4210  0561  1303               	bcf	status, 6	;RP1=0, select bank1
  4211  0562  142A               	bsf	(170)^080h,0
  4212                           	line	248
  4213                           	
  4214  0563                     i1l9233:	
  4215                           ;primarymain.c: 248: i2cIsrHandler();
  4216  0563  120A  118A  2458   	fcall	_i2cIsrHandler
              120A  118A         
  4217                           	line	249
  4218                           ;primarymain.c: 249: } else if (T0IF == 1)
  4219  0568  2DBB               	goto	i1l1577
  4220                           	
  4221  0569                     i1l1565:	
  4222  0569  1D0B               	btfss	(90/8),(90)&7
  4223  056A  2D6C               	goto	u260_21
  4224  056B  2D6D               	goto	u260_20
  4225  056C                     u260_21:
  4226  056C  2D86               	goto	i1l1567
  4227  056D                     u260_20:
  4228                           	line	254
  4229                           	
  4230  056D                     i1l9235:	
  4231                           ;primarymain.c: 250: {
  4232                           ;primarymain.c: 254: if (TMR0_OverflowCount == TMR0_OverflowTarget)
  4233  056D  1683               	bsf	status, 5	;RP0=1, select bank1
  4234  056E  1303               	bcf	status, 6	;RP1=0, select bank1
  4235  056F  0833               	movf	(_TMR0_OverflowTarget+1)^080h,w
  4236  0570  0631               	xorwf	(_TMR0_OverflowCount+1)^080h,w
  4237  0571  1D03               	skipz
  4238  0572  2D75               	goto	u261_25
  4239  0573  0832               	movf	(_TMR0_OverflowTarget)^080h,w
  4240  0574  0630               	xorwf	(_TMR0_OverflowCount)^080h,w
  4241  0575                     u261_25:
  4242                           
  4243  0575  1D03               	skipz
  4244  0576  2D78               	goto	u261_21
  4245  0577  2D79               	goto	u261_20
  4246  0578                     u261_21:
  4247  0578  2D7D               	goto	i1l9241
  4248  0579                     u261_20:
  4249                           	line	256
  4250                           	
  4251  0579                     i1l9237:	
  4252                           ;primarymain.c: 255: {
  4253                           ;primarymain.c: 256: F.T0 = 1;
  4254  0579  14AA               	bsf	(170)^080h,1
  4255                           	line	257
  4256                           	
  4257  057A                     i1l9239:	
  4258                           ;primarymain.c: 257: TMR0_OverflowCount = 0;
  4259  057A  01B0               	clrf	(_TMR0_OverflowCount)^080h
  4260  057B  01B1               	clrf	(_TMR0_OverflowCount+1)^080h
  4261                           	line	258
  4262                           ;primarymain.c: 258: } else
  4263  057C  2D84               	goto	i1l9243
  4264                           	
  4265  057D                     i1l1568:	
  4266                           	line	259
  4267                           	
  4268  057D                     i1l9241:	
  4269                           ;primarymain.c: 259: TMR0_OverflowCount++;
  4270  057D  3001               	movlw	low(01h)
  4271  057E  07B0               	addwf	(_TMR0_OverflowCount)^080h,f
  4272  057F  1803               	skipnc
  4273  0580  0AB1               	incf	(_TMR0_OverflowCount+1)^080h,f
  4274  0581  3000               	movlw	high(01h)
  4275  0582  07B1               	addwf	(_TMR0_OverflowCount+1)^080h,f
  4276  0583  2D84               	goto	i1l9243
  4277                           	
  4278  0584                     i1l1569:	
  4279                           	line	261
  4280                           	
  4281  0584                     i1l9243:	
  4282                           ;primarymain.c: 261: T0IF = 0;
  4283  0584  110B               	bcf	(90/8),(90)&7
  4284                           	line	262
  4285                           ;primarymain.c: 262: } else if (TMR1IF == 1)
  4286  0585  2DBB               	goto	i1l1577
  4287                           	
  4288  0586                     i1l1567:	
  4289  0586  1C0C               	btfss	(96/8),(96)&7
  4290  0587  2D89               	goto	u262_21
  4291  0588  2D8A               	goto	u262_20
  4292  0589                     u262_21:
  4293  0589  2D8C               	goto	i1l1571
  4294  058A                     u262_20:
  4295                           	line	265
  4296                           	
  4297  058A                     i1l9245:	
  4298                           ;primarymain.c: 265: TMR1IF = 0;
  4299  058A  100C               	bcf	(96/8),(96)&7
  4300                           	line	266
  4301                           ;primarymain.c: 266: } else if (RBIF == 1)
  4302  058B  2DBB               	goto	i1l1577
  4303                           	
  4304  058C                     i1l1571:	
  4305  058C  1C0B               	btfss	(88/8),(88)&7
  4306  058D  2D8F               	goto	u263_21
  4307  058E  2D90               	goto	u263_20
  4308  058F                     u263_21:
  4309  058F  2DB0               	goto	i1l9257
  4310  0590                     u263_20:
  4311                           	line	268
  4312                           	
  4313  0590                     i1l9247:	
  4314                           ;primarymain.c: 267: {
  4315                           ;primarymain.c: 268: if (RB5 != DIR_READ)
  4316  0590  1003               	clrc
  4317  0591  1A86               	btfsc	(53/8),(53)&7
  4318  0592  1403               	setc
  4319  0593  3000               	movlw	0
  4320  0594  1803               	skipnc
  4321  0595  3001               	movlw	1
  4322                           
  4323  0596  00F4               	movwf	(??_isr+0)+0
  4324  0597  01F5               	clrf	(??_isr+0)+0+1
  4325  0598  086A               	movf	(_DIR_READ+1),w
  4326  0599  0675               	xorwf	1+(??_isr+0)+0,w
  4327  059A  1D03               	skipz
  4328  059B  2D9E               	goto	u264_25
  4329  059C  0869               	movf	(_DIR_READ),w
  4330  059D  0674               	xorwf	0+(??_isr+0)+0,w
  4331  059E                     u264_25:
  4332                           
  4333  059E  1903               	skipnz
  4334  059F  2DA1               	goto	u264_21
  4335  05A0  2DA2               	goto	u264_20
  4336  05A1                     u264_21:
  4337  05A1  2DA6               	goto	i1l9251
  4338  05A2                     u264_20:
  4339                           	line	270
  4340                           	
  4341  05A2                     i1l9249:	
  4342                           ;primarymain.c: 269: {
  4343                           ;primarymain.c: 270: F.DIR = 1;
  4344  05A2  1683               	bsf	status, 5	;RP0=1, select bank1
  4345  05A3  1303               	bcf	status, 6	;RP1=0, select bank1
  4346  05A4  15AA               	bsf	(170)^080h,3
  4347                           	line	271
  4348                           ;primarymain.c: 271: } else
  4349  05A5  2DAE               	goto	i1l9255
  4350                           	
  4351  05A6                     i1l1574:	
  4352                           	line	273
  4353                           	
  4354  05A6                     i1l9251:	
  4355                           ;primarymain.c: 272: {
  4356                           ;primarymain.c: 273: TRISD = 0;
  4357  05A6  1683               	bsf	status, 5	;RP0=1, select bank1
  4358  05A7  1303               	bcf	status, 6	;RP1=0, select bank1
  4359  05A8  0188               	clrf	(136)^080h	;volatile
  4360                           	line	274
  4361                           	
  4362  05A9                     i1l9253:	
  4363                           ;primarymain.c: 274: PORTD = 0x90;
  4364  05A9  3090               	movlw	(090h)
  4365  05AA  1283               	bcf	status, 5	;RP0=0, select bank0
  4366  05AB  1303               	bcf	status, 6	;RP1=0, select bank0
  4367  05AC  0088               	movwf	(8)	;volatile
  4368  05AD  2DAE               	goto	i1l9255
  4369                           	line	275
  4370                           	
  4371  05AE                     i1l1575:	
  4372                           	line	276
  4373                           	
  4374  05AE                     i1l9255:	
  4375                           ;primarymain.c: 275: }
  4376                           ;primarymain.c: 276: RBIF = 0;
  4377  05AE  100B               	bcf	(88/8),(88)&7
  4378                           	line	277
  4379                           ;primarymain.c: 277: } else
  4380  05AF  2DBB               	goto	i1l1577
  4381                           	
  4382  05B0                     i1l1573:	
  4383                           	line	279
  4384                           	
  4385  05B0                     i1l9257:	
  4386                           ;primarymain.c: 278: {
  4387                           ;primarymain.c: 279: TRISD = 0;
  4388  05B0  1683               	bsf	status, 5	;RP0=1, select bank1
  4389  05B1  1303               	bcf	status, 6	;RP1=0, select bank1
  4390  05B2  0188               	clrf	(136)^080h	;volatile
  4391                           	line	280
  4392                           	
  4393  05B3                     i1l9259:	
  4394                           ;primarymain.c: 280: PORTD = 0xF0;
  4395  05B3  30F0               	movlw	(0F0h)
  4396  05B4  1283               	bcf	status, 5	;RP0=0, select bank0
  4397  05B5  1303               	bcf	status, 6	;RP1=0, select bank0
  4398  05B6  0088               	movwf	(8)	;volatile
  4399  05B7  2DBB               	goto	i1l1577
  4400                           	line	281
  4401                           	
  4402  05B8                     i1l1576:	
  4403  05B8  2DBB               	goto	i1l1577
  4404                           	
  4405  05B9                     i1l1572:	
  4406  05B9  2DBB               	goto	i1l1577
  4407                           	
  4408  05BA                     i1l1570:	
  4409  05BA  2DBB               	goto	i1l1577
  4410                           	
  4411  05BB                     i1l1566:	
  4412                           	line	282
  4413                           	
  4414  05BB                     i1l1577:	
  4415  05BB  0879               	movf	(??_isr+5),w
  4416  05BC  1283               	bcf	status, 5	;RP0=0, select bank0
  4417  05BD  1303               	bcf	status, 6	;RP1=0, select bank0
  4418  05BE  00FF               	movwf	btemp+1
  4419  05BF  0878               	movf	(??_isr+4),w
  4420  05C0  008A               	movwf	pclath
  4421  05C1  0877               	movf	(??_isr+3),w
  4422  05C2  0084               	movwf	fsr0
  4423  05C3  0E76               	swapf	(??_isr+2)^0FFFFFF80h,w
  4424  05C4  0083               	movwf	status
  4425  05C5  0EFE               	swapf	saved_w,f
  4426  05C6  0E7E               	swapf	saved_w,w
  4427  05C7  0009               	retfie
  4428                           	opt stack 0
  4429                           GLOBAL	__end_of_isr
  4430  05C8                     	__end_of_isr:
  4431 ;; =============== function _isr ends ============
  4432                           
  4433                           	signat	_isr,88
  4434                           	global	_i2cIsrHandler
  4435                           psect	text509,local,class=CODE,delta=2
  4436                           global __ptext509
  4437  0458                     __ptext509:
  4438                           
  4439 ;; *************** function _i2cIsrHandler *****************
  4440 ;; Defined at:
  4441 ;;		line 43 in file "i2cSlave.c"
  4442 ;; Parameters:    Size  Location     Type
  4443 ;;		None
  4444 ;; Auto vars:     Size  Location     Type
  4445 ;;  i               2    2[COMMON] int 
  4446 ;; Return value:  Size  Location     Type
  4447 ;;		None               void
  4448 ;; Registers used:
  4449 ;;		wreg, fsr0l, fsr0h, status,2, status,0, pclath, cstack
  4450 ;; Tracked objects:
  4451 ;;		On entry : 0/0
  4452 ;;		On exit  : 0/0
  4453 ;;		Unchanged: 0/0
  4454 ;; Data sizes:     COMMON   BANK0  BANK1h  BANK1l   BANK3   BANK2
  4455 ;;      Params:         0       0       0       0       0       0
  4456 ;;      Locals:         2       0       0       0       0       0
  4457 ;;      Temps:          1       0       0       0       0       0
  4458 ;;      Totals:         3       0       0       0       0       0
  4459 ;;Total ram usage:        3 bytes
  4460 ;; Hardware stack levels used:    1
  4461 ;; Hardware stack levels required when called:    1
  4462 ;; This function calls:
  4463 ;;		_i2cSend
  4464 ;;		_i2cDataUpdate
  4465 ;; This function is called by:
  4466 ;;		_isr
  4467 ;; This function uses a non-reentrant model
  4468 ;;
  4469                           psect	text509
  4470                           	file	"i2cSlave.c"
  4471                           	line	43
  4472                           	global	__size_of_i2cIsrHandler
  4473  0087                     	__size_of_i2cIsrHandler	equ	__end_of_i2cIsrHandler-_i2cIsrHandler
  4474                           	
  4475  0458                     _i2cIsrHandler:	
  4476                           	opt	stack 3
  4477                           ; Regs used in _i2cIsrHandler: [wreg-fsr0h+status,2+status,0+pclath+cstack]
  4478                           	line	51
  4479                           	
  4480  0458                     i1l9261:	
  4481                           ;i2cSlave.c: 51: int i = 0;
  4482  0458  01F2               	clrf	(i2cIsrHandler@i)
  4483  0459  01F3               	clrf	(i2cIsrHandler@i+1)
  4484                           	line	52
  4485                           	
  4486  045A                     i1l9263:	
  4487                           ;i2cSlave.c: 52: i++;
  4488  045A  3001               	movlw	low(01h)
  4489  045B  07F2               	addwf	(i2cIsrHandler@i),f
  4490  045C  1803               	skipnc
  4491  045D  0AF3               	incf	(i2cIsrHandler@i+1),f
  4492  045E  3000               	movlw	high(01h)
  4493  045F  07F3               	addwf	(i2cIsrHandler@i+1),f
  4494                           	line	54
  4495                           ;i2cSlave.c: 54: if ((SSPSTAT & 0b00100100) == 0b00100000){
  4496  0460  1683               	bsf	status, 5	;RP0=1, select bank1
  4497  0461  1303               	bcf	status, 6	;RP1=0, select bank1
  4498  0462  0814               	movf	(148)^080h,w
  4499  0463  3924               	andlw	024h
  4500  0464  3A20               	xorlw	020h
  4501  0465  1D03               	skipz
  4502  0466  2C68               	goto	u265_21
  4503  0467  2C69               	goto	u265_20
  4504  0468                     u265_21:
  4505  0468  2C78               	goto	i1l9269
  4506  0469                     u265_20:
  4507                           	line	55
  4508                           	
  4509  0469                     i1l9265:	
  4510                           ;i2cSlave.c: 55: i2cBuffer[i2cBufferVal] = SSPBUF;
  4511  0469  1283               	bcf	status, 5	;RP0=0, select bank0
  4512  046A  1303               	bcf	status, 6	;RP1=0, select bank0
  4513  046B  0813               	movf	(19),w	;volatile
  4514  046C  00F1               	movwf	(??_i2cIsrHandler+0)+0
  4515  046D  087A               	movf	(_i2cBufferVal),w
  4516  046E  3EAB               	addlw	_i2cBuffer&0ffh
  4517  046F  0084               	movwf	fsr0
  4518  0470  0871               	movf	(??_i2cIsrHandler+0)+0,w
  4519  0471  1383               	bcf	status, 7	;select IRP bank1
  4520  0472  0080               	movwf	indf
  4521                           	line	56
  4522                           	
  4523  0473                     i1l9267:	
  4524                           ;i2cSlave.c: 56: i2cBufferVal++;
  4525  0473  3001               	movlw	(01h)
  4526  0474  00F1               	movwf	(??_i2cIsrHandler+0)+0
  4527  0475  0871               	movf	(??_i2cIsrHandler+0)+0,w
  4528  0476  07FA               	addwf	(_i2cBufferVal),f
  4529                           	line	58
  4530                           ;i2cSlave.c: 58: } else if ((SSPSTAT & 0b00100100) == 0b0000000){
  4531  0477  2CCD               	goto	i1l9289
  4532                           	
  4533  0478                     i1l6111:	
  4534                           	
  4535  0478                     i1l9269:	
  4536  0478  1683               	bsf	status, 5	;RP0=1, select bank1
  4537  0479  1303               	bcf	status, 6	;RP1=0, select bank1
  4538  047A  0814               	movf	(148)^080h,w
  4539  047B  3924               	andlw	024h
  4540  047C  1D03               	btfss	status,2
  4541  047D  2C7F               	goto	u266_21
  4542  047E  2C80               	goto	u266_20
  4543  047F                     u266_21:
  4544  047F  2C84               	goto	i1l9273
  4545  0480                     u266_20:
  4546                           	line	60
  4547                           	
  4548  0480                     i1l9271:	
  4549                           ;i2cSlave.c: 60: SSPBUF = 0;
  4550  0480  1283               	bcf	status, 5	;RP0=0, select bank0
  4551  0481  1303               	bcf	status, 6	;RP1=0, select bank0
  4552  0482  0193               	clrf	(19)	;volatile
  4553                           	line	62
  4554                           ;i2cSlave.c: 62: } else if ((SSPSTAT & 0b00100100) == 0b0000100){
  4555  0483  2CCD               	goto	i1l9289
  4556                           	
  4557  0484                     i1l6113:	
  4558                           	
  4559  0484                     i1l9273:	
  4560  0484  1683               	bsf	status, 5	;RP0=1, select bank1
  4561  0485  1303               	bcf	status, 6	;RP1=0, select bank1
  4562  0486  0814               	movf	(148)^080h,w
  4563  0487  3924               	andlw	024h
  4564  0488  3A04               	xorlw	04h
  4565  0489  1D03               	skipz
  4566  048A  2C8C               	goto	u267_21
  4567  048B  2C8D               	goto	u267_20
  4568  048C                     u267_21:
  4569  048C  2C98               	goto	i1l9277
  4570  048D                     u267_20:
  4571                           	line	65
  4572                           	
  4573  048D                     i1l9275:	
  4574                           ;i2cSlave.c: 65: i2cSend(i2cSpeed*2);
  4575  048D  1283               	bcf	status, 5	;RP0=0, select bank0
  4576  048E  1303               	bcf	status, 6	;RP1=0, select bank0
  4577  048F  086E               	movf	(_i2cSpeed),w
  4578  0490  00F1               	movwf	(??_i2cIsrHandler+0)+0
  4579  0491  0771               	addwf	(??_i2cIsrHandler+0)+0,w
  4580  0492  120A  118A  273D   	fcall	_i2cSend
              120A  118A         
  4581                           	line	67
  4582                           ;i2cSlave.c: 67: } else if ((SSPSTAT & 0b00001100) == 0b00001100){
  4583  0497  2CCD               	goto	i1l9289
  4584                           	
  4585  0498                     i1l6115:	
  4586                           	
  4587  0498                     i1l9277:	
  4588  0498  1683               	bsf	status, 5	;RP0=1, select bank1
  4589  0499  1303               	bcf	status, 6	;RP1=0, select bank1
  4590  049A  0814               	movf	(148)^080h,w
  4591  049B  390C               	andlw	0Ch
  4592  049C  3A0C               	xorlw	0Ch
  4593  049D  1D03               	skipz
  4594  049E  2CA0               	goto	u268_21
  4595  049F  2CA1               	goto	u268_20
  4596  04A0                     u268_21:
  4597  04A0  2CCD               	goto	i1l9289
  4598  04A1                     u268_20:
  4599                           	line	80
  4600                           	
  4601  04A1                     i1l9279:	
  4602                           ;i2cSlave.c: 80: i2cRequest = SSPBUF;
  4603  04A1  1283               	bcf	status, 5	;RP0=0, select bank0
  4604  04A2  1303               	bcf	status, 6	;RP1=0, select bank0
  4605  04A3  0813               	movf	(19),w	;volatile
  4606  04A4  00F1               	movwf	(??_i2cIsrHandler+0)+0
  4607  04A5  0871               	movf	(??_i2cIsrHandler+0)+0,w
  4608  04A6  00FB               	movwf	(_i2cRequest)
  4609                           	line	82
  4610                           ;i2cSlave.c: 82: if (i2cRequest == 1){
  4611  04A7  087B               	movf	(_i2cRequest),w
  4612  04A8  3A01               	xorlw	01h
  4613  04A9  1D03               	skipz
  4614  04AA  2CAC               	goto	u269_21
  4615  04AB  2CAD               	goto	u269_20
  4616  04AC                     u269_21:
  4617  04AC  2CB4               	goto	i1l9283
  4618  04AD                     u269_20:
  4619                           	line	83
  4620                           	
  4621  04AD                     i1l9281:	
  4622                           ;i2cSlave.c: 83: i2cSend(20);
  4623  04AD  3014               	movlw	(014h)
  4624  04AE  120A  118A  273D   	fcall	_i2cSend
              120A  118A         
  4625                           	line	84
  4626                           ;i2cSlave.c: 84: } else if (i2cRequest == 2){
  4627  04B3  2CCD               	goto	i1l9289
  4628                           	
  4629  04B4                     i1l6118:	
  4630                           	
  4631  04B4                     i1l9283:	
  4632  04B4  087B               	movf	(_i2cRequest),w
  4633  04B5  3A02               	xorlw	02h
  4634  04B6  1D03               	skipz
  4635  04B7  2CB9               	goto	u270_21
  4636  04B8  2CBA               	goto	u270_20
  4637  04B9                     u270_21:
  4638  04B9  2CC1               	goto	i1l9287
  4639  04BA                     u270_20:
  4640                           	line	85
  4641                           	
  4642  04BA                     i1l9285:	
  4643                           ;i2cSlave.c: 85: i2cSend(20);
  4644  04BA  3014               	movlw	(014h)
  4645  04BB  120A  118A  273D   	fcall	_i2cSend
              120A  118A         
  4646                           	line	86
  4647                           ;i2cSlave.c: 86: }
  4648  04C0  2CCD               	goto	i1l9289
  4649                           	line	87
  4650                           	
  4651  04C1                     i1l6120:	
  4652                           	line	89
  4653                           	
  4654  04C1                     i1l9287:	
  4655                           ;i2cSlave.c: 87: else
  4656                           ;i2cSlave.c: 88: {
  4657                           ;i2cSlave.c: 89: i2cSend(20);
  4658  04C1  3014               	movlw	(014h)
  4659  04C2  120A  118A  273D   	fcall	_i2cSend
              120A  118A         
  4660  04C7  2CCD               	goto	i1l9289
  4661                           	line	90
  4662                           	
  4663  04C8                     i1l6121:	
  4664  04C8  2CCD               	goto	i1l9289
  4665                           	
  4666  04C9                     i1l6119:	
  4667  04C9  2CCD               	goto	i1l9289
  4668                           	line	91
  4669                           	
  4670  04CA                     i1l6117:	
  4671  04CA  2CCD               	goto	i1l9289
  4672                           	line	94
  4673                           	
  4674  04CB                     i1l6116:	
  4675  04CB  2CCD               	goto	i1l9289
  4676                           	
  4677  04CC                     i1l6114:	
  4678  04CC  2CCD               	goto	i1l9289
  4679                           	
  4680  04CD                     i1l6112:	
  4681                           	
  4682  04CD                     i1l9289:	
  4683                           ;i2cSlave.c: 90: }
  4684                           ;i2cSlave.c: 91: }
  4685                           ;i2cSlave.c: 94: SSPIF = 0;
  4686  04CD  1283               	bcf	status, 5	;RP0=0, select bank0
  4687  04CE  1303               	bcf	status, 6	;RP1=0, select bank0
  4688  04CF  118C               	bcf	(99/8),(99)&7
  4689                           	line	96
  4690                           	
  4691  04D0                     i1l9291:	
  4692                           ;i2cSlave.c: 96: if (i2cBufferVal == 3){
  4693  04D0  087A               	movf	(_i2cBufferVal),w
  4694  04D1  3A03               	xorlw	03h
  4695  04D2  1D03               	skipz
  4696  04D3  2CD5               	goto	u271_21
  4697  04D4  2CD6               	goto	u271_20
  4698  04D5                     u271_21:
  4699  04D5  2CDE               	goto	i1l6123
  4700  04D6                     u271_20:
  4701                           	line	97
  4702                           	
  4703  04D6                     i1l9293:	
  4704                           ;i2cSlave.c: 97: i2cBufferVal = 0;
  4705  04D6  01FA               	clrf	(_i2cBufferVal)
  4706                           	line	98
  4707                           	
  4708  04D7                     i1l9295:	
  4709                           ;i2cSlave.c: 98: i2cDataUpdate();
  4710  04D7  120A  118A  270F   	fcall	_i2cDataUpdate
              120A  118A         
  4711  04DC  2CDE               	goto	i1l6123
  4712                           	line	99
  4713                           	
  4714  04DD                     i1l6122:	
  4715  04DD  2CDE               	goto	i1l6123
  4716                           	line	100
  4717                           	
  4718  04DE                     i1l9297:	
  4719                           	line	101
  4720                           ;i2cSlave.c: 99: }
  4721                           ;i2cSlave.c: 100: return;
  4722                           	
  4723  04DE                     i1l6123:	
  4724  04DE  0008               	return
  4725                           	opt stack 0
  4726                           GLOBAL	__end_of_i2cIsrHandler
  4727  04DF                     	__end_of_i2cIsrHandler:
  4728 ;; =============== function _i2cIsrHandler ends ============
  4729                           
  4730                           	signat	_i2cIsrHandler,88
  4731                           	global	_i2cDataUpdate
  4732                           psect	text510,local,class=CODE,delta=2
  4733                           global __ptext510
  4734  070F                     __ptext510:
  4735                           
  4736 ;; *************** function _i2cDataUpdate *****************
  4737 ;; Defined at:
  4738 ;;		line 104 in file "i2cSlave.c"
  4739 ;; Parameters:    Size  Location     Type
  4740 ;;		None
  4741 ;; Auto vars:     Size  Location     Type
  4742 ;;		None
  4743 ;; Return value:  Size  Location     Type
  4744 ;;		None               void
  4745 ;; Registers used:
  4746 ;;		wreg
  4747 ;; Tracked objects:
  4748 ;;		On entry : 0/0
  4749 ;;		On exit  : 0/0
  4750 ;;		Unchanged: 0/0
  4751 ;; Data sizes:     COMMON   BANK0  BANK1h  BANK1l   BANK3   BANK2
  4752 ;;      Params:         0       0       0       0       0       0
  4753 ;;      Locals:         0       0       0       0       0       0
  4754 ;;      Temps:          1       0       0       0       0       0
  4755 ;;      Totals:         1       0       0       0       0       0
  4756 ;;Total ram usage:        1 bytes
  4757 ;; Hardware stack levels used:    1
  4758 ;; This function calls:
  4759 ;;		Nothing
  4760 ;; This function is called by:
  4761 ;;		_i2cIsrHandler
  4762 ;; This function uses a non-reentrant model
  4763 ;;
  4764                           psect	text510
  4765                           	file	"i2cSlave.c"
  4766                           	line	104
  4767                           	global	__size_of_i2cDataUpdate
  4768  0015                     	__size_of_i2cDataUpdate	equ	__end_of_i2cDataUpdate-_i2cDataUpdate
  4769                           	
  4770  070F                     _i2cDataUpdate:	
  4771                           	opt	stack 3
  4772                           ; Regs used in _i2cDataUpdate: [wreg]
  4773                           	line	105
  4774                           	
  4775  070F                     i1l9307:	
  4776                           ;i2cSlave.c: 105: switch (i2cBuffer[0]) {
  4777  070F  2F10               	goto	i1l9309
  4778                           	line	106
  4779                           ;i2cSlave.c: 106: default :
  4780                           	
  4781  0710                     i1l6127:	
  4782                           	line	107
  4783                           	
  4784  0710                     i1l9309:	
  4785                           ;i2cSlave.c: 107: i2cSpeed = (i2cBuffer[1]);
  4786  0710  1683               	bsf	status, 5	;RP0=1, select bank1
  4787  0711  1303               	bcf	status, 6	;RP1=0, select bank1
  4788  0712  082C               	movf	0+(_i2cBuffer)^080h+01h,w
  4789  0713  00F0               	movwf	(??_i2cDataUpdate+0)+0
  4790  0714  0870               	movf	(??_i2cDataUpdate+0)+0,w
  4791  0715  1283               	bcf	status, 5	;RP0=0, select bank0
  4792  0716  1303               	bcf	status, 6	;RP1=0, select bank0
  4793  0717  00EE               	movwf	(_i2cSpeed)
  4794                           	line	108
  4795                           ;i2cSlave.c: 108: i2cDirection = (i2cBuffer[2]);
  4796  0718  1683               	bsf	status, 5	;RP0=1, select bank1
  4797  0719  1303               	bcf	status, 6	;RP1=0, select bank1
  4798  071A  082D               	movf	0+(_i2cBuffer)^080h+02h,w
  4799  071B  00F0               	movwf	(??_i2cDataUpdate+0)+0
  4800  071C  0870               	movf	(??_i2cDataUpdate+0)+0,w
  4801  071D  1283               	bcf	status, 5	;RP0=0, select bank0
  4802  071E  1303               	bcf	status, 6	;RP1=0, select bank0
  4803  071F  00ED               	movwf	(_i2cDirection)
  4804                           	line	109
  4805                           ;i2cSlave.c: 109: break;
  4806  0720  2F23               	goto	i1l6129
  4807                           	line	112
  4808                           	
  4809  0721                     i1l9311:	
  4810                           ;i2cSlave.c: 112: }
  4811  0721  2F23               	goto	i1l6129
  4812                           	line	105
  4813                           	
  4814  0722                     i1l6126:	
  4815  0722  2F10               	goto	i1l9309
  4816                           	line	112
  4817                           	
  4818  0723                     i1l6128:	
  4819                           	line	114
  4820                           ;i2cSlave.c: 113: return;
  4821                           	
  4822  0723                     i1l6129:	
  4823  0723  0008               	return
  4824                           	opt stack 0
  4825                           GLOBAL	__end_of_i2cDataUpdate
  4826  0724                     	__end_of_i2cDataUpdate:
  4827 ;; =============== function _i2cDataUpdate ends ============
  4828                           
  4829                           	signat	_i2cDataUpdate,88
  4830                           	global	_i2cSend
  4831                           psect	text511,local,class=CODE,delta=2
  4832                           global __ptext511
  4833  073D                     __ptext511:
  4834                           
  4835 ;; *************** function _i2cSend *****************
  4836 ;; Defined at:
  4837 ;;		line 117 in file "i2cSlave.c"
  4838 ;; Parameters:    Size  Location     Type
  4839 ;;  msg             1    wreg     unsigned char 
  4840 ;; Auto vars:     Size  Location     Type
  4841 ;;  msg             1    0[COMMON] unsigned char 
  4842 ;; Return value:  Size  Location     Type
  4843 ;;		None               void
  4844 ;; Registers used:
  4845 ;;		wreg
  4846 ;; Tracked objects:
  4847 ;;		On entry : 0/0
  4848 ;;		On exit  : 0/0
  4849 ;;		Unchanged: 0/0
  4850 ;; Data sizes:     COMMON   BANK0  BANK1h  BANK1l   BANK3   BANK2
  4851 ;;      Params:         0       0       0       0       0       0
  4852 ;;      Locals:         1       0       0       0       0       0
  4853 ;;      Temps:          0       0       0       0       0       0
  4854 ;;      Totals:         1       0       0       0       0       0
  4855 ;;Total ram usage:        1 bytes
  4856 ;; Hardware stack levels used:    1
  4857 ;; This function calls:
  4858 ;;		Nothing
  4859 ;; This function is called by:
  4860 ;;		_i2cIsrHandler
  4861 ;; This function uses a non-reentrant model
  4862 ;;
  4863                           psect	text511
  4864                           	file	"i2cSlave.c"
  4865                           	line	117
  4866                           	global	__size_of_i2cSend
  4867  0009                     	__size_of_i2cSend	equ	__end_of_i2cSend-_i2cSend
  4868                           	
  4869  073D                     _i2cSend:	
  4870                           	opt	stack 3
  4871                           ; Regs used in _i2cSend: [wreg]
  4872                           ;i2cSend@msg stored from wreg
  4873                           	line	120
  4874  073D  00F0               	movwf	(i2cSend@msg)
  4875                           	
  4876  073E                     i1l9299:	
  4877                           ;i2cSlave.c: 120: SSPBUF = msg;
  4878  073E  0870               	movf	(i2cSend@msg),w
  4879  073F  1283               	bcf	status, 5	;RP0=0, select bank0
  4880  0740  1303               	bcf	status, 6	;RP1=0, select bank0
  4881  0741  0093               	movwf	(19)	;volatile
  4882                           	line	121
  4883                           	
  4884  0742                     i1l9301:	
  4885                           ;i2cSlave.c: 121: SSPCONbits.CKP = 0;
  4886  0742  1214               	bcf	(20),4	;volatile
  4887                           	line	122
  4888                           	
  4889  0743                     i1l9303:	
  4890                           ;i2cSlave.c: 122: SSPCONbits.CKP = 1;
  4891  0743  1614               	bsf	(20),4	;volatile
  4892  0744  2F45               	goto	i1l6132
  4893                           	line	124
  4894                           	
  4895  0745                     i1l9305:	
  4896                           	line	125
  4897                           ;i2cSlave.c: 124: return;
  4898                           	
  4899  0745                     i1l6132:	
  4900  0745  0008               	return
  4901                           	opt stack 0
  4902                           GLOBAL	__end_of_i2cSend
  4903  0746                     	__end_of_i2cSend:
  4904 ;; =============== function _i2cSend ends ============
  4905                           
  4906                           	signat	_i2cSend,4216
  4907                           psect	text512,local,class=CODE,delta=2
  4908                           global __ptext512
  4909  0000                     __ptext512:
  4910                           	global	btemp
  4911  007E                     	btemp set 07Eh
  4912                           
  4913                           	DABS	1,126,2	;btemp
  4914                           	global	wtemp0
  4915  007E                     	wtemp0 set btemp


HI-TECH Software PICC Macro Assembler V9.83 build 10920 
Symbol Table                                                                                   Wed Apr 17 00:26:10 2013

                     _F 00AA              i2cSend@msg 0070                      _T0 0551                      _T1 0552  
                    _RD 0C60                      _WR 0C61            ___ftadd@exp1 0058            ___ftadd@exp2 0057  
          ___ftadd@sign 0056                     _I2C 0550                     _CKE 04A6                     _CKP 00A4  
                   _GIE 005F                     _DIR 0553                     _RB5 0035                     _ERR 0554  
                   _PR2 0092                     _SMP 04A7                     _isr 055C                     fsr0 0004  
                   indf 0000          i2cIsrHandler@i 0072                    l3103 06B9                    l1600 05E1  
                  l3104 06BD                    l1601 05F8                    l1550 0070                    l1551 0099  
                  l1552 0179                    l1553 00DD                    l1562 0625                    l1554 00F4  
                  l1555 00F3                    l1580 068F                    l3092 06CF                    l1556 016F  
                  l1581 069D                    l3093 06D9                    l1557 017A                    l1549 0034  
                  l1582 069D                    l3094 06DB                    l1558 017B                    l3095 06DA  
                  l1559 017B                    l3096 06DB                    l1585 0702                    l1586 070E  
                  l1587 070B                    l1596 05DB                    l1588 070D                    l1597 05F8  
                  l1589 070E                    l1598 05DD                    l1599 05DC                    l4601 0731  
                  l6108 06F7                    l4598 073C                    l9201 06BE                    l9211 06CB  
                  l9203 06C2                    l7620 01D3                    ?_isr 0070                    l9213 06CC  
                  l9205 06C8                    l9221 06DF                    l7621 01D8                    l7613 01B5  
                  l7622 021D                    l7630 0254                    l9215 06CF                    l9207 06C9  
                  l9223 06F1                    l7631 0254                    l7623 01ED                    l7615 01AD  
                  l7640 027E                    l7632 0224                    l7616 02C3                    l9217 06D4  
                  l9209 06CA                    l9225 06F5                    l9321 04F6                    l9313 04DF  
                  l9401 03EF                    l7641 02A7                    l7625 0206                    l7617 01CA  
                  l7705 0636                    l7634 023D                    l7626 0207                    l7706 0651  
                  l9171 05DA                    l9219 0732                    l9227 06F6                    l9331 0529  
                  l9323 0503                    l9315 04E5                    l9411 0407                    l9403 03F1  
                  l7635 023E                    l7627 0215                    l7619 01C9                    l7636 024C  
                  l7628 0208                    l9173 05E2                    l9181 0702                    l9341 055A  
                  l9333 0534                    l9325 050B                    l7901 04F5                    l9317 04ED  
                  l9421 0437                    l9405 03F5                    l9413 041A                    l9501 0613  
                  l7637 023F                    l7629 021C                    l7910 0528                    l7638 0253  
                  l7670 0338                    l9175 05EA                    l9167 05C8                    l9183 0709  
                  l9191 0727                    l9335 053C                    l7911 0534                    l9327 050F  
                  l9319 04F4                    l7903 04ED                    l9415 0420                    l9423 043E  
                  l9407 03FC                    l9511 061A                    l9503 0614                    l7639 0269  
                  l7671 034D                    l7912 0529                    l7904 055B                    l7680 041A  
                  l7672 0364                    l9169 05CC                    l9177 06F8                    l9185 069E  
                  l9193 072F                    l9337 0544                    l7913 0538                    l9329 0519  
                  l7905 0503                    l9425 0442                    l9417 0429                    l7681 0406  
                  l9409 0405                    l9513 061B                    l9505 0617                    l9521 0198  
                  l7673 0369                    l9601 02F8                    l7914 0542                    l7906 04F6  
                  l7682 0407                    l7674 037E                    l9179 0700                    l9187 06A6  
                  l9195 067A                    l7915 055B                    l9339 0556                    l7907 050A  
                  l9427 044E                    l9419 042B                    l7683 0419                    l9515 061F  
                  l9507 0618                    l9531 01B5                    l9523 019C                    l7675 0395  
                  l9611 0333                    l9603 0325                    l7667 02DF                    l7908 0521  
                  l7684 043E                    l7668 03B1                    l9189 06B3                    l9197 0682  
                  l7909 050B                    l9429 0457                    l7685 042A                    l9517 0622  
                  l9509 0619                    l9541 01D2                    l9533 01B9                    l9525 01A2  
                  l9621 035D                    l9613 0338                    l9605 0326                    l7669 02F8  
                  l9701 00C9                    l7686 0437                    l7678 03CF                    l9199 068F  
                  l7687 042B                    l9391 03CE                    l7679 0457                    l9551 01F7  
                  l9543 01D7                    l9535 01BF                    l9527 01AD                    l9519 017E  
                  l9631 0386                    l9623 0364                    l9615 033C                    l9607 0327  
                  l9711 015C                    l9703 00D6                    l7688 043D                    l7689 044E  
                  l9393 03CF                    l9561 0224                    l9553 01FD                    l9545 01D9  
                  l9537 01CA                    l9529 01B4                    l9633 038E                    l9625 0369  
                  l9617 034D                    l9609 032D                    l9641 062D                    l9713 0162  
                  l9705 00DD                    l9395 03E1                    l9387 03B2                    l9491 05FC  
                  l9571 0258                    l9563 022E                    l9555 0208                    l9547 01DF  
                  l9539 01CE                    l9635 0395                    l9627 036D                    l9619 0355  
                  l9643 0636                    l9715 0168                    l9707 00EC                    l9651 0022  
                  l9397 03E2                    l9389 03C5                    l9493 060C                    l9581 0293  
                  l9573 0269                    l9565 0234                    l9557 0215                    l9549 01ED  
                  l9637 03B1                    l9629 037E                    l9645 0651                    l9717 016F  
                  l9709 00F4                    l9661 0034                    l9653 0028                    l9399 03E8  
                  l9495 060D                    l9583 02A3                    l9575 026D                    l9567 023F  
                  l9559 021D                    l9591 02D7                    l9639 0626                    l9719 0175  
                  l9671 0060                    l9663 0037                    l9655 0029                    l9647 0015  
                  l9497 060E                    l9489 05F9                    l9585 02A7                    l9577 027E  
                  l9569 024C                    l9593 02DE                    l9673 0064                    l9665 003D  
                  l9681 0070                    l9657 002E                    l9649 001D                    l9499 060F  
                  l9587 02C3                    l9579 028F                    l9595 02DF                    l9683 0074  
                  l9691 0099                    l9675 0068                    l9667 0046                    l9659 002F  
                  l9597 02F0                    l9589 02C4                    l9693 009D                    l9685 007A  
                  l9677 006A                    l9669 0052                    l9599 02F7                    l9695 00A3  
                  l9687 0087                    l9679 006C                    l9697 00B0                    l9689 0095  
                  l9699 00C1                    _FLAG 00AA                    _T0IE 005D                    _T0IF 005A  
                  u3000 0442                    u3100 01AC                    u3101 01AB                    u3110 01B9  
                  u3120 01BF                    u3121 01BE                    u3210 021B                    u3130 01C9  
                  u3211 021A                    u3131 01C8                    u3220 0223                    u3140 01D2  
                  u3301 0288                    u3221 0222                    u3205 0209                    u3141 01D1  
                  u2510 05D9                    u3310 0293                    u3302 028F                    u3150 01D7  
                  u2511 05D8                    u3311 0292                    u3151 01D6                    u2520 05E1  
                  u3240 0234                    u3160 01EC                    u3080 019C                    u3400 0363  
                  u3320 02D7                    u2521 05E0                    u3241 0233                    u3161 01EB  
                  u3401 0362                    u3321 02D6                    u2530 05F7                    u3250 023C  
                  u3090 01A2                    u3410 036D                    u3330 02F0                    u2531 05F6  
                  u2515 05D5                    u3251 023B                    u3235 0225                    u3091 01A1  
                  u3411 036C                    u3331 02EF                    u2540 0700                    u3180 01FD  
                  u3340 0308                    u3500 00D6                    u2541 06FF                    u3181 01FC  
                  u3421 0376                    u3501 00D5                    u2550 0709                    u3270 0252  
                  u3190 0205                    u3422 037D                    u3350 031A                    u3510 00EC  
                  u2535 05F3                    u2551 0708                    u3271 0251                    u3191 0204  
                  u3175 01EE                    u3511 00EB                    _PIE1 008C                    u2560 06B3  
                  u2800 053C                    u2720 04E5                    u3280 0258                    u3360 033C  
                  u3520 0168                    _PIE2 008D                    u2561 06B2                    u2801 053B  
                  u3281 0257                    u3265 0240                    u3361 033B                    u3345 0304  
                  u3521 0167                    u3505 00D2                    u2570 0682                    u2810 054D  
                  u2730 04EC                    u3290 026D                    u3450 0394                    u2571 0681  
                  u2731 04EB                    u3291 026C                    u3451 0393                    u3435 037F  
                  u3371 0345                    u3355 0316                    u3515 00E8                    u2580 06D4  
                  u2820 055A                    u3372 034C                    u3460 062D                    u2565 06AF  
                  u2581 06D3                    u3445 0387                    u3461 062C                    u2750 0509  
                  u2910 03C5                    u3470 003D                    u2815 0549                    u2751 0508  
                  u2911 03C4                    u3471 003C                    u2920 03DA                    u3480 0074  
                  u2745 04FB                    u3385 034E                    u3481 0073                    u2770 0527  
                  u2930 03F5                    u3490 009D                    u2771 0526                    u2931 03F4  
                  u3395 0356                    u3491 009C                    _PEIE 005E                    u2940 03FC  
                  u2765 051A                    u2941 03FB                    u2925 03D6                    u2790 0538  
                  u2791 0537                    _RBIE 005B                    u2960 0418                    _RBIF 0058  
                  u2785 052C                    u2961 0417                    u2970 0420                    u2971 041F  
                  u2955 0408                    u2990 043C                    u2991 043B                    u2985 042D  
                  _TMR1 000E                    _WREN 0C62                    _main 0015            ___ftpack@arg 0020  
          ___ftpack@exp 0023                    btemp 007E                    start 0012   __size_of_BeginEncoder 000B  
       ??_i2cIsrHandler 0071            ___ftmul@cntr 004A            ___ftmul@sign 004B         __end_of_i2cInit 06F8  
       __end_of_i2cSend 0746            ___fttol@exp1 0035            ___fttol@lval 0031                   ??_isr 0074  
                 ?_main 0070                   _EEADR 010D         __end_of___ftadd 02C4                   _CARRY 0018  
       __end_of___ftmul 03B2                   _T1CON 0010         __end_of___fttol 0458                   _T2CON 0012  
                 _PORTD 0008                   _SSPM0 00A0                   _SSPM1 00A1                   _SSPM2 00A2  
                 _SSPM3 00A3                   _TRISB 0086                   _TRISD 0088                   _SSPIF 0063  
                 _SSPEN 00A5           ___awtoft@sign 003B           ___ftpack@sign 0024                   main@D 005B  
                 main@I 0065                   main@P 0063            _BeginEncoder 0732                   pclath 000A  
      __end_of_BeginPWM 06DC              _i2cRequest 007B                   status 0003                   wtemp0 007E  
          __end_of_main 017E              _Initialise 05F9                  ??_main 0059           ___fttol@sign1 0030  
    __size_of_EncUpdate 000E        __end_of_SetPulse 06BE                  _EEDATA 010C                  _CCPR2L 001B  
                _EECON1 018C                  _EECON2 018D                  _CMCON1 0097        __end_of___awtoft 0652  
      __end_of___ftpack 055C                  _COUNTS 00AE                  i1l1570 05BA                  i1l1571 058C  
                i1l1572 05B9                  i1l1573 05B0                  i1l1565 0569                  i1l1566 05BB  
                i1l1574 05A6                  i1l1575 05AE                  i1l1567 0586                  i1l1576 05B8  
                i1l1568 057D                  i1l1569 0584                  i1l1577 05BB                  i1l6111 0478  
                i1l6112 04CD                  i1l6120 04C1                  i1l6121 04C8                  i1l6113 0484  
                i1l6122 04DD                  i1l6114 04CC                  i1l6123 04DE                  i1l6115 0498  
                i1l6132 0745                  i1l6116 04CB                  i1l6117 04CA                  i1l6126 0722  
                i1l6118 04B4                  i1l6127 0710                  i1l6119 04C9                  i1l6128 0723  
                i1l6129 0723                  i1l9301 0742                  i1l9303 0743                  i1l9311 0721  
                i1l9231 0560                  i1l9305 0745                  i1l9241 057D                  i1l9233 0563  
                i1l9307 070F                  i1l9251 05A6                  i1l9243 0584                  i1l9235 056D  
                i1l9309 0710                  i1l9261 0458                  i1l9253 05A9                  i1l9245 058A  
                i1l9237 0579                  i1l9229 055C                  i1l9271 0480                  i1l9263 045A  
                i1l9255 05AE                  i1l9247 0590                  i1l9239 057A                  i1l9281 04AD  
                i1l9273 0484                  i1l9265 0469                  i1l9249 05A2                  i1l9257 05B0  
                i1l9291 04D0                  i1l9283 04B4                  i1l9275 048D                  i1l9267 0473  
                i1l9259 05B3                  i1l9293 04D6                  i1l9285 04BA                  i1l9277 0498  
                i1l9269 0478                  i1l9295 04D7                  i1l9287 04C1                  i1l9279 04A1  
                i1l9297 04DE                  i1l9289 04CD                  i1l9299 073E                  u260_20 056D  
                u260_21 056C                  u261_20 0579                  u261_21 0578                  u261_25 0575  
                u270_20 04BA                  u262_20 058A                  u270_21 04B9                  u262_21 0589  
                u271_20 04D6                  u263_20 0590                  u271_21 04D5                  u263_21 058F  
                u264_20 05A2                  u264_21 05A1                  u264_25 059E                  u265_20 0469  
                u265_21 0468                  u266_20 0480                  u266_21 047F                  u267_20 048D  
                u259_20 0560                  u267_21 048C                  u259_21 055F                  u268_20 04A1  
                u268_21 04A0                  u269_20 04AD                  u269_21 04AC                  _TARGET 006B  
                _TMR1IF 0060                  _TMR2IF 0061                  _SSPADD 0093         setDirection@dir 0020  
                _TRISC6 043E                  _TRISC7 043F                  _SSPBUF 0013               ??_i2cInit 0020  
             ??_i2cSend 0070               ??___ftadd 0052               ??___ftmul 0042               ??___fttol 002C  
          __pdataBANK1l 00B2   ___ftmul@f3_as_product 0047              _UpdateData 067A                  saved_w 007E  
           _i2cWriteInt 007C              ___ftadd@f1 004C              ___ftadd@f2 004F       __end_of_EncUpdate 0732  
            ___awtoft@c 0036              ___ftmul@f1 003C              ___ftmul@f2 003F              ___fttol@f1 0028  
        __pcstackCOMMON 0070      __size_of_delay1sec 0031             ?_Initialise 0070           ?_setDirection 0020  
             ?_BeginPWM 0070      _TMR0_OverflowCount 00B0   __end_of_i2cDataUpdate 0724              __pbssBANK0 0069  
            __pbssBANK3 0190               ?_SetPulse 0020              __pmaintext 0015              __pintentry 0004  
               _CCP2CON 001D               ?___awtoft 0036               ?___ftpack 0020          ??_setDirection 0022  
            ??_BeginPWM 0020             ?_UpdateData 0020                 _SSPSTAT 0094          main@currentPWM 005D  
     __end_of_delay1sec 05F9     __size_of_Initialise 002D                 _i2cInit 06DC                 _i2cSend 073D  
            ??_SetPulse 0022   __end_of_i2cIsrHandler 04DF                 ___ftadd 017E                 ___ftmul 02C4  
             _DIRECTION 0190                 ___fttol 03B2            _i2cDirection 006D            _i2cBufferVal 007A  
            ??___awtoft 0039              ??___ftpack 0025              delay1sec@i 0020               _T2CONbits 0012  
          __size_of_isr 006C                 main@PID 0061    end_of_initialization 0676     __size_of_UpdateData 0024  
           UpdateData@c 0020               _PORTBbits 0006          SetPulse@length 0020               _TRISDbits 0088  
  __end_of_setDirection 070F             _CCP2CONbits 001D              main@counts 0067             ___ftmul@exp 0046  
             _EncUpdate 0724           __pidataBANK1l 0746            ??_Initialise 0021               _i2cBuffer 00AB  
   start_initialization 0652       __size_of_BeginPWM 001E             __end_of_isr 05C8      __end_of_Initialise 0626  
   _TMR0_OverflowTarget 00B2              ?_EncUpdate 0070       __size_of_SetPulse 0020             __pbssBANK1l 00AB  
          SetPulse@temp 0022            ??_UpdateData 0022       __size_of___awtoft 002C       __size_of___ftpack 007D  
           __pbssCOMMON 007A           __pcstackBANK0 0020           ?_BeginEncoder 0070                ?_i2cInit 0070  
              ?_i2cSend 0070               _delay1sec 05C8      __end_of_UpdateData 069E                ?___ftadd 004C  
             __ptext500 06DC               __ptext501 0732               __ptext510 070F               __ptext502 06BE  
             __ptext511 073D               __ptext503 067A               __ptext512 0000               __ptext504 0724  
             __ptext505 069E               __ptext506 06F8               __ptext507 05C8               __ptext508 055C  
             __ptext509 0458               __ptext494 0626               __ptext495 02C4               __ptext496 017E  
             __ptext497 05F9               __ptext498 03B2               __ptext499 04DF                ?___ftmul 003C  
              ?___fttol 0028  __size_of_i2cDataUpdate 0015          ??_BeginEncoder 0020   __size_of_setDirection 0017  
              _DIR_READ 0069       interrupt_function 0004                _PIE1bits 008C              ?_delay1sec 0070  
              _PIR1bits 000C             ??_EncUpdate 0020               main@P_old 005F                _BeginPWM 06BE  
          _setDirection 06F8  __size_of_i2cIsrHandler 0087           _i2cDataUpdate 070F                _i2cSpeed 006E  
      __size_of_i2cInit 001C        __size_of_i2cSend 0009                _SetPulse 069E        __size_of___ftadd 0146  
      __size_of___ftmul 00EE        __size_of___fttol 00A6                ___awtoft 0626                ___ftpack 04DF  
        ?_i2cDataUpdate 0070             EncUpdate@t1 0020           __size_of_main 0169             ??_delay1sec 0020  
         _i2cIsrHandler 0458    __end_of_BeginEncoder 073D                intlevel1 0000          ?_i2cIsrHandler 0070  
            _OPTION_REG 0081         ??_i2cDataUpdate 0070          i2cInit@address 0020              _SSPCONbits 0014  
