

HI-TECH Software PIC LITE Macro Assembler V9.83 build 10920 
                                                                                               Fri Mar 15 16:23:46 2013

HI-TECH Software Omniscient Code Generator (Lite mode) build 10920
     1  0000                     opt subtitle "HI-TECH Software Omniscient Code Generator (Lite mode) build 10920"
     2                           
     3                           opt pagewidth 120
     4                           
     5                           	opt lm
     6                           
     7                           	processor	16F917
     8                           clrc	macro
     9                           	bcf	3,0
    10  0000                     	endm
    11                           clrz	macro
    12                           	bcf	3,2
    13  0000                     	endm
    14                           setc	macro
    15                           	bsf	3,0
    16  0000                     	endm
    17                           setz	macro
    18                           	bsf	3,2
    19  0000                     	endm
    20                           skipc	macro
    21                           	btfss	3,0
    22  0000                     	endm
    23                           skipz	macro
    24                           	btfss	3,2
    25  0000                     	endm
    26                           skipnc	macro
    27                           	btfsc	3,0
    28  0000                     	endm
    29                           skipnz	macro
    30                           	btfsc	3,2
    31  0000                     	endm
    32  0000                     indf	equ	0
    33  0000                     indf0	equ	0
    34  0002                     pc	equ	2
    35  0002                     pcl	equ	2
    36  0003                     status	equ	3
    37  0004                     fsr	equ	4
    38  0004                     fsr0	equ	4
    39  0001                     c	equ	1
    40  0000                     z	equ	0
    41  000A                     pclath	equ	10
    42                           # 22 "primarymain.c"
    43                           	psect config,class=CONFIG,delta=2 ;#
    44                           # 22 "primarymain.c"
    45  2007  F4F4               	dw 0xFFFC & 0xFFF7 & 0xFFFF & 0xFFFF & 0xFFFF & 0xFFFF & 0xFCFF & 0xFFFF & 0xF7FF ;#
    46                           	FNCALL	_main,_Initialise
    47                           	FNCALL	_main,_EncUpdate
    48                           	FNCALL	_main,_UpdateData
    49                           	FNCALL	_main,___awdiv
    50                           	FNCALL	_main,_abs
    51                           	FNCALL	_main,___aldiv
    52                           	FNCALL	_main,___awtoft
    53                           	FNCALL	_main,___ftmul
    54                           	FNCALL	_main,___ftadd
    55                           	FNCALL	_main,___fttol
    56                           	FNCALL	_main,___ftdiv
    57                           	FNCALL	_main,_SetPulse
    58                           	FNCALL	_main,_delay
    59                           	FNCALL	___awtoft,___ftpack
    60                           	FNCALL	___ftmul,___ftpack
    61                           	FNCALL	___ftdiv,___ftpack
    62                           	FNCALL	___ftadd,___ftpack
    63                           	FNCALL	_Initialise,_BeginPWM
    64                           	FNCALL	_Initialise,_BeginEncoder
    65                           	FNROOT	_main
    66                           	FNCALL	intlevel1,_isr
    67                           	global	intlevel1
    68                           	FNROOT	intlevel1
    69                           	global	_COUNTS
    70                           	global	_DIR_READ
    71                           	global	_TIME
    72                           	global	_DIRECTION
    73                           	global	_TARGET
    74                           psect	nvBANK0,class=BANK0,space=1
    75                           global __pnvBANK0
    76  0064                     __pnvBANK0:
    77  0064                     _TARGET:
    78  0064                            ds      2
    79                           
    80                           	global	_TMR1
    81  000E                     _TMR1	set	14
    82                           	global	_CCP2CON
    83  001D                     _CCP2CON	set	29
    84                           	global	_CCP2CONbits
    85  001D                     _CCP2CONbits	set	29
    86                           	global	_CCPR2L
    87  001B                     _CCPR2L	set	27
    88                           	global	_PIR1bits
    89  000C                     _PIR1bits	set	12
    90                           	global	_PORTBbits
    91  0006                     _PORTBbits	set	6
    92                           	global	_PORTD
    93  0008                     _PORTD	set	8
    94                           	global	_T1CON
    95  0010                     _T1CON	set	16
    96                           	global	_T2CON
    97  0012                     _T2CON	set	18
    98                           	global	_T2CONbits
    99  0012                     _T2CONbits	set	18
   100                           	global	_TMR0
   101  0001                     _TMR0	set	1
   102                           	global	_CARRY
   103  0018                     _CARRY	set	24
   104                           	global	_GIE
   105  005F                     _GIE	set	95
   106                           	global	_PEIE
   107  005E                     _PEIE	set	94
   108                           	global	_RB5
   109  0035                     _RB5	set	53
   110                           	global	_RBIE
   111  005B                     _RBIE	set	91
   112                           	global	_RBIF
   113  0058                     _RBIF	set	88
   114                           	global	_SSPIF
   115  0063                     _SSPIF	set	99
   116                           	global	_T0IE
   117  005D                     _T0IE	set	93
   118                           	global	_T0IF
   119  005A                     _T0IF	set	90
   120                           	global	_TMR1IF
   121  0060                     _TMR1IF	set	96
   122                           	global	_TMR2IF
   123  0061                     _TMR2IF	set	97
   124                           	global	_CMCON1
   125  0097                     _CMCON1	set	151
   126                           	global	_OPTION_REG
   127  0081                     _OPTION_REG	set	129
   128                           	global	_PIE1
   129  008C                     _PIE1	set	140
   130                           	global	_PIE1bits
   131  008C                     _PIE1bits	set	140
   132                           	global	_PIE2
   133  008D                     _PIE2	set	141
   134                           	global	_PR2
   135  0092                     _PR2	set	146
   136                           	global	_TRISB
   137  0086                     _TRISB	set	134
   138                           	global	_TRISD
   139  0088                     _TRISD	set	136
   140                           	global	_TRISDbits
   141  0088                     _TRISDbits	set	136
   142                           	global	_EEADR
   143  010D                     _EEADR	set	269
   144                           	global	_EEDATA
   145  010C                     _EEDATA	set	268
   146                           	global	_EECON1
   147  018C                     _EECON1	set	396
   148                           	global	_EECON2
   149  018D                     _EECON2	set	397
   150                           	global	_RD
   151  0C60                     _RD	set	3168
   152                           	global	_WR
   153  0C61                     _WR	set	3169
   154                           	global	_WREN
   155  0C62                     _WREN	set	3170
   156                           	global	_FLAG
   157  00AA                     _FLAG	set	170
   158                           	DABS	1,170,1	;_FLAG
   159                           
   160                           	global	_F
   161  00AA                     _F	set	170
   162                           	DABS	1,170,1	;_F
   163                           
   164                           	global	_DIR
   165  0553                     _DIR	set	1363
   166                           	DABS	1,170,1	;_DIR
   167                           
   168                           	global	_ERR
   169  0554                     _ERR	set	1364
   170                           	DABS	1,170,1	;_ERR
   171                           
   172                           	global	_I2C
   173  0550                     _I2C	set	1360
   174                           	DABS	1,170,1	;_I2C
   175                           
   176                           	global	_T0
   177  0551                     _T0	set	1361
   178                           	DABS	1,170,1	;_T0
   179                           
   180                           	global	_T1
   181  0552                     _T1	set	1362
   182                           	DABS	1,170,1	;_T1
   183                           
   184                           	file	"C:\Users\Alan\AppData\Local\Temp\s5o4."
   185                           	line	#
   186                           psect cinit,class=CODE,delta=2
   187                           global start_initialization
   188  0D95                     start_initialization:
   189                           
   190                           psect	bssCOMMON,class=COMMON,space=1
   191                           global __pbssCOMMON
   192  0071                     __pbssCOMMON:
   193  0071                     _TIME:
   194  0071                            ds      4
   195                           
   196  0075                     _DIRECTION:
   197  0075                            ds      2
   198                           
   199                           psect	bssBANK0,class=BANK0,space=1
   200                           global __pbssBANK0
   201  005E                     __pbssBANK0:
   202  005E                     _COUNTS:
   203  005E                            ds      4
   204                           
   205  0062                     _DIR_READ:
   206  0062                            ds      2
   207                           
   208                           ; Clear objects allocated to COMMON
   209                           psect cinit,class=CODE,delta=2
   210  0D95  01F1               	clrf	((__pbssCOMMON)+0)&07Fh
   211  0D96  01F2               	clrf	((__pbssCOMMON)+1)&07Fh
   212  0D97  01F3               	clrf	((__pbssCOMMON)+2)&07Fh
   213  0D98  01F4               	clrf	((__pbssCOMMON)+3)&07Fh
   214  0D99  01F5               	clrf	((__pbssCOMMON)+4)&07Fh
   215  0D9A  01F6               	clrf	((__pbssCOMMON)+5)&07Fh
   216                           ; Clear objects allocated to BANK0
   217                           psect cinit,class=CODE,delta=2
   218  0D9B  01DE               	clrf	((__pbssBANK0)+0)&07Fh
   219  0D9C  01DF               	clrf	((__pbssBANK0)+1)&07Fh
   220  0D9D  01E0               	clrf	((__pbssBANK0)+2)&07Fh
   221  0D9E  01E1               	clrf	((__pbssBANK0)+3)&07Fh
   222  0D9F  01E2               	clrf	((__pbssBANK0)+4)&07Fh
   223  0DA0  01E3               	clrf	((__pbssBANK0)+5)&07Fh
   224                           psect cinit,class=CODE,delta=2
   225                           global end_of_initialization
   226                           
   227                           ;End of C runtime variable initialization code
   228                           
   229  0DA1                     end_of_initialization:
   230  0DA1  0183               clrf status
   231  0DA2  120A  118A  2CEF   ljmp _main	;jump to C main() function
   232                           psect	cstackBANK1h,class=BANK1,space=1
   233                           global __pcstackBANK1h
   234  00AB                     __pcstackBANK1h:
   235                           	global	main@PID
   236  00AB                     main@PID:	; 2 bytes @ 0x0
   237  00AB                     	ds	2
   238                           	global	main@t
   239  00AD                     main@t:	; 1 bytes @ 0x2
   240  00AD                     	ds	1
   241                           	global	main@c
   242  00AE                     main@c:	; 1 bytes @ 0x3
   243  00AE                     	ds	1
   244                           	global	main@D
   245  00AF                     main@D:	; 2 bytes @ 0x4
   246  00AF                     	ds	2
   247                           	global	main@P_old
   248  00B1                     main@P_old:	; 2 bytes @ 0x6
   249  00B1                     	ds	2
   250                           	global	main@I
   251  00B3                     main@I:	; 2 bytes @ 0x8
   252  00B3                     	ds	2
   253                           	global	main@currentPWM
   254  00B5                     main@currentPWM:	; 2 bytes @ 0xA
   255  00B5                     	ds	2
   256                           	global	main@v
   257  00B7                     main@v:	; 2 bytes @ 0xC
   258  00B7                     	ds	2
   259                           	global	main@P
   260  00B9                     main@P:	; 2 bytes @ 0xE
   261  00B9                     	ds	2
   262                           	global	main@time
   263  00BB                     main@time:	; 2 bytes @ 0x10
   264  00BB                     	ds	2
   265                           	global	main@counts
   266  00BD                     main@counts:	; 2 bytes @ 0x12
   267  00BD                     	ds	2
   268                           psect	cstackCOMMON,class=COMMON,space=1
   269                           global __pcstackCOMMON
   270  0077                     __pcstackCOMMON:
   271                           	global	?_Initialise
   272  0077                     ?_Initialise:	; 0 bytes @ 0x0
   273                           	global	?_BeginPWM
   274  0077                     ?_BeginPWM:	; 0 bytes @ 0x0
   275                           	global	?_BeginEncoder
   276  0077                     ?_BeginEncoder:	; 0 bytes @ 0x0
   277                           	global	?_isr
   278  0077                     ?_isr:	; 0 bytes @ 0x0
   279                           	global	??_isr
   280  0077                     ??_isr:	; 0 bytes @ 0x0
   281                           	global	?_main
   282  0077                     ?_main:	; 2 bytes @ 0x0
   283  0077                     	ds	6
   284                           psect	cstackBANK0,class=BANK0,space=1
   285                           global __pcstackBANK0
   286  0020                     __pcstackBANK0:
   287                           	global	??_Initialise
   288  0020                     ??_Initialise:	; 0 bytes @ 0x0
   289                           	global	?_EncUpdate
   290  0020                     ?_EncUpdate:	; 0 bytes @ 0x0
   291                           	global	?_UpdateData
   292  0020                     ?_UpdateData:	; 0 bytes @ 0x0
   293                           	global	?_SetPulse
   294  0020                     ?_SetPulse:	; 0 bytes @ 0x0
   295                           	global	?_delay
   296  0020                     ?_delay:	; 0 bytes @ 0x0
   297                           	global	??_BeginPWM
   298  0020                     ??_BeginPWM:	; 0 bytes @ 0x0
   299                           	global	??_BeginEncoder
   300  0020                     ??_BeginEncoder:	; 0 bytes @ 0x0
   301                           	global	?_abs
   302  0020                     ?_abs:	; 2 bytes @ 0x0
   303                           	global	?___ftpack
   304  0020                     ?___ftpack:	; 3 bytes @ 0x0
   305                           	global	?___aldiv
   306  0020                     ?___aldiv:	; 4 bytes @ 0x0
   307                           	global	UpdateData@t
   308  0020                     UpdateData@t:	; 2 bytes @ 0x0
   309                           	global	abs@a
   310  0020                     abs@a:	; 2 bytes @ 0x0
   311                           	global	delay@length
   312  0020                     delay@length:	; 2 bytes @ 0x0
   313                           	global	SetPulse@length
   314  0020                     SetPulse@length:	; 2 bytes @ 0x0
   315                           	global	EncUpdate@t0
   316  0020                     EncUpdate@t0:	; 2 bytes @ 0x0
   317                           	global	___ftpack@arg
   318  0020                     ___ftpack@arg:	; 3 bytes @ 0x0
   319                           	global	___aldiv@divisor
   320  0020                     ___aldiv@divisor:	; 4 bytes @ 0x0
   321  0020                     	ds	2
   322                           	global	??_SetPulse
   323  0022                     ??_SetPulse:	; 0 bytes @ 0x2
   324                           	global	??_delay
   325  0022                     ??_delay:	; 0 bytes @ 0x2
   326                           	global	UpdateData@c
   327  0022                     UpdateData@c:	; 2 bytes @ 0x2
   328                           	global	abs@b
   329  0022                     abs@b:	; 2 bytes @ 0x2
   330                           	global	SetPulse@temp
   331  0022                     SetPulse@temp:	; 2 bytes @ 0x2
   332                           	global	EncUpdate@t1
   333  0022                     EncUpdate@t1:	; 2 bytes @ 0x2
   334  0022                     	ds	1
   335                           	global	___ftpack@exp
   336  0023                     ___ftpack@exp:	; 1 bytes @ 0x3
   337                           	global	delay@x
   338  0023                     delay@x:	; 2 bytes @ 0x3
   339  0023                     	ds	1
   340                           	global	??_EncUpdate
   341  0024                     ??_EncUpdate:	; 0 bytes @ 0x4
   342                           	global	??_UpdateData
   343  0024                     ??_UpdateData:	; 0 bytes @ 0x4
   344                           	global	??_abs
   345  0024                     ??_abs:	; 0 bytes @ 0x4
   346                           	global	___ftpack@sign
   347  0024                     ___ftpack@sign:	; 1 bytes @ 0x4
   348                           	global	___aldiv@dividend
   349  0024                     ___aldiv@dividend:	; 4 bytes @ 0x4
   350  0024                     	ds	1
   351                           	global	??___ftpack
   352  0025                     ??___ftpack:	; 0 bytes @ 0x5
   353  0025                     	ds	1
   354                           	global	abs@temp
   355  0026                     abs@temp:	; 2 bytes @ 0x6
   356  0026                     	ds	2
   357                           	global	??___aldiv
   358  0028                     ??___aldiv:	; 0 bytes @ 0x8
   359                           	global	?___awdiv
   360  0028                     ?___awdiv:	; 2 bytes @ 0x8
   361                           	global	?___fttol
   362  0028                     ?___fttol:	; 4 bytes @ 0x8
   363                           	global	___awdiv@divisor
   364  0028                     ___awdiv@divisor:	; 2 bytes @ 0x8
   365                           	global	___fttol@f1
   366  0028                     ___fttol@f1:	; 3 bytes @ 0x8
   367  0028                     	ds	1
   368                           	global	___aldiv@counter
   369  0029                     ___aldiv@counter:	; 1 bytes @ 0x9
   370  0029                     	ds	1
   371                           	global	___aldiv@sign
   372  002A                     ___aldiv@sign:	; 1 bytes @ 0xA
   373                           	global	___awdiv@dividend
   374  002A                     ___awdiv@dividend:	; 2 bytes @ 0xA
   375  002A                     	ds	1
   376                           	global	___aldiv@quotient
   377  002B                     ___aldiv@quotient:	; 4 bytes @ 0xB
   378  002B                     	ds	1
   379                           	global	??___fttol
   380  002C                     ??___fttol:	; 0 bytes @ 0xC
   381                           	global	??___awdiv
   382  002C                     ??___awdiv:	; 0 bytes @ 0xC
   383  002C                     	ds	1
   384                           	global	___awdiv@counter
   385  002D                     ___awdiv@counter:	; 1 bytes @ 0xD
   386  002D                     	ds	1
   387                           	global	___awdiv@sign
   388  002E                     ___awdiv@sign:	; 1 bytes @ 0xE
   389  002E                     	ds	1
   390                           	global	___awdiv@quotient
   391  002F                     ___awdiv@quotient:	; 2 bytes @ 0xF
   392  002F                     	ds	1
   393                           	global	___fttol@sign1
   394  0030                     ___fttol@sign1:	; 1 bytes @ 0x10
   395  0030                     	ds	1
   396                           	global	___fttol@lval
   397  0031                     ___fttol@lval:	; 4 bytes @ 0x11
   398  0031                     	ds	4
   399                           	global	___fttol@exp1
   400  0035                     ___fttol@exp1:	; 1 bytes @ 0x15
   401  0035                     	ds	1
   402                           	global	?___awtoft
   403  0036                     ?___awtoft:	; 3 bytes @ 0x16
   404                           	global	___awtoft@c
   405  0036                     ___awtoft@c:	; 2 bytes @ 0x16
   406  0036                     	ds	3
   407                           	global	??___awtoft
   408  0039                     ??___awtoft:	; 0 bytes @ 0x19
   409  0039                     	ds	2
   410                           	global	___awtoft@sign
   411  003B                     ___awtoft@sign:	; 1 bytes @ 0x1B
   412  003B                     	ds	1
   413                           	global	?___ftmul
   414  003C                     ?___ftmul:	; 3 bytes @ 0x1C
   415                           	global	___ftmul@f1
   416  003C                     ___ftmul@f1:	; 3 bytes @ 0x1C
   417  003C                     	ds	3
   418                           	global	___ftmul@f2
   419  003F                     ___ftmul@f2:	; 3 bytes @ 0x1F
   420  003F                     	ds	3
   421                           	global	??___ftmul
   422  0042                     ??___ftmul:	; 0 bytes @ 0x22
   423  0042                     	ds	4
   424                           	global	___ftmul@exp
   425  0046                     ___ftmul@exp:	; 1 bytes @ 0x26
   426  0046                     	ds	1
   427                           	global	___ftmul@f3_as_product
   428  0047                     ___ftmul@f3_as_product:	; 3 bytes @ 0x27
   429  0047                     	ds	3
   430                           	global	___ftmul@cntr
   431  004A                     ___ftmul@cntr:	; 1 bytes @ 0x2A
   432  004A                     	ds	1
   433                           	global	___ftmul@sign
   434  004B                     ___ftmul@sign:	; 1 bytes @ 0x2B
   435  004B                     	ds	1
   436                           	global	?___ftadd
   437  004C                     ?___ftadd:	; 3 bytes @ 0x2C
   438                           	global	?___ftdiv
   439  004C                     ?___ftdiv:	; 3 bytes @ 0x2C
   440                           	global	___ftadd@f1
   441  004C                     ___ftadd@f1:	; 3 bytes @ 0x2C
   442                           	global	___ftdiv@f2
   443  004C                     ___ftdiv@f2:	; 3 bytes @ 0x2C
   444  004C                     	ds	3
   445                           	global	___ftadd@f2
   446  004F                     ___ftadd@f2:	; 3 bytes @ 0x2F
   447                           	global	___ftdiv@f1
   448  004F                     ___ftdiv@f1:	; 3 bytes @ 0x2F
   449  004F                     	ds	3
   450                           	global	??___ftadd
   451  0052                     ??___ftadd:	; 0 bytes @ 0x32
   452                           	global	??___ftdiv
   453  0052                     ??___ftdiv:	; 0 bytes @ 0x32
   454  0052                     	ds	4
   455                           	global	___ftadd@sign
   456  0056                     ___ftadd@sign:	; 1 bytes @ 0x36
   457                           	global	___ftdiv@cntr
   458  0056                     ___ftdiv@cntr:	; 1 bytes @ 0x36
   459  0056                     	ds	1
   460                           	global	___ftadd@exp2
   461  0057                     ___ftadd@exp2:	; 1 bytes @ 0x37
   462                           	global	___ftdiv@f3
   463  0057                     ___ftdiv@f3:	; 3 bytes @ 0x37
   464  0057                     	ds	1
   465                           	global	___ftadd@exp1
   466  0058                     ___ftadd@exp1:	; 1 bytes @ 0x38
   467  0058                     	ds	2
   468                           	global	___ftdiv@exp
   469  005A                     ___ftdiv@exp:	; 1 bytes @ 0x3A
   470  005A                     	ds	1
   471                           	global	___ftdiv@sign
   472  005B                     ___ftdiv@sign:	; 1 bytes @ 0x3B
   473  005B                     	ds	1
   474                           	global	??_main
   475  005C                     ??_main:	; 0 bytes @ 0x3C
   476  005C                     	ds	2
   477 ;;Data sizes: Strings 0, constant 0, data 0, bss 12, persistent 2 stack 0
   478 ;;Auto spaces:   Size  Autos    Used
   479 ;; COMMON          13      6      12
   480 ;; BANK0           80     62      70
   481 ;; BANK1h          69     20      20
   482 ;; BANK1l          10      0       0
   483 ;; BANK3           96      0       0
   484 ;; BANK2           69      0       0
   485                           
   486 ;;
   487 ;; Pointer list with targets:
   488                           
   489 ;; ?___ftpack	float  size(1) Largest target is 2
   490 ;;		 -> main@PID(BANK1h[2]), 
   491 ;;
   492 ;; ?___fttol	long  size(1) Largest target is 0
   493 ;;
   494 ;; ?___ftdiv	float  size(1) Largest target is 0
   495 ;;
   496 ;; ?___ftmul	float  size(1) Largest target is 0
   497 ;;
   498 ;; ?___awtoft	float  size(1) Largest target is 0
   499 ;;
   500 ;; ?___ftadd	float  size(1) Largest target is 0
   501 ;;
   502 ;; ?___aldiv	long  size(1) Largest target is 0
   503 ;;
   504 ;; ?_abs	int  size(1) Largest target is 2
   505 ;;		 -> abs@temp(BANK0[2]), 
   506 ;;
   507 ;; ?___awdiv	int  size(1) Largest target is 0
   508 ;;
   509 ;; EncUpdate@t0	PTR int  size(2) Largest target is 512
   510 ;;		 -> RAM(DATA[512]), main@time(BANK1h[2]), 
   511 ;;
   512 ;; EncUpdate@t1	PTR int  size(2) Largest target is 512
   513 ;;		 -> RAM(DATA[512]), main@counts(BANK1h[2]), 
   514 ;;
   515                           
   516                           
   517 ;;
   518 ;; Critical Paths under _main in COMMON
   519 ;;
   520 ;;   None.
   521 ;;
   522 ;; Critical Paths under _isr in COMMON
   523 ;;
   524 ;;   None.
   525 ;;
   526 ;; Critical Paths under _main in BANK0
   527 ;;
   528 ;;   _main->___ftdiv
   529 ;;   ___awtoft->___fttol
   530 ;;   ___ftmul->___awtoft
   531 ;;   ___ftdiv->___ftmul
   532 ;;   ___ftadd->___ftmul
   533 ;;   ___awdiv->_abs
   534 ;;   ___fttol->___ftpack
   535 ;;
   536 ;; Critical Paths under _isr in BANK0
   537 ;;
   538 ;;   None.
   539 ;;
   540 ;; Critical Paths under _main in BANK1h
   541 ;;
   542 ;;   None.
   543 ;;
   544 ;; Critical Paths under _isr in BANK1h
   545 ;;
   546 ;;   None.
   547 ;;
   548 ;; Critical Paths under _main in BANK1l
   549 ;;
   550 ;;   None.
   551 ;;
   552 ;; Critical Paths under _isr in BANK1l
   553 ;;
   554 ;;   None.
   555 ;;
   556 ;; Critical Paths under _main in BANK3
   557 ;;
   558 ;;   None.
   559 ;;
   560 ;; Critical Paths under _isr in BANK3
   561 ;;
   562 ;;   None.
   563 ;;
   564 ;; Critical Paths under _main in BANK2
   565 ;;
   566 ;;   None.
   567 ;;
   568 ;; Critical Paths under _isr in BANK2
   569 ;;
   570 ;;   None.
   571                           
   572 ;;
   573 ;;Main: autosize = 0, tempsize = 2, incstack = 0, save=0
   574 ;;
   575                           
   576 ;;
   577 ;;Call Graph Tables:
   578 ;;
   579 ;; ---------------------------------------------------------------------------------
   580 ;; (Depth) Function   	        Calls       Base Space   Used Autos Params    Refs
   581 ;; ---------------------------------------------------------------------------------
   582 ;; (0) _main                                                22    22      0    6189
   583 ;;                                             60 BANK0      2     2      0
   584 ;;                                              0 BANK1h    20    20      0
   585 ;;                         _Initialise
   586 ;;                          _EncUpdate
   587 ;;                         _UpdateData
   588 ;;                            ___awdiv
   589 ;;                                _abs
   590 ;;                            ___aldiv
   591 ;;                           ___awtoft
   592 ;;                            ___ftmul
   593 ;;                            ___ftadd
   594 ;;                            ___fttol
   595 ;;                            ___ftdiv
   596 ;;                           _SetPulse
   597 ;;                              _delay
   598 ;; ---------------------------------------------------------------------------------
   599 ;; (1) ___awtoft                                             6     3      3     445
   600 ;;                                             22 BANK0      6     3      3
   601 ;;                           ___ftpack
   602 ;;                            ___fttol (ARG)
   603 ;; ---------------------------------------------------------------------------------
   604 ;; (1) ___ftmul                                             16    10      6     800
   605 ;;                                             28 BANK0     16    10      6
   606 ;;                           ___ftpack
   607 ;;                           ___awtoft (ARG)
   608 ;;                            ___fttol (ARG)
   609 ;; ---------------------------------------------------------------------------------
   610 ;; (1) ___ftdiv                                             16    10      6     732
   611 ;;                                             44 BANK0     16    10      6
   612 ;;                           ___ftpack
   613 ;;                            ___ftmul (ARG)
   614 ;;                           ___awtoft (ARG)
   615 ;;                            ___fttol (ARG)
   616 ;; ---------------------------------------------------------------------------------
   617 ;; (1) ___ftadd                                             13     7      6    1537
   618 ;;                                             44 BANK0     13     7      6
   619 ;;                           ___ftpack
   620 ;;                            ___ftmul (ARG)
   621 ;;                           ___awtoft (ARG)
   622 ;;                            ___fttol (ARG)
   623 ;; ---------------------------------------------------------------------------------
   624 ;; (1) _Initialise                                           0     0      0       0
   625 ;;                           _BeginPWM
   626 ;;                       _BeginEncoder
   627 ;; ---------------------------------------------------------------------------------
   628 ;; (1) ___aldiv                                             15     7      8     445
   629 ;;                                              0 BANK0     15     7      8
   630 ;; ---------------------------------------------------------------------------------
   631 ;; (1) ___awdiv                                              9     5      4     445
   632 ;;                                              8 BANK0      9     5      4
   633 ;;                                _abs (ARG)
   634 ;; ---------------------------------------------------------------------------------
   635 ;; (1) ___fttol                                             14    10      4     371
   636 ;;                                              8 BANK0     14    10      4
   637 ;;                           ___ftpack (ARG)
   638 ;; ---------------------------------------------------------------------------------
   639 ;; (2) ___ftpack                                             8     3      5     312
   640 ;;                                              0 BANK0      8     3      5
   641 ;; ---------------------------------------------------------------------------------
   642 ;; (2) _BeginEncoder                                         0     0      0       0
   643 ;; ---------------------------------------------------------------------------------
   644 ;; (2) _BeginPWM                                             0     0      0       0
   645 ;; ---------------------------------------------------------------------------------
   646 ;; (1) _delay                                                5     3      2      74
   647 ;;                                              0 BANK0      5     3      2
   648 ;; ---------------------------------------------------------------------------------
   649 ;; (1) _SetPulse                                             4     2      2      99
   650 ;;                                              0 BANK0      4     2      2
   651 ;; ---------------------------------------------------------------------------------
   652 ;; (1) _abs                                                  8     4      4     161
   653 ;;                                              0 BANK0      8     4      4
   654 ;; ---------------------------------------------------------------------------------
   655 ;; (1) _UpdateData                                           8     4      4     124
   656 ;;                                              0 BANK0      8     4      4
   657 ;; ---------------------------------------------------------------------------------
   658 ;; (1) _EncUpdate                                            6     2      4      62
   659 ;;                                              0 BANK0      6     2      4
   660 ;; ---------------------------------------------------------------------------------
   661 ;; Estimated maximum stack depth 2
   662 ;; ---------------------------------------------------------------------------------
   663 ;; (Depth) Function   	        Calls       Base Space   Used Autos Params    Refs
   664 ;; ---------------------------------------------------------------------------------
   665 ;; (3) _isr                                                  6     6      0       0
   666 ;;                                              0 COMMON     6     6      0
   667 ;; ---------------------------------------------------------------------------------
   668 ;; Estimated maximum stack depth 3
   669 ;; ---------------------------------------------------------------------------------
   670                           
   671 ;; Call Graph Graphs:
   672                           
   673 ;; _main (ROOT)
   674 ;;   _Initialise
   675 ;;     _BeginPWM
   676 ;;     _BeginEncoder
   677 ;;   _EncUpdate
   678 ;;   _UpdateData
   679 ;;   ___awdiv
   680 ;;     _abs (ARG)
   681 ;;   _abs
   682 ;;   ___aldiv
   683 ;;   ___awtoft
   684 ;;     ___ftpack
   685 ;;     ___fttol (ARG)
   686 ;;       ___ftpack (ARG)
   687 ;;   ___ftmul
   688 ;;     ___ftpack
   689 ;;     ___awtoft (ARG)
   690 ;;       ___ftpack
   691 ;;       ___fttol (ARG)
   692 ;;         ___ftpack (ARG)
   693 ;;     ___fttol (ARG)
   694 ;;       ___ftpack (ARG)
   695 ;;   ___ftadd
   696 ;;     ___ftpack
   697 ;;     ___ftmul (ARG)
   698 ;;       ___ftpack
   699 ;;       ___awtoft (ARG)
   700 ;;         ___ftpack
   701 ;;         ___fttol (ARG)
   702 ;;           ___ftpack (ARG)
   703 ;;       ___fttol (ARG)
   704 ;;         ___ftpack (ARG)
   705 ;;     ___awtoft (ARG)
   706 ;;       ___ftpack
   707 ;;       ___fttol (ARG)
   708 ;;         ___ftpack (ARG)
   709 ;;     ___fttol (ARG)
   710 ;;       ___ftpack (ARG)
   711 ;;   ___fttol
   712 ;;     ___ftpack (ARG)
   713 ;;   ___ftdiv
   714 ;;     ___ftpack
   715 ;;     ___ftmul (ARG)
   716 ;;       ___ftpack
   717 ;;       ___awtoft (ARG)
   718 ;;         ___ftpack
   719 ;;         ___fttol (ARG)
   720 ;;           ___ftpack (ARG)
   721 ;;       ___fttol (ARG)
   722 ;;         ___ftpack (ARG)
   723 ;;     ___awtoft (ARG)
   724 ;;       ___ftpack
   725 ;;       ___fttol (ARG)
   726 ;;         ___ftpack (ARG)
   727 ;;     ___fttol (ARG)
   728 ;;       ___ftpack (ARG)
   729 ;;   _SetPulse
   730 ;;   _delay
   731 ;;
   732 ;; _isr (ROOT)
   733 ;;
   734                           
   735 ;; Address spaces:
   736                           
   737 ;;Name               Size   Autos  Total    Cost      Usage
   738 ;;BITCOMMON            D      0       0       0        0.0%
   739 ;;EEDATA             100      0       0       0        0.0%
   740 ;;NULL                 0      0       0       0        0.0%
   741 ;;CODE                 0      0       0       0        0.0%
   742 ;;COMMON               D      6       C       1       92.3%
   743 ;;BITSFR0              0      0       0       1        0.0%
   744 ;;SFR0                 0      0       0       1        0.0%
   745 ;;BITSFR1              0      0       0       2        0.0%
   746 ;;SFR1                 0      0       0       2        0.0%
   747 ;;STACK                0      0       2       2        0.0%
   748 ;;BITBANK0            50      0       0       3        0.0%
   749 ;;BANK0               50     3E      46       4       87.5%
   750 ;;BITSFR3              0      0       0       4        0.0%
   751 ;;SFR3                 0      0       0       4        0.0%
   752 ;;BITBANK1h           45      0       0       5        0.0%
   753 ;;BITSFR2              0      0       0       5        0.0%
   754 ;;SFR2                 0      0       0       5        0.0%
   755 ;;BITBANK1l            A      0       0       6        0.0%
   756 ;;BANK1h              45     14      14       7       29.0%
   757 ;;BANK1l               A      0       0       8        0.0%
   758 ;;BITBANK3            60      0       0       9        0.0%
   759 ;;BANK3               60      0       0      10        0.0%
   760 ;;BANK2               45      0       0      11        0.0%
   761 ;;ABS                  0      0      66      12        0.0%
   762 ;;BITBANK2            45      0       0      13        0.0%
   763 ;;DATA                 0      0      68      14        0.0%
   764                           
   765                           	global	_main
   766                           psect	maintext,global,class=CODE,delta=2
   767                           global __pmaintext
   768  04EF                     __pmaintext:
   769                           
   770 ;; *************** function _main *****************
   771 ;; Defined at:
   772 ;;		line 99 in file "primarymain.c"
   773 ;; Parameters:    Size  Location     Type
   774 ;;		None
   775 ;; Auto vars:     Size  Location     Type
   776 ;;  counts          2   18[BANK1h] int 
   777 ;;  time            2   16[BANK1h] int 
   778 ;;  P               2   14[BANK1h] int 
   779 ;;  v               2   12[BANK1h] int 
   780 ;;  currentPWM      2   10[BANK1h] int 
   781 ;;  I               2    8[BANK1h] int 
   782 ;;  P_old           2    6[BANK1h] int 
   783 ;;  D               2    4[BANK1h] int 
   784 ;;  PID             2    0[BANK1h] int 
   785 ;;  c               1    3[BANK1h] PTR int 
   786 ;;  t               1    2[BANK1h] PTR int 
   787 ;; Return value:  Size  Location     Type
   788 ;;                  2  1530[COMMON] int 
   789 ;; Registers used:
   790 ;;		wreg, fsr0l, fsr0h, status,2, status,0, btemp+1, pclath, cstack
   791 ;; Tracked objects:
   792 ;;		On entry : 17F/0
   793 ;;		On exit  : 0/0
   794 ;;		Unchanged: 0/0
   795 ;; Data sizes:     COMMON   BANK0  BANK1h  BANK1l   BANK3   BANK2
   796 ;;      Params:         0       0       0       0       0       0
   797 ;;      Locals:         0       0      20       0       0       0
   798 ;;      Temps:          0       2       0       0       0       0
   799 ;;      Totals:         0       2      20       0       0       0
   800 ;;Total ram usage:       22 bytes
   801 ;; Hardware stack levels required when called:    3
   802 ;; This function calls:
   803 ;;		_Initialise
   804 ;;		_EncUpdate
   805 ;;		_UpdateData
   806 ;;		___awdiv
   807 ;;		_abs
   808 ;;		___aldiv
   809 ;;		___awtoft
   810 ;;		___ftmul
   811 ;;		___ftadd
   812 ;;		___fttol
   813 ;;		___ftdiv
   814 ;;		_SetPulse
   815 ;;		_delay
   816 ;; This function is called by:
   817 ;;		Startup code after reset
   818 ;; This function uses a non-reentrant model
   819 ;;
   820                           psect	maintext
   821                           	file	"primarymain.c"
   822                           	line	99
   823                           	global	__size_of_main
   824  0311                     	__size_of_main	equ	__end_of_main-_main
   825                           	
   826  04EF                     _main:	
   827                           	opt	stack 5
   828                           ; Regs used in _main: [wreg-fsr0h+status,2+status,0+btemp+1+pclath+cstack]
   829                           	line	101
   830                           	
   831  04EF                     l10391:	
   832                           ;primarymain.c: 101: int time = 0, counts = 0;
   833  04EF  1683               	bsf	status, 5	;RP0=1, select bank1
   834  04F0  1303               	bcf	status, 6	;RP1=0, select bank1
   835  04F1  01BB               	clrf	(main@time)^080h
   836  04F2  01BC               	clrf	(main@time+1)^080h
   837                           ;primarymain.c: 106: *c = counts;
   838  04F3  01BD               	clrf	(main@counts)^080h
   839  04F4  01BE               	clrf	(main@counts+1)^080h
   840                           	line	107
   841                           ;primarymain.c: 107: int currentPWM = 0;
   842  04F5  01B5               	clrf	(main@currentPWM)^080h
   843  04F6  01B6               	clrf	(main@currentPWM+1)^080h
   844                           	line	110
   845                           ;primarymain.c: 108: int v;
   846                           ;primarymain.c: 110: int P, I, D, P_old = 0, PID;
   847  04F7  01B1               	clrf	(main@P_old)^080h
   848  04F8  01B2               	clrf	(main@P_old+1)^080h
   849                           	line	112
   850                           	
   851  04F9                     l10393:	
   852                           ;primarymain.c: 112: TARGET = 30;
   853  04F9  301E               	movlw	low(01Eh)
   854  04FA  1283               	bcf	status, 5	;RP0=0, select bank0
   855  04FB  1303               	bcf	status, 6	;RP1=0, select bank0
   856  04FC  00E4               	movwf	(_TARGET)
   857  04FD  3000               	movlw	high(01Eh)
   858  04FE  00E5               	movwf	((_TARGET))+1
   859                           	line	116
   860                           	
   861  04FF                     l10395:	
   862                           ;primarymain.c: 116: Initialise();
   863  04FF  120A  158A  2623   	fcall	_Initialise
              120A  118A         
   864  0504  2D05               	goto	l10397
   865                           	line	118
   866                           ;primarymain.c: 118: while(1)
   867                           	
   868  0505                     l1531:	
   869                           	line	120
   870                           	
   871  0505                     l10397:	
   872                           ;primarymain.c: 119: {
   873                           ;primarymain.c: 120: if (F.I2C == 1)
   874  0505  1683               	bsf	status, 5	;RP0=1, select bank1
   875  0506  1303               	bcf	status, 6	;RP1=0, select bank1
   876  0507  1C2A               	btfss	(170)^080h,0
   877  0508  2D0A               	goto	u4671
   878  0509  2D0B               	goto	u4670
   879  050A                     u4671:
   880  050A  2D27               	goto	l10409
   881  050B                     u4670:
   882                           	line	126
   883                           	
   884  050B                     l10399:	
   885                           ;primarymain.c: 121: {
   886                           ;primarymain.c: 126: TIME = 0;
   887  050B  3000               	movlw	0
   888  050C  00F4               	movwf	(_TIME+3)
   889  050D  3000               	movlw	0
   890  050E  00F3               	movwf	(_TIME+2)
   891  050F  3000               	movlw	0
   892  0510  00F2               	movwf	(_TIME+1)
   893  0511  3000               	movlw	0
   894  0512  00F1               	movwf	(_TIME)
   895                           
   896                           	line	127
   897                           ;primarymain.c: 127: COUNTS = 0;
   898  0513  3000               	movlw	0
   899  0514  1283               	bcf	status, 5	;RP0=0, select bank0
   900  0515  1303               	bcf	status, 6	;RP1=0, select bank0
   901  0516  00E1               	movwf	(_COUNTS+3)
   902  0517  3000               	movlw	0
   903  0518  00E0               	movwf	(_COUNTS+2)
   904  0519  3000               	movlw	0
   905  051A  00DF               	movwf	(_COUNTS+1)
   906  051B  3000               	movlw	0
   907  051C  00DE               	movwf	(_COUNTS)
   908                           
   909                           	line	128
   910                           	
   911  051D                     l10401:	
   912                           ;primarymain.c: 128: I = 0;
   913  051D  1683               	bsf	status, 5	;RP0=1, select bank1
   914  051E  1303               	bcf	status, 6	;RP1=0, select bank1
   915  051F  01B3               	clrf	(main@I)^080h
   916  0520  01B4               	clrf	(main@I+1)^080h
   917                           	line	129
   918                           	
   919  0521                     l10403:	
   920                           ;primarymain.c: 129: D = 0;
   921  0521  01AF               	clrf	(main@D)^080h
   922  0522  01B0               	clrf	(main@D+1)^080h
   923                           	line	130
   924                           	
   925  0523                     l10405:	
   926                           ;primarymain.c: 130: P_old = 0;
   927  0523  01B1               	clrf	(main@P_old)^080h
   928  0524  01B2               	clrf	(main@P_old+1)^080h
   929                           	line	133
   930                           	
   931  0525                     l10407:	
   932                           ;primarymain.c: 133: F.I2C = 0;
   933  0525  102A               	bcf	(170)^080h,0
   934  0526  2D27               	goto	l10409
   935                           	line	134
   936                           	
   937  0527                     l1532:	
   938                           	line	136
   939                           	
   940  0527                     l10409:	
   941                           ;primarymain.c: 134: }
   942                           ;primarymain.c: 136: if (F.DIR == 1)
   943  0527  1DAA               	btfss	(170)^080h,3
   944  0528  2D2A               	goto	u4681
   945  0529  2D2B               	goto	u4680
   946  052A                     u4681:
   947  052A  2FF4               	goto	l10451
   948  052B                     u4680:
   949                           	line	139
   950                           	
   951  052B                     l10411:	
   952                           ;primarymain.c: 137: {
   953                           ;primarymain.c: 139: EncUpdate(*t, *c);
   954  052B  082D               	movf	(main@t)^080h,w
   955  052C  0084               	movwf	fsr0
   956  052D  1383               	bcf	status, 7	;select IRP bank0
   957  052E  0800               	movf	indf,w
   958  052F  1283               	bcf	status, 5	;RP0=0, select bank0
   959  0530  1303               	bcf	status, 6	;RP1=0, select bank0
   960  0531  00A0               	movwf	(?_EncUpdate)
   961  0532  0A84               	incf	fsr0,f
   962  0533  0800               	movf	indf,w
   963  0534  00A1               	movwf	(?_EncUpdate+1)
   964  0535  1683               	bsf	status, 5	;RP0=1, select bank1
   965  0536  1303               	bcf	status, 6	;RP1=0, select bank1
   966  0537  082E               	movf	(main@c)^080h,w
   967  0538  0084               	movwf	fsr0
   968  0539  0800               	movf	indf,w
   969  053A  1283               	bcf	status, 5	;RP0=0, select bank0
   970  053B  1303               	bcf	status, 6	;RP1=0, select bank0
   971  053C  00A2               	movwf	(0+?_EncUpdate+02h)
   972  053D  0A84               	incf	fsr0,f
   973  053E  0800               	movf	indf,w
   974  053F  00A3               	movwf	(1+?_EncUpdate+02h)
   975  0540  120A  158A  25A5   	fcall	_EncUpdate
              120A  118A         
   976                           	line	140
   977                           	
   978  0545                     l10413:	
   979                           ;primarymain.c: 140: UpdateData(time, counts);
   980  0545  1683               	bsf	status, 5	;RP0=1, select bank1
   981  0546  1303               	bcf	status, 6	;RP1=0, select bank1
   982  0547  083C               	movf	(main@time+1)^080h,w
   983  0548  1283               	bcf	status, 5	;RP0=0, select bank0
   984  0549  1303               	bcf	status, 6	;RP1=0, select bank0
   985  054A  01A1               	clrf	(?_UpdateData+1)
   986  054B  07A1               	addwf	(?_UpdateData+1)
   987  054C  1683               	bsf	status, 5	;RP0=1, select bank1
   988  054D  1303               	bcf	status, 6	;RP1=0, select bank1
   989  054E  083B               	movf	(main@time)^080h,w
   990  054F  1283               	bcf	status, 5	;RP0=0, select bank0
   991  0550  1303               	bcf	status, 6	;RP1=0, select bank0
   992  0551  01A0               	clrf	(?_UpdateData)
   993  0552  07A0               	addwf	(?_UpdateData)
   994                           
   995  0553  1683               	bsf	status, 5	;RP0=1, select bank1
   996  0554  1303               	bcf	status, 6	;RP1=0, select bank1
   997  0555  083E               	movf	(main@counts+1)^080h,w
   998  0556  1283               	bcf	status, 5	;RP0=0, select bank0
   999  0557  1303               	bcf	status, 6	;RP1=0, select bank0
  1000  0558  01A3               	clrf	1+(?_UpdateData)+02h
  1001  0559  07A3               	addwf	1+(?_UpdateData)+02h
  1002  055A  1683               	bsf	status, 5	;RP0=1, select bank1
  1003  055B  1303               	bcf	status, 6	;RP1=0, select bank1
  1004  055C  083D               	movf	(main@counts)^080h,w
  1005  055D  1283               	bcf	status, 5	;RP0=0, select bank0
  1006  055E  1303               	bcf	status, 6	;RP1=0, select bank0
  1007  055F  01A2               	clrf	0+(?_UpdateData)+02h
  1008  0560  07A2               	addwf	0+(?_UpdateData)+02h
  1009                           
  1010  0561  120A  118A  201D   	fcall	_UpdateData
              120A  118A         
  1011                           	line	143
  1012                           	
  1013  0566                     l10415:	
  1014                           ;primarymain.c: 143: DIR_READ = RB5;
  1015  0566  1003               	clrc
  1016  0567  1283               	bcf	status, 5	;RP0=0, select bank0
  1017  0568  1303               	bcf	status, 6	;RP1=0, select bank0
  1018  0569  1A86               	btfsc	(53/8),(53)&7
  1019  056A  1403               	setc
  1020  056B  3000               	movlw	0
  1021  056C  1803               	skipnc
  1022  056D  3001               	movlw	1
  1023                           
  1024  056E  00DC               	movwf	(??_main+0)+0
  1025  056F  01DD               	clrf	(??_main+0)+0+1
  1026  0570  085C               	movf	0+(??_main+0)+0,w
  1027  0571  00E2               	movwf	(_DIR_READ)
  1028  0572  085D               	movf	1+(??_main+0)+0,w
  1029  0573  00E3               	movwf	(_DIR_READ+1)
  1030                           	line	146
  1031                           	
  1032  0574                     l10417:	
  1033                           ;primarymain.c: 146: F.DIR = 0;
  1034  0574  1683               	bsf	status, 5	;RP0=1, select bank1
  1035  0575  1303               	bcf	status, 6	;RP1=0, select bank1
  1036  0576  11AA               	bcf	(170)^080h,3
  1037  0577  2FF4               	goto	l10451
  1038                           	line	147
  1039                           	
  1040  0578                     l1533:	
  1041                           	line	151
  1042                           ;primarymain.c: 147: }
  1043                           ;primarymain.c: 151: while (FLAG == 0)
  1044  0578  2FF4               	goto	l10451
  1045                           	
  1046  0579                     l1535:	
  1047                           	line	154
  1048                           	
  1049  0579                     l10419:	
  1050                           ;primarymain.c: 152: {
  1051                           ;primarymain.c: 154: EncUpdate(&time, &counts);
  1052  0579  30BB               	movlw	(main@time&0ffh)
  1053  057A  1283               	bcf	status, 5	;RP0=0, select bank0
  1054  057B  1303               	bcf	status, 6	;RP1=0, select bank0
  1055  057C  00A0               	movwf	(?_EncUpdate)
  1056  057D  3000               	movlw	(0x1/2)
  1057  057E  00A1               	movwf	(?_EncUpdate+1)
  1058  057F  30BD               	movlw	(main@counts&0ffh)
  1059  0580  00A2               	movwf	(0+?_EncUpdate+02h)
  1060  0581  3000               	movlw	(0x1/2)
  1061  0582  00A3               	movwf	(1+?_EncUpdate+02h)
  1062  0583  120A  158A  25A5   	fcall	_EncUpdate
              120A  118A         
  1063                           	line	155
  1064                           	
  1065  0588                     l10421:	
  1066                           ;primarymain.c: 155: UpdateData(time, counts);
  1067  0588  1683               	bsf	status, 5	;RP0=1, select bank1
  1068  0589  1303               	bcf	status, 6	;RP1=0, select bank1
  1069  058A  083C               	movf	(main@time+1)^080h,w
  1070  058B  1283               	bcf	status, 5	;RP0=0, select bank0
  1071  058C  1303               	bcf	status, 6	;RP1=0, select bank0
  1072  058D  01A1               	clrf	(?_UpdateData+1)
  1073  058E  07A1               	addwf	(?_UpdateData+1)
  1074  058F  1683               	bsf	status, 5	;RP0=1, select bank1
  1075  0590  1303               	bcf	status, 6	;RP1=0, select bank1
  1076  0591  083B               	movf	(main@time)^080h,w
  1077  0592  1283               	bcf	status, 5	;RP0=0, select bank0
  1078  0593  1303               	bcf	status, 6	;RP1=0, select bank0
  1079  0594  01A0               	clrf	(?_UpdateData)
  1080  0595  07A0               	addwf	(?_UpdateData)
  1081                           
  1082  0596  1683               	bsf	status, 5	;RP0=1, select bank1
  1083  0597  1303               	bcf	status, 6	;RP1=0, select bank1
  1084  0598  083E               	movf	(main@counts+1)^080h,w
  1085  0599  1283               	bcf	status, 5	;RP0=0, select bank0
  1086  059A  1303               	bcf	status, 6	;RP1=0, select bank0
  1087  059B  01A3               	clrf	1+(?_UpdateData)+02h
  1088  059C  07A3               	addwf	1+(?_UpdateData)+02h
  1089  059D  1683               	bsf	status, 5	;RP0=1, select bank1
  1090  059E  1303               	bcf	status, 6	;RP1=0, select bank1
  1091  059F  083D               	movf	(main@counts)^080h,w
  1092  05A0  1283               	bcf	status, 5	;RP0=0, select bank0
  1093  05A1  1303               	bcf	status, 6	;RP1=0, select bank0
  1094  05A2  01A2               	clrf	0+(?_UpdateData)+02h
  1095  05A3  07A2               	addwf	0+(?_UpdateData)+02h
  1096                           
  1097  05A4  120A  118A  201D   	fcall	_UpdateData
              120A  118A         
  1098                           	line	160
  1099                           	
  1100  05A9                     l10423:	
  1101                           ;primarymain.c: 160: v = counts / time;
  1102  05A9  1683               	bsf	status, 5	;RP0=1, select bank1
  1103  05AA  1303               	bcf	status, 6	;RP1=0, select bank1
  1104  05AB  083C               	movf	(main@time+1)^080h,w
  1105  05AC  1283               	bcf	status, 5	;RP0=0, select bank0
  1106  05AD  1303               	bcf	status, 6	;RP1=0, select bank0
  1107  05AE  01A9               	clrf	(?___awdiv+1)
  1108  05AF  07A9               	addwf	(?___awdiv+1)
  1109  05B0  1683               	bsf	status, 5	;RP0=1, select bank1
  1110  05B1  1303               	bcf	status, 6	;RP1=0, select bank1
  1111  05B2  083B               	movf	(main@time)^080h,w
  1112  05B3  1283               	bcf	status, 5	;RP0=0, select bank0
  1113  05B4  1303               	bcf	status, 6	;RP1=0, select bank0
  1114  05B5  01A8               	clrf	(?___awdiv)
  1115  05B6  07A8               	addwf	(?___awdiv)
  1116                           
  1117  05B7  1683               	bsf	status, 5	;RP0=1, select bank1
  1118  05B8  1303               	bcf	status, 6	;RP1=0, select bank1
  1119  05B9  083E               	movf	(main@counts+1)^080h,w
  1120  05BA  1283               	bcf	status, 5	;RP0=0, select bank0
  1121  05BB  1303               	bcf	status, 6	;RP1=0, select bank0
  1122  05BC  01AB               	clrf	1+(?___awdiv)+02h
  1123  05BD  07AB               	addwf	1+(?___awdiv)+02h
  1124  05BE  1683               	bsf	status, 5	;RP0=1, select bank1
  1125  05BF  1303               	bcf	status, 6	;RP1=0, select bank1
  1126  05C0  083D               	movf	(main@counts)^080h,w
  1127  05C1  1283               	bcf	status, 5	;RP0=0, select bank0
  1128  05C2  1303               	bcf	status, 6	;RP1=0, select bank0
  1129  05C3  01AA               	clrf	0+(?___awdiv)+02h
  1130  05C4  07AA               	addwf	0+(?___awdiv)+02h
  1131                           
  1132  05C5  120A  158A  270D   	fcall	___awdiv
              120A  118A         
  1133  05CA  1283               	bcf	status, 5	;RP0=0, select bank0
  1134  05CB  1303               	bcf	status, 6	;RP1=0, select bank0
  1135  05CC  0829               	movf	(1+(?___awdiv)),w
  1136  05CD  1683               	bsf	status, 5	;RP0=1, select bank1
  1137  05CE  1303               	bcf	status, 6	;RP1=0, select bank1
  1138  05CF  01B8               	clrf	(main@v+1)^080h
  1139  05D0  07B8               	addwf	(main@v+1)^080h
  1140  05D1  1283               	bcf	status, 5	;RP0=0, select bank0
  1141  05D2  1303               	bcf	status, 6	;RP1=0, select bank0
  1142  05D3  0828               	movf	(0+(?___awdiv)),w
  1143  05D4  1683               	bsf	status, 5	;RP0=1, select bank1
  1144  05D5  1303               	bcf	status, 6	;RP1=0, select bank1
  1145  05D6  01B7               	clrf	(main@v)^080h
  1146  05D7  07B7               	addwf	(main@v)^080h
  1147                           
  1148                           	line	161
  1149                           	
  1150  05D8                     l10425:	
  1151                           ;primarymain.c: 161: P = abs(TARGET, v);
  1152  05D8  1283               	bcf	status, 5	;RP0=0, select bank0
  1153  05D9  1303               	bcf	status, 6	;RP1=0, select bank0
  1154  05DA  0865               	movf	(_TARGET+1),w
  1155  05DB  01A1               	clrf	(?_abs+1)
  1156  05DC  07A1               	addwf	(?_abs+1)
  1157  05DD  0864               	movf	(_TARGET),w
  1158  05DE  01A0               	clrf	(?_abs)
  1159  05DF  07A0               	addwf	(?_abs)
  1160                           
  1161  05E0  1683               	bsf	status, 5	;RP0=1, select bank1
  1162  05E1  1303               	bcf	status, 6	;RP1=0, select bank1
  1163  05E2  0838               	movf	(main@v+1)^080h,w
  1164  05E3  1283               	bcf	status, 5	;RP0=0, select bank0
  1165  05E4  1303               	bcf	status, 6	;RP1=0, select bank0
  1166  05E5  01A3               	clrf	1+(?_abs)+02h
  1167  05E6  07A3               	addwf	1+(?_abs)+02h
  1168  05E7  1683               	bsf	status, 5	;RP0=1, select bank1
  1169  05E8  1303               	bcf	status, 6	;RP1=0, select bank1
  1170  05E9  0837               	movf	(main@v)^080h,w
  1171  05EA  1283               	bcf	status, 5	;RP0=0, select bank0
  1172  05EB  1303               	bcf	status, 6	;RP1=0, select bank0
  1173  05EC  01A2               	clrf	0+(?_abs)+02h
  1174  05ED  07A2               	addwf	0+(?_abs)+02h
  1175                           
  1176  05EE  120A  158A  2600   	fcall	_abs
              120A  118A         
  1177  05F3  1283               	bcf	status, 5	;RP0=0, select bank0
  1178  05F4  1303               	bcf	status, 6	;RP1=0, select bank0
  1179  05F5  0821               	movf	(1+(?_abs)),w
  1180  05F6  1683               	bsf	status, 5	;RP0=1, select bank1
  1181  05F7  1303               	bcf	status, 6	;RP1=0, select bank1
  1182  05F8  01BA               	clrf	(main@P+1)^080h
  1183  05F9  07BA               	addwf	(main@P+1)^080h
  1184  05FA  1283               	bcf	status, 5	;RP0=0, select bank0
  1185  05FB  1303               	bcf	status, 6	;RP1=0, select bank0
  1186  05FC  0820               	movf	(0+(?_abs)),w
  1187  05FD  1683               	bsf	status, 5	;RP0=1, select bank1
  1188  05FE  1303               	bcf	status, 6	;RP1=0, select bank1
  1189  05FF  01B9               	clrf	(main@P)^080h
  1190  0600  07B9               	addwf	(main@P)^080h
  1191                           
  1192                           	line	162
  1193                           	
  1194  0601                     l10427:	
  1195                           ;primarymain.c: 162: I = I + (P / TIME);
  1196  0601  0874               	movf	(_TIME+3),w
  1197  0602  1283               	bcf	status, 5	;RP0=0, select bank0
  1198  0603  1303               	bcf	status, 6	;RP1=0, select bank0
  1199  0604  00A3               	movwf	(?___aldiv+3)
  1200  0605  0873               	movf	(_TIME+2),w
  1201  0606  00A2               	movwf	(?___aldiv+2)
  1202  0607  0872               	movf	(_TIME+1),w
  1203  0608  00A1               	movwf	(?___aldiv+1)
  1204  0609  0871               	movf	(_TIME),w
  1205  060A  00A0               	movwf	(?___aldiv)
  1206                           
  1207  060B  1683               	bsf	status, 5	;RP0=1, select bank1
  1208  060C  1303               	bcf	status, 6	;RP1=0, select bank1
  1209  060D  0839               	movf	(main@P)^080h,w
  1210  060E  1283               	bcf	status, 5	;RP0=0, select bank0
  1211  060F  1303               	bcf	status, 6	;RP1=0, select bank0
  1212  0610  00A4               	movwf	0+(?___aldiv)+04h
  1213  0611  1683               	bsf	status, 5	;RP0=1, select bank1
  1214  0612  1303               	bcf	status, 6	;RP1=0, select bank1
  1215  0613  083A               	movf	(main@P+1)^080h,w
  1216  0614  1283               	bcf	status, 5	;RP0=0, select bank0
  1217  0615  1303               	bcf	status, 6	;RP1=0, select bank0
  1218  0616  00A5               	movwf	1+(?___aldiv)+04h
  1219  0617  3000               	movlw	0
  1220  0618  1BA5               	btfsc	1+(?___aldiv)+04h,7
  1221  0619  30FF               	movlw	255
  1222  061A  00A6               	movwf	2+(?___aldiv)+04h
  1223  061B  00A7               	movwf	3+(?___aldiv)+04h
  1224  061C  120A  118A  214B   	fcall	___aldiv
              120A  118A         
  1225  0621  1683               	bsf	status, 5	;RP0=1, select bank1
  1226  0622  1303               	bcf	status, 6	;RP1=0, select bank1
  1227  0623  0833               	movf	(main@I)^080h,w
  1228  0624  1283               	bcf	status, 5	;RP0=0, select bank0
  1229  0625  1303               	bcf	status, 6	;RP1=0, select bank0
  1230  0626  0720               	addwf	0+(((0+(?___aldiv)))),w
  1231  0627  1683               	bsf	status, 5	;RP0=1, select bank1
  1232  0628  1303               	bcf	status, 6	;RP1=0, select bank1
  1233  0629  00B3               	movwf	(main@I)^080h
  1234  062A  0834               	movf	(main@I+1)^080h,w
  1235  062B  1803               	skipnc
  1236  062C  0A34               	incf	(main@I+1)^080h,w
  1237  062D  1283               	bcf	status, 5	;RP0=0, select bank0
  1238  062E  1303               	bcf	status, 6	;RP1=0, select bank0
  1239  062F  0721               	addwf	1+(((0+(?___aldiv)))),w
  1240  0630  1683               	bsf	status, 5	;RP0=1, select bank1
  1241  0631  1303               	bcf	status, 6	;RP1=0, select bank1
  1242  0632  00B4               	movwf	1+(main@I)^080h
  1243                           	line	163
  1244                           	
  1245  0633                     l10429:	
  1246                           ;primarymain.c: 163: D = abs(P, P_old) / time;
  1247  0633  083C               	movf	(main@time+1)^080h,w
  1248  0634  1283               	bcf	status, 5	;RP0=0, select bank0
  1249  0635  1303               	bcf	status, 6	;RP1=0, select bank0
  1250  0636  01A9               	clrf	(?___awdiv+1)
  1251  0637  07A9               	addwf	(?___awdiv+1)
  1252  0638  1683               	bsf	status, 5	;RP0=1, select bank1
  1253  0639  1303               	bcf	status, 6	;RP1=0, select bank1
  1254  063A  083B               	movf	(main@time)^080h,w
  1255  063B  1283               	bcf	status, 5	;RP0=0, select bank0
  1256  063C  1303               	bcf	status, 6	;RP1=0, select bank0
  1257  063D  01A8               	clrf	(?___awdiv)
  1258  063E  07A8               	addwf	(?___awdiv)
  1259                           
  1260  063F  1683               	bsf	status, 5	;RP0=1, select bank1
  1261  0640  1303               	bcf	status, 6	;RP1=0, select bank1
  1262  0641  0832               	movf	(main@P_old+1)^080h,w
  1263  0642  1283               	bcf	status, 5	;RP0=0, select bank0
  1264  0643  1303               	bcf	status, 6	;RP1=0, select bank0
  1265  0644  01A3               	clrf	1+(?_abs)+02h
  1266  0645  07A3               	addwf	1+(?_abs)+02h
  1267  0646  1683               	bsf	status, 5	;RP0=1, select bank1
  1268  0647  1303               	bcf	status, 6	;RP1=0, select bank1
  1269  0648  0831               	movf	(main@P_old)^080h,w
  1270  0649  1283               	bcf	status, 5	;RP0=0, select bank0
  1271  064A  1303               	bcf	status, 6	;RP1=0, select bank0
  1272  064B  01A2               	clrf	0+(?_abs)+02h
  1273  064C  07A2               	addwf	0+(?_abs)+02h
  1274                           
  1275  064D  1683               	bsf	status, 5	;RP0=1, select bank1
  1276  064E  1303               	bcf	status, 6	;RP1=0, select bank1
  1277  064F  083A               	movf	(main@P+1)^080h,w
  1278  0650  1283               	bcf	status, 5	;RP0=0, select bank0
  1279  0651  1303               	bcf	status, 6	;RP1=0, select bank0
  1280  0652  01A1               	clrf	(?_abs+1)
  1281  0653  07A1               	addwf	(?_abs+1)
  1282  0654  1683               	bsf	status, 5	;RP0=1, select bank1
  1283  0655  1303               	bcf	status, 6	;RP1=0, select bank1
  1284  0656  0839               	movf	(main@P)^080h,w
  1285  0657  1283               	bcf	status, 5	;RP0=0, select bank0
  1286  0658  1303               	bcf	status, 6	;RP1=0, select bank0
  1287  0659  01A0               	clrf	(?_abs)
  1288  065A  07A0               	addwf	(?_abs)
  1289                           
  1290  065B  120A  158A  2600   	fcall	_abs
              120A  118A         
  1291  0660  1283               	bcf	status, 5	;RP0=0, select bank0
  1292  0661  1303               	bcf	status, 6	;RP1=0, select bank0
  1293  0662  0821               	movf	(1+(?_abs)),w
  1294  0663  01AB               	clrf	1+(?___awdiv)+02h
  1295  0664  07AB               	addwf	1+(?___awdiv)+02h
  1296  0665  0820               	movf	(0+(?_abs)),w
  1297  0666  01AA               	clrf	0+(?___awdiv)+02h
  1298  0667  07AA               	addwf	0+(?___awdiv)+02h
  1299                           
  1300  0668  120A  158A  270D   	fcall	___awdiv
              120A  118A         
  1301  066D  1283               	bcf	status, 5	;RP0=0, select bank0
  1302  066E  1303               	bcf	status, 6	;RP1=0, select bank0
  1303  066F  0829               	movf	(1+(?___awdiv)),w
  1304  0670  1683               	bsf	status, 5	;RP0=1, select bank1
  1305  0671  1303               	bcf	status, 6	;RP1=0, select bank1
  1306  0672  01B0               	clrf	(main@D+1)^080h
  1307  0673  07B0               	addwf	(main@D+1)^080h
  1308  0674  1283               	bcf	status, 5	;RP0=0, select bank0
  1309  0675  1303               	bcf	status, 6	;RP1=0, select bank0
  1310  0676  0828               	movf	(0+(?___awdiv)),w
  1311  0677  1683               	bsf	status, 5	;RP0=1, select bank1
  1312  0678  1303               	bcf	status, 6	;RP1=0, select bank1
  1313  0679  01AF               	clrf	(main@D)^080h
  1314  067A  07AF               	addwf	(main@D)^080h
  1315                           
  1316                           	line	164
  1317                           	
  1318  067B                     l10431:	
  1319                           ;primarymain.c: 164: PID = (P * 1.0) + (I * 1.0) + (D * 1.0);
  1320  067B  083A               	movf	(main@P+1)^080h,w
  1321  067C  1283               	bcf	status, 5	;RP0=0, select bank0
  1322  067D  1303               	bcf	status, 6	;RP1=0, select bank0
  1323  067E  01B7               	clrf	(?___awtoft+1)
  1324  067F  07B7               	addwf	(?___awtoft+1)
  1325  0680  1683               	bsf	status, 5	;RP0=1, select bank1
  1326  0681  1303               	bcf	status, 6	;RP1=0, select bank1
  1327  0682  0839               	movf	(main@P)^080h,w
  1328  0683  1283               	bcf	status, 5	;RP0=0, select bank0
  1329  0684  1303               	bcf	status, 6	;RP1=0, select bank0
  1330  0685  01B6               	clrf	(?___awtoft)
  1331  0686  07B6               	addwf	(?___awtoft)
  1332                           
  1333  0687  120A  158A  2673   	fcall	___awtoft
              120A  118A         
  1334  068C  1283               	bcf	status, 5	;RP0=0, select bank0
  1335  068D  1303               	bcf	status, 6	;RP1=0, select bank0
  1336  068E  0836               	movf	(0+(?___awtoft)),w
  1337  068F  00BF               	movwf	0+(?___ftmul)+03h
  1338  0690  0837               	movf	(1+(?___awtoft)),w
  1339  0691  00C0               	movwf	1+(?___ftmul)+03h
  1340  0692  0838               	movf	(2+(?___awtoft)),w
  1341  0693  00C1               	movwf	2+(?___ftmul)+03h
  1342  0694  3000               	movlw	0x0
  1343  0695  00BC               	movwf	(?___ftmul)
  1344  0696  3080               	movlw	0x80
  1345  0697  00BD               	movwf	(?___ftmul+1)
  1346  0698  303F               	movlw	0x3f
  1347  0699  00BE               	movwf	(?___ftmul+2)
  1348  069A  120A  118A  22BB   	fcall	___ftmul
              120A  118A         
  1349  069F  1283               	bcf	status, 5	;RP0=0, select bank0
  1350  06A0  1303               	bcf	status, 6	;RP1=0, select bank0
  1351  06A1  083C               	movf	(0+(?___ftmul)),w
  1352  06A2  00CF               	movwf	0+(?___ftadd)+03h
  1353  06A3  083D               	movf	(1+(?___ftmul)),w
  1354  06A4  00D0               	movwf	1+(?___ftadd)+03h
  1355  06A5  083E               	movf	(2+(?___ftmul)),w
  1356  06A6  00D1               	movwf	2+(?___ftadd)+03h
  1357  06A7  1683               	bsf	status, 5	;RP0=1, select bank1
  1358  06A8  1303               	bcf	status, 6	;RP1=0, select bank1
  1359  06A9  0834               	movf	(main@I+1)^080h,w
  1360  06AA  1283               	bcf	status, 5	;RP0=0, select bank0
  1361  06AB  1303               	bcf	status, 6	;RP1=0, select bank0
  1362  06AC  01B7               	clrf	(?___awtoft+1)
  1363  06AD  07B7               	addwf	(?___awtoft+1)
  1364  06AE  1683               	bsf	status, 5	;RP0=1, select bank1
  1365  06AF  1303               	bcf	status, 6	;RP1=0, select bank1
  1366  06B0  0833               	movf	(main@I)^080h,w
  1367  06B1  1283               	bcf	status, 5	;RP0=0, select bank0
  1368  06B2  1303               	bcf	status, 6	;RP1=0, select bank0
  1369  06B3  01B6               	clrf	(?___awtoft)
  1370  06B4  07B6               	addwf	(?___awtoft)
  1371                           
  1372  06B5  120A  158A  2673   	fcall	___awtoft
              120A  118A         
  1373  06BA  1283               	bcf	status, 5	;RP0=0, select bank0
  1374  06BB  1303               	bcf	status, 6	;RP1=0, select bank0
  1375  06BC  0836               	movf	(0+(?___awtoft)),w
  1376  06BD  00BF               	movwf	0+(?___ftmul)+03h
  1377  06BE  0837               	movf	(1+(?___awtoft)),w
  1378  06BF  00C0               	movwf	1+(?___ftmul)+03h
  1379  06C0  0838               	movf	(2+(?___awtoft)),w
  1380  06C1  00C1               	movwf	2+(?___ftmul)+03h
  1381  06C2  3000               	movlw	0x0
  1382  06C3  00BC               	movwf	(?___ftmul)
  1383  06C4  3080               	movlw	0x80
  1384  06C5  00BD               	movwf	(?___ftmul+1)
  1385  06C6  303F               	movlw	0x3f
  1386  06C7  00BE               	movwf	(?___ftmul+2)
  1387  06C8  120A  118A  22BB   	fcall	___ftmul
              120A  118A         
  1388  06CD  1283               	bcf	status, 5	;RP0=0, select bank0
  1389  06CE  1303               	bcf	status, 6	;RP1=0, select bank0
  1390  06CF  083C               	movf	(0+(?___ftmul)),w
  1391  06D0  00CC               	movwf	(?___ftadd)
  1392  06D1  083D               	movf	(1+(?___ftmul)),w
  1393  06D2  00CD               	movwf	(?___ftadd+1)
  1394  06D3  083E               	movf	(2+(?___ftmul)),w
  1395  06D4  00CE               	movwf	(?___ftadd+2)
  1396  06D5  120A  118A  23A9   	fcall	___ftadd
              120A  118A         
  1397  06DA  1283               	bcf	status, 5	;RP0=0, select bank0
  1398  06DB  1303               	bcf	status, 6	;RP1=0, select bank0
  1399  06DC  084C               	movf	(0+(?___ftadd)),w
  1400  06DD  00CF               	movwf	0+(?___ftadd)+03h
  1401  06DE  084D               	movf	(1+(?___ftadd)),w
  1402  06DF  00D0               	movwf	1+(?___ftadd)+03h
  1403  06E0  084E               	movf	(2+(?___ftadd)),w
  1404  06E1  00D1               	movwf	2+(?___ftadd)+03h
  1405  06E2  1683               	bsf	status, 5	;RP0=1, select bank1
  1406  06E3  1303               	bcf	status, 6	;RP1=0, select bank1
  1407  06E4  0830               	movf	(main@D+1)^080h,w
  1408  06E5  1283               	bcf	status, 5	;RP0=0, select bank0
  1409  06E6  1303               	bcf	status, 6	;RP1=0, select bank0
  1410  06E7  01B7               	clrf	(?___awtoft+1)
  1411  06E8  07B7               	addwf	(?___awtoft+1)
  1412  06E9  1683               	bsf	status, 5	;RP0=1, select bank1
  1413  06EA  1303               	bcf	status, 6	;RP1=0, select bank1
  1414  06EB  082F               	movf	(main@D)^080h,w
  1415  06EC  1283               	bcf	status, 5	;RP0=0, select bank0
  1416  06ED  1303               	bcf	status, 6	;RP1=0, select bank0
  1417  06EE  01B6               	clrf	(?___awtoft)
  1418  06EF  07B6               	addwf	(?___awtoft)
  1419                           
  1420  06F0  120A  158A  2673   	fcall	___awtoft
              120A  118A         
  1421  06F5  1283               	bcf	status, 5	;RP0=0, select bank0
  1422  06F6  1303               	bcf	status, 6	;RP1=0, select bank0
  1423  06F7  0836               	movf	(0+(?___awtoft)),w
  1424  06F8  00BF               	movwf	0+(?___ftmul)+03h
  1425  06F9  0837               	movf	(1+(?___awtoft)),w
  1426  06FA  00C0               	movwf	1+(?___ftmul)+03h
  1427  06FB  0838               	movf	(2+(?___awtoft)),w
  1428  06FC  00C1               	movwf	2+(?___ftmul)+03h
  1429  06FD  3000               	movlw	0x0
  1430  06FE  00BC               	movwf	(?___ftmul)
  1431  06FF  3080               	movlw	0x80
  1432  0700  00BD               	movwf	(?___ftmul+1)
  1433  0701  303F               	movlw	0x3f
  1434  0702  00BE               	movwf	(?___ftmul+2)
  1435  0703  120A  118A  22BB   	fcall	___ftmul
              120A  118A         
  1436  0708  1283               	bcf	status, 5	;RP0=0, select bank0
  1437  0709  1303               	bcf	status, 6	;RP1=0, select bank0
  1438  070A  083C               	movf	(0+(?___ftmul)),w
  1439  070B  00CC               	movwf	(?___ftadd)
  1440  070C  083D               	movf	(1+(?___ftmul)),w
  1441  070D  00CD               	movwf	(?___ftadd+1)
  1442  070E  083E               	movf	(2+(?___ftmul)),w
  1443  070F  00CE               	movwf	(?___ftadd+2)
  1444  0710  120A  118A  23A9   	fcall	___ftadd
              120A  118A         
  1445  0715  1283               	bcf	status, 5	;RP0=0, select bank0
  1446  0716  1303               	bcf	status, 6	;RP1=0, select bank0
  1447  0717  084C               	movf	(0+(?___ftadd)),w
  1448  0718  00A8               	movwf	(?___fttol)
  1449  0719  084D               	movf	(1+(?___ftadd)),w
  1450  071A  00A9               	movwf	(?___fttol+1)
  1451  071B  084E               	movf	(2+(?___ftadd)),w
  1452  071C  00AA               	movwf	(?___fttol+2)
  1453  071D  120A  118A  20A5   	fcall	___fttol
              120A  118A         
  1454  0722  1283               	bcf	status, 5	;RP0=0, select bank0
  1455  0723  1303               	bcf	status, 6	;RP1=0, select bank0
  1456  0724  0829               	movf	1+(((0+(?___fttol)))),w
  1457  0725  1683               	bsf	status, 5	;RP0=1, select bank1
  1458  0726  1303               	bcf	status, 6	;RP1=0, select bank1
  1459  0727  01AC               	clrf	(main@PID+1)^080h
  1460  0728  07AC               	addwf	(main@PID+1)^080h
  1461  0729  1283               	bcf	status, 5	;RP0=0, select bank0
  1462  072A  1303               	bcf	status, 6	;RP1=0, select bank0
  1463  072B  0828               	movf	0+(((0+(?___fttol)))),w
  1464  072C  1683               	bsf	status, 5	;RP0=1, select bank1
  1465  072D  1303               	bcf	status, 6	;RP1=0, select bank1
  1466  072E  01AB               	clrf	(main@PID)^080h
  1467  072F  07AB               	addwf	(main@PID)^080h
  1468                           
  1469                           	line	165
  1470                           	
  1471  0730                     l10433:	
  1472                           ;primarymain.c: 165: P_old = P;
  1473  0730  083A               	movf	(main@P+1)^080h,w
  1474  0731  01B2               	clrf	(main@P_old+1)^080h
  1475  0732  07B2               	addwf	(main@P_old+1)^080h
  1476  0733  0839               	movf	(main@P)^080h,w
  1477  0734  01B1               	clrf	(main@P_old)^080h
  1478  0735  07B1               	addwf	(main@P_old)^080h
  1479                           
  1480                           	line	170
  1481                           	
  1482  0736                     l10435:	
  1483                           ;primarymain.c: 170: if (currentPWM == 0)
  1484  0736  0836               	movf	((main@currentPWM+1)^080h),w
  1485  0737  0435               	iorwf	((main@currentPWM)^080h),w
  1486  0738  1D03               	skipz
  1487  0739  2F3B               	goto	u4691
  1488  073A  2F3C               	goto	u4690
  1489  073B                     u4691:
  1490  073B  2F41               	goto	l10439
  1491  073C                     u4690:
  1492                           	line	171
  1493                           	
  1494  073C                     l10437:	
  1495                           ;primarymain.c: 171: currentPWM = 1;
  1496  073C  3001               	movlw	low(01h)
  1497  073D  00B5               	movwf	(main@currentPWM)^080h
  1498  073E  3000               	movlw	high(01h)
  1499  073F  00B6               	movwf	((main@currentPWM)^080h)+1
  1500  0740  2F41               	goto	l10439
  1501                           	
  1502  0741                     l1536:	
  1503                           	line	172
  1504                           	
  1505  0741                     l10439:	
  1506                           ;primarymain.c: 172: if (v == 0)
  1507  0741  0838               	movf	((main@v+1)^080h),w
  1508  0742  0437               	iorwf	((main@v)^080h),w
  1509  0743  1D03               	skipz
  1510  0744  2F46               	goto	u4701
  1511  0745  2F47               	goto	u4700
  1512  0746                     u4701:
  1513  0746  2F4C               	goto	l10443
  1514  0747                     u4700:
  1515                           	line	173
  1516                           	
  1517  0747                     l10441:	
  1518                           ;primarymain.c: 173: v = 1;
  1519  0747  3001               	movlw	low(01h)
  1520  0748  00B7               	movwf	(main@v)^080h
  1521  0749  3000               	movlw	high(01h)
  1522  074A  00B8               	movwf	((main@v)^080h)+1
  1523  074B  2F4C               	goto	l10443
  1524                           	
  1525  074C                     l1537:	
  1526                           	line	174
  1527                           	
  1528  074C                     l10443:	
  1529                           ;primarymain.c: 174: currentPWM = (1.0 * PID * currentPWM) / v;
  1530  074C  082C               	movf	(main@PID+1)^080h,w
  1531  074D  1283               	bcf	status, 5	;RP0=0, select bank0
  1532  074E  1303               	bcf	status, 6	;RP1=0, select bank0
  1533  074F  01B7               	clrf	(?___awtoft+1)
  1534  0750  07B7               	addwf	(?___awtoft+1)
  1535  0751  1683               	bsf	status, 5	;RP0=1, select bank1
  1536  0752  1303               	bcf	status, 6	;RP1=0, select bank1
  1537  0753  082B               	movf	(main@PID)^080h,w
  1538  0754  1283               	bcf	status, 5	;RP0=0, select bank0
  1539  0755  1303               	bcf	status, 6	;RP1=0, select bank0
  1540  0756  01B6               	clrf	(?___awtoft)
  1541  0757  07B6               	addwf	(?___awtoft)
  1542                           
  1543  0758  120A  158A  2673   	fcall	___awtoft
              120A  118A         
  1544  075D  1283               	bcf	status, 5	;RP0=0, select bank0
  1545  075E  1303               	bcf	status, 6	;RP1=0, select bank0
  1546  075F  0836               	movf	(0+(?___awtoft)),w
  1547  0760  00BF               	movwf	0+(?___ftmul)+03h
  1548  0761  0837               	movf	(1+(?___awtoft)),w
  1549  0762  00C0               	movwf	1+(?___ftmul)+03h
  1550  0763  0838               	movf	(2+(?___awtoft)),w
  1551  0764  00C1               	movwf	2+(?___ftmul)+03h
  1552  0765  1683               	bsf	status, 5	;RP0=1, select bank1
  1553  0766  1303               	bcf	status, 6	;RP1=0, select bank1
  1554  0767  0836               	movf	(main@currentPWM+1)^080h,w
  1555  0768  1283               	bcf	status, 5	;RP0=0, select bank0
  1556  0769  1303               	bcf	status, 6	;RP1=0, select bank0
  1557  076A  01B7               	clrf	(?___awtoft+1)
  1558  076B  07B7               	addwf	(?___awtoft+1)
  1559  076C  1683               	bsf	status, 5	;RP0=1, select bank1
  1560  076D  1303               	bcf	status, 6	;RP1=0, select bank1
  1561  076E  0835               	movf	(main@currentPWM)^080h,w
  1562  076F  1283               	bcf	status, 5	;RP0=0, select bank0
  1563  0770  1303               	bcf	status, 6	;RP1=0, select bank0
  1564  0771  01B6               	clrf	(?___awtoft)
  1565  0772  07B6               	addwf	(?___awtoft)
  1566                           
  1567  0773  120A  158A  2673   	fcall	___awtoft
              120A  118A         
  1568  0778  1283               	bcf	status, 5	;RP0=0, select bank0
  1569  0779  1303               	bcf	status, 6	;RP1=0, select bank0
  1570  077A  0836               	movf	(0+(?___awtoft)),w
  1571  077B  00BC               	movwf	(?___ftmul)
  1572  077C  0837               	movf	(1+(?___awtoft)),w
  1573  077D  00BD               	movwf	(?___ftmul+1)
  1574  077E  0838               	movf	(2+(?___awtoft)),w
  1575  077F  00BE               	movwf	(?___ftmul+2)
  1576  0780  120A  118A  22BB   	fcall	___ftmul
              120A  118A         
  1577  0785  1283               	bcf	status, 5	;RP0=0, select bank0
  1578  0786  1303               	bcf	status, 6	;RP1=0, select bank0
  1579  0787  083C               	movf	(0+(?___ftmul)),w
  1580  0788  00BF               	movwf	0+(?___ftmul)+03h
  1581  0789  083D               	movf	(1+(?___ftmul)),w
  1582  078A  00C0               	movwf	1+(?___ftmul)+03h
  1583  078B  083E               	movf	(2+(?___ftmul)),w
  1584  078C  00C1               	movwf	2+(?___ftmul)+03h
  1585  078D  3000               	movlw	0x0
  1586  078E  00BC               	movwf	(?___ftmul)
  1587  078F  3080               	movlw	0x80
  1588  0790  00BD               	movwf	(?___ftmul+1)
  1589  0791  303F               	movlw	0x3f
  1590  0792  00BE               	movwf	(?___ftmul+2)
  1591  0793  120A  118A  22BB   	fcall	___ftmul
              120A  118A         
  1592  0798  1283               	bcf	status, 5	;RP0=0, select bank0
  1593  0799  1303               	bcf	status, 6	;RP1=0, select bank0
  1594  079A  083C               	movf	(0+(?___ftmul)),w
  1595  079B  00CF               	movwf	0+(?___ftdiv)+03h
  1596  079C  083D               	movf	(1+(?___ftmul)),w
  1597  079D  00D0               	movwf	1+(?___ftdiv)+03h
  1598  079E  083E               	movf	(2+(?___ftmul)),w
  1599  079F  00D1               	movwf	2+(?___ftdiv)+03h
  1600  07A0  1683               	bsf	status, 5	;RP0=1, select bank1
  1601  07A1  1303               	bcf	status, 6	;RP1=0, select bank1
  1602  07A2  0838               	movf	(main@v+1)^080h,w
  1603  07A3  1283               	bcf	status, 5	;RP0=0, select bank0
  1604  07A4  1303               	bcf	status, 6	;RP1=0, select bank0
  1605  07A5  01B7               	clrf	(?___awtoft+1)
  1606  07A6  07B7               	addwf	(?___awtoft+1)
  1607  07A7  1683               	bsf	status, 5	;RP0=1, select bank1
  1608  07A8  1303               	bcf	status, 6	;RP1=0, select bank1
  1609  07A9  0837               	movf	(main@v)^080h,w
  1610  07AA  1283               	bcf	status, 5	;RP0=0, select bank0
  1611  07AB  1303               	bcf	status, 6	;RP1=0, select bank0
  1612  07AC  01B6               	clrf	(?___awtoft)
  1613  07AD  07B6               	addwf	(?___awtoft)
  1614                           
  1615  07AE  120A  158A  2673   	fcall	___awtoft
              120A  118A         
  1616  07B3  1283               	bcf	status, 5	;RP0=0, select bank0
  1617  07B4  1303               	bcf	status, 6	;RP1=0, select bank0
  1618  07B5  0836               	movf	(0+(?___awtoft)),w
  1619  07B6  00CC               	movwf	(?___ftdiv)
  1620  07B7  0837               	movf	(1+(?___awtoft)),w
  1621  07B8  00CD               	movwf	(?___ftdiv+1)
  1622  07B9  0838               	movf	(2+(?___awtoft)),w
  1623  07BA  00CE               	movwf	(?___ftdiv+2)
  1624  07BB  120A  118A  21F3   	fcall	___ftdiv
              120A  118A         
  1625  07C0  1283               	bcf	status, 5	;RP0=0, select bank0
  1626  07C1  1303               	bcf	status, 6	;RP1=0, select bank0
  1627  07C2  084C               	movf	(0+(?___ftdiv)),w
  1628  07C3  00A8               	movwf	(?___fttol)
  1629  07C4  084D               	movf	(1+(?___ftdiv)),w
  1630  07C5  00A9               	movwf	(?___fttol+1)
  1631  07C6  084E               	movf	(2+(?___ftdiv)),w
  1632  07C7  00AA               	movwf	(?___fttol+2)
  1633  07C8  120A  118A  20A5   	fcall	___fttol
              120A  118A         
  1634  07CD  1283               	bcf	status, 5	;RP0=0, select bank0
  1635  07CE  1303               	bcf	status, 6	;RP1=0, select bank0
  1636  07CF  0829               	movf	1+(((0+(?___fttol)))),w
  1637  07D0  1683               	bsf	status, 5	;RP0=1, select bank1
  1638  07D1  1303               	bcf	status, 6	;RP1=0, select bank1
  1639  07D2  01B6               	clrf	(main@currentPWM+1)^080h
  1640  07D3  07B6               	addwf	(main@currentPWM+1)^080h
  1641  07D4  1283               	bcf	status, 5	;RP0=0, select bank0
  1642  07D5  1303               	bcf	status, 6	;RP1=0, select bank0
  1643  07D6  0828               	movf	0+(((0+(?___fttol)))),w
  1644  07D7  1683               	bsf	status, 5	;RP0=1, select bank1
  1645  07D8  1303               	bcf	status, 6	;RP1=0, select bank1
  1646  07D9  01B5               	clrf	(main@currentPWM)^080h
  1647  07DA  07B5               	addwf	(main@currentPWM)^080h
  1648                           
  1649                           	line	176
  1650                           	
  1651  07DB                     l10445:	
  1652                           ;primarymain.c: 176: PORTD = counts;
  1653  07DB  083D               	movf	(main@counts)^080h,w
  1654  07DC  1283               	bcf	status, 5	;RP0=0, select bank0
  1655  07DD  1303               	bcf	status, 6	;RP1=0, select bank0
  1656  07DE  0088               	movwf	(8)	;volatile
  1657                           	line	178
  1658                           	
  1659  07DF                     l10447:	
  1660                           ;primarymain.c: 178: SetPulse(255);
  1661  07DF  30FF               	movlw	low(0FFh)
  1662  07E0  00A0               	movwf	(?_SetPulse)
  1663  07E1  3000               	movlw	high(0FFh)
  1664  07E2  00A1               	movwf	((?_SetPulse))+1
  1665  07E3  120A  158A  25E0   	fcall	_SetPulse
              120A  118A         
  1666                           	line	180
  1667                           	
  1668  07E8                     l10449:	
  1669                           ;primarymain.c: 180: delay(50);
  1670  07E8  3032               	movlw	low(032h)
  1671  07E9  1283               	bcf	status, 5	;RP0=0, select bank0
  1672  07EA  1303               	bcf	status, 6	;RP1=0, select bank0
  1673  07EB  00A0               	movwf	(?_delay)
  1674  07EC  3000               	movlw	high(032h)
  1675  07ED  00A1               	movwf	((?_delay))+1
  1676  07EE  120A  158A  264A   	fcall	_delay
              120A  118A         
  1677  07F3  2FF4               	goto	l10451
  1678                           	line	181
  1679                           	
  1680  07F4                     l1534:	
  1681                           	line	151
  1682                           	
  1683  07F4                     l10451:	
  1684  07F4  1683               	bsf	status, 5	;RP0=1, select bank1
  1685  07F5  1303               	bcf	status, 6	;RP1=0, select bank1
  1686  07F6  082A               	movf	(170)^080h,w
  1687  07F7  1D03               	skipz
  1688  07F8  2FFA               	goto	u4710
  1689  07F9  2D79               	goto	l10419
  1690  07FA                     u4710:
  1691  07FA  2D05               	goto	l10397
  1692                           	
  1693  07FB                     l1538:	
  1694  07FB  2D05               	goto	l10397
  1695                           	line	183
  1696                           	
  1697  07FC                     l1539:	
  1698                           	line	118
  1699  07FC  2D05               	goto	l10397
  1700                           	
  1701  07FD                     l1540:	
  1702                           	line	186
  1703                           ;primarymain.c: 181: }
  1704                           ;primarymain.c: 183: }
  1705                           ;primarymain.c: 185: return 1;
  1706                           ;	Return value of _main is never used
  1707                           	
  1708  07FD                     l1541:	
  1709                           	global	start
  1710  07FD  120A  118A  2812   	ljmp	start
  1711                           	opt stack 0
  1712                           GLOBAL	__end_of_main
  1713  0800                     	__end_of_main:
  1714 ;; =============== function _main ends ============
  1715                           
  1716                           	signat	_main,90
  1717                           	global	___awtoft
  1718                           psect	text696,local,class=CODE,delta=2
  1719                           global __ptext696
  1720  0E73                     __ptext696:
  1721                           
  1722 ;; *************** function ___awtoft *****************
  1723 ;; Defined at:
  1724 ;;		line 33 in file "C:\Program Files (x86)\HI-TECH Software\PICC\9.83\sources\awtoft.c"
  1725 ;; Parameters:    Size  Location     Type
  1726 ;;  c               2   22[BANK0 ] int 
  1727 ;; Auto vars:     Size  Location     Type
  1728 ;;  sign            1   27[BANK0 ] unsigned char 
  1729 ;; Return value:  Size  Location     Type
  1730 ;;                  3   22[BANK0 ] float 
  1731 ;; Registers used:
  1732 ;;		wreg, status,2, status,0, pclath, cstack
  1733 ;; Tracked objects:
  1734 ;;		On entry : 0/0
  1735 ;;		On exit  : 0/0
  1736 ;;		Unchanged: 0/0
  1737 ;; Data sizes:     COMMON   BANK0  BANK1h  BANK1l   BANK3   BANK2
  1738 ;;      Params:         0       3       0       0       0       0
  1739 ;;      Locals:         0       1       0       0       0       0
  1740 ;;      Temps:          0       2       0       0       0       0
  1741 ;;      Totals:         0       6       0       0       0       0
  1742 ;;Total ram usage:        6 bytes
  1743 ;; Hardware stack levels used:    1
  1744 ;; Hardware stack levels required when called:    2
  1745 ;; This function calls:
  1746 ;;		___ftpack
  1747 ;; This function is called by:
  1748 ;;		_main
  1749 ;; This function uses a non-reentrant model
  1750 ;;
  1751                           psect	text696
  1752                           	file	"C:\Program Files (x86)\HI-TECH Software\PICC\9.83\sources\awtoft.c"
  1753                           	line	33
  1754                           	global	__size_of___awtoft
  1755  002C                     	__size_of___awtoft	equ	__end_of___awtoft-___awtoft
  1756                           	
  1757  0E73                     ___awtoft:	
  1758                           	opt	stack 5
  1759                           ; Regs used in ___awtoft: [wreg+status,2+status,0+pclath+cstack]
  1760                           	line	36
  1761                           	
  1762  0E73                     l10383:	
  1763  0E73  1283               	bcf	status, 5	;RP0=0, select bank0
  1764  0E74  1303               	bcf	status, 6	;RP1=0, select bank0
  1765  0E75  01BB               	clrf	(___awtoft@sign)
  1766                           	line	37
  1767  0E76  1FB7               	btfss	(___awtoft@c+1),7
  1768  0E77  2E79               	goto	u4661
  1769  0E78  2E7A               	goto	u4660
  1770  0E79                     u4661:
  1771  0E79  2E83               	goto	l10387
  1772  0E7A                     u4660:
  1773                           	line	38
  1774                           	
  1775  0E7A                     l10385:	
  1776  0E7A  09B6               	comf	(___awtoft@c),f
  1777  0E7B  09B7               	comf	(___awtoft@c+1),f
  1778  0E7C  0AB6               	incf	(___awtoft@c),f
  1779  0E7D  1903               	skipnz
  1780  0E7E  0AB7               	incf	(___awtoft@c+1),f
  1781                           	line	39
  1782  0E7F  01BB               	clrf	(___awtoft@sign)
  1783  0E80  1403               	bsf	status,0
  1784  0E81  0DBB               	rlf	(___awtoft@sign),f
  1785  0E82  2E83               	goto	l10387
  1786                           	line	40
  1787                           	
  1788  0E83                     l7643:	
  1789                           	line	41
  1790                           	
  1791  0E83                     l10387:	
  1792  0E83  0836               	movf	(___awtoft@c),w
  1793  0E84  00A0               	movwf	(?___ftpack)
  1794  0E85  0837               	movf	(___awtoft@c+1),w
  1795  0E86  00A1               	movwf	(?___ftpack+1)
  1796  0E87  01A2               	clrf	(?___ftpack+2)
  1797  0E88  308E               	movlw	(08Eh)
  1798  0E89  00B9               	movwf	(??___awtoft+0)+0
  1799  0E8A  0839               	movf	(??___awtoft+0)+0,w
  1800  0E8B  00A3               	movwf	0+(?___ftpack)+03h
  1801  0E8C  083B               	movf	(___awtoft@sign),w
  1802  0E8D  00BA               	movwf	(??___awtoft+1)+0
  1803  0E8E  083A               	movf	(??___awtoft+1)+0,w
  1804  0E8F  00A4               	movwf	0+(?___ftpack)+04h
  1805  0E90  120A  158A  2783   	fcall	___ftpack
              120A  158A         
  1806  0E95  1283               	bcf	status, 5	;RP0=0, select bank0
  1807  0E96  1303               	bcf	status, 6	;RP1=0, select bank0
  1808  0E97  0820               	movf	(0+(?___ftpack)),w
  1809  0E98  00B6               	movwf	(?___awtoft)
  1810  0E99  0821               	movf	(1+(?___ftpack)),w
  1811  0E9A  00B7               	movwf	(?___awtoft+1)
  1812  0E9B  0822               	movf	(2+(?___ftpack)),w
  1813  0E9C  00B8               	movwf	(?___awtoft+2)
  1814  0E9D  2E9E               	goto	l7644
  1815                           	
  1816  0E9E                     l10389:	
  1817                           	line	42
  1818                           	
  1819  0E9E                     l7644:	
  1820  0E9E  0008               	return
  1821                           	opt stack 0
  1822                           GLOBAL	__end_of___awtoft
  1823  0E9F                     	__end_of___awtoft:
  1824 ;; =============== function ___awtoft ends ============
  1825                           
  1826                           	signat	___awtoft,4219
  1827                           	global	___ftmul
  1828                           psect	text697,local,class=CODE,delta=2
  1829                           global __ptext697
  1830  02BB                     __ptext697:
  1831                           
  1832 ;; *************** function ___ftmul *****************
  1833 ;; Defined at:
  1834 ;;		line 52 in file "C:\Program Files (x86)\HI-TECH Software\PICC\9.83\sources\ftmul.c"
  1835 ;; Parameters:    Size  Location     Type
  1836 ;;  f1              3   28[BANK0 ] float 
  1837 ;;  f2              3   31[BANK0 ] float 
  1838 ;; Auto vars:     Size  Location     Type
  1839 ;;  f3_as_produc    3   39[BANK0 ] unsigned um
  1840 ;;  sign            1   43[BANK0 ] unsigned char 
  1841 ;;  cntr            1   42[BANK0 ] unsigned char 
  1842 ;;  exp             1   38[BANK0 ] unsigned char 
  1843 ;; Return value:  Size  Location     Type
  1844 ;;                  3   28[BANK0 ] float 
  1845 ;; Registers used:
  1846 ;;		wreg, status,2, status,0, pclath, cstack
  1847 ;; Tracked objects:
  1848 ;;		On entry : 0/0
  1849 ;;		On exit  : 0/0
  1850 ;;		Unchanged: 0/0
  1851 ;; Data sizes:     COMMON   BANK0  BANK1h  BANK1l   BANK3   BANK2
  1852 ;;      Params:         0       6       0       0       0       0
  1853 ;;      Locals:         0       6       0       0       0       0
  1854 ;;      Temps:          0       4       0       0       0       0
  1855 ;;      Totals:         0      16       0       0       0       0
  1856 ;;Total ram usage:       16 bytes
  1857 ;; Hardware stack levels used:    1
  1858 ;; Hardware stack levels required when called:    2
  1859 ;; This function calls:
  1860 ;;		___ftpack
  1861 ;; This function is called by:
  1862 ;;		_main
  1863 ;; This function uses a non-reentrant model
  1864 ;;
  1865                           psect	text697
  1866                           	file	"C:\Program Files (x86)\HI-TECH Software\PICC\9.83\sources\ftmul.c"
  1867                           	line	52
  1868                           	global	__size_of___ftmul
  1869  00EE                     	__size_of___ftmul	equ	__end_of___ftmul-___ftmul
  1870                           	
  1871  02BB                     ___ftmul:	
  1872                           	opt	stack 5
  1873                           ; Regs used in ___ftmul: [wreg+status,2+status,0+pclath+cstack]
  1874                           	line	56
  1875                           	
  1876  02BB                     l10333:	
  1877  02BB  1283               	bcf	status, 5	;RP0=0, select bank0
  1878  02BC  1303               	bcf	status, 6	;RP1=0, select bank0
  1879  02BD  083C               	movf	(___ftmul@f1),w
  1880  02BE  00C2               	movwf	((??___ftmul+0)+0)
  1881  02BF  083D               	movf	(___ftmul@f1+1),w
  1882  02C0  00C3               	movwf	((??___ftmul+0)+0+1)
  1883  02C1  083E               	movf	(___ftmul@f1+2),w
  1884  02C2  00C4               	movwf	((??___ftmul+0)+0+2)
  1885  02C3  1003               	clrc
  1886  02C4  0D43               	rlf	(??___ftmul+0)+1,w
  1887  02C5  0D44               	rlf	(??___ftmul+0)+2,w
  1888  02C6  00C5               	movwf	(??___ftmul+3)+0
  1889  02C7  0845               	movf	(??___ftmul+3)+0,w
  1890  02C8  00C6               	movwf	(___ftmul@exp)
  1891  02C9  08C6               	movf	((___ftmul@exp)),f
  1892  02CA  1D03               	skipz
  1893  02CB  2ACD               	goto	u4521
  1894  02CC  2ACE               	goto	u4520
  1895  02CD                     u4521:
  1896  02CD  2AD6               	goto	l10339
  1897  02CE                     u4520:
  1898                           	line	57
  1899                           	
  1900  02CE                     l10335:	
  1901  02CE  3000               	movlw	0x0
  1902  02CF  00BC               	movwf	(?___ftmul)
  1903  02D0  3000               	movlw	0x0
  1904  02D1  00BD               	movwf	(?___ftmul+1)
  1905  02D2  3000               	movlw	0x0
  1906  02D3  00BE               	movwf	(?___ftmul+2)
  1907  02D4  2BA8               	goto	l7606
  1908                           	
  1909  02D5                     l10337:	
  1910  02D5  2BA8               	goto	l7606
  1911                           	
  1912  02D6                     l7605:	
  1913                           	line	58
  1914                           	
  1915  02D6                     l10339:	
  1916  02D6  083F               	movf	(___ftmul@f2),w
  1917  02D7  00C2               	movwf	((??___ftmul+0)+0)
  1918  02D8  0840               	movf	(___ftmul@f2+1),w
  1919  02D9  00C3               	movwf	((??___ftmul+0)+0+1)
  1920  02DA  0841               	movf	(___ftmul@f2+2),w
  1921  02DB  00C4               	movwf	((??___ftmul+0)+0+2)
  1922  02DC  1003               	clrc
  1923  02DD  0D43               	rlf	(??___ftmul+0)+1,w
  1924  02DE  0D44               	rlf	(??___ftmul+0)+2,w
  1925  02DF  00C5               	movwf	(??___ftmul+3)+0
  1926  02E0  0845               	movf	(??___ftmul+3)+0,w
  1927  02E1  00CB               	movwf	(___ftmul@sign)
  1928  02E2  08CB               	movf	((___ftmul@sign)),f
  1929  02E3  1D03               	skipz
  1930  02E4  2AE6               	goto	u4531
  1931  02E5  2AE7               	goto	u4530
  1932  02E6                     u4531:
  1933  02E6  2AEF               	goto	l10345
  1934  02E7                     u4530:
  1935                           	line	59
  1936                           	
  1937  02E7                     l10341:	
  1938  02E7  3000               	movlw	0x0
  1939  02E8  00BC               	movwf	(?___ftmul)
  1940  02E9  3000               	movlw	0x0
  1941  02EA  00BD               	movwf	(?___ftmul+1)
  1942  02EB  3000               	movlw	0x0
  1943  02EC  00BE               	movwf	(?___ftmul+2)
  1944  02ED  2BA8               	goto	l7606
  1945                           	
  1946  02EE                     l10343:	
  1947  02EE  2BA8               	goto	l7606
  1948                           	
  1949  02EF                     l7607:	
  1950                           	line	60
  1951                           	
  1952  02EF                     l10345:	
  1953  02EF  084B               	movf	(___ftmul@sign),w
  1954  02F0  3E7B               	addlw	07Bh
  1955  02F1  00C2               	movwf	(??___ftmul+0)+0
  1956  02F2  0842               	movf	(??___ftmul+0)+0,w
  1957  02F3  07C6               	addwf	(___ftmul@exp),f
  1958                           	line	61
  1959  02F4  083C               	movf	(___ftmul@f1),w
  1960  02F5  00C2               	movwf	((??___ftmul+0)+0)
  1961  02F6  083D               	movf	(___ftmul@f1+1),w
  1962  02F7  00C3               	movwf	((??___ftmul+0)+0+1)
  1963  02F8  083E               	movf	(___ftmul@f1+2),w
  1964  02F9  00C4               	movwf	((??___ftmul+0)+0+2)
  1965  02FA  3010               	movlw	010h
  1966  02FB                     u4545:
  1967  02FB  1003               	clrc
  1968  02FC  0CC4               	rrf	(??___ftmul+0)+2,f
  1969  02FD  0CC3               	rrf	(??___ftmul+0)+1,f
  1970  02FE  0CC2               	rrf	(??___ftmul+0)+0,f
  1971  02FF                     u4540:
  1972  02FF  3EFF               	addlw	-1
  1973  0300  1D03               	skipz
  1974  0301  2AFB               	goto	u4545
  1975  0302  0842               	movf	0+(??___ftmul+0)+0,w
  1976  0303  00C5               	movwf	(??___ftmul+3)+0
  1977  0304  0845               	movf	(??___ftmul+3)+0,w
  1978  0305  00CB               	movwf	(___ftmul@sign)
  1979                           	line	62
  1980  0306  083F               	movf	(___ftmul@f2),w
  1981  0307  00C2               	movwf	((??___ftmul+0)+0)
  1982  0308  0840               	movf	(___ftmul@f2+1),w
  1983  0309  00C3               	movwf	((??___ftmul+0)+0+1)
  1984  030A  0841               	movf	(___ftmul@f2+2),w
  1985  030B  00C4               	movwf	((??___ftmul+0)+0+2)
  1986  030C  3010               	movlw	010h
  1987  030D                     u4555:
  1988  030D  1003               	clrc
  1989  030E  0CC4               	rrf	(??___ftmul+0)+2,f
  1990  030F  0CC3               	rrf	(??___ftmul+0)+1,f
  1991  0310  0CC2               	rrf	(??___ftmul+0)+0,f
  1992  0311                     u4550:
  1993  0311  3EFF               	addlw	-1
  1994  0312  1D03               	skipz
  1995  0313  2B0D               	goto	u4555
  1996  0314  0842               	movf	0+(??___ftmul+0)+0,w
  1997  0315  00C5               	movwf	(??___ftmul+3)+0
  1998  0316  0845               	movf	(??___ftmul+3)+0,w
  1999  0317  06CB               	xorwf	(___ftmul@sign),f
  2000                           	line	63
  2001  0318  3080               	movlw	(080h)
  2002  0319  00C2               	movwf	(??___ftmul+0)+0
  2003  031A  0842               	movf	(??___ftmul+0)+0,w
  2004  031B  05CB               	andwf	(___ftmul@sign),f
  2005                           	line	64
  2006                           	
  2007  031C                     l10347:	
  2008  031C  17BD               	bsf	(___ftmul@f1)+(15/8),(15)&7
  2009                           	line	66
  2010                           	
  2011  031D                     l10349:	
  2012  031D  17C0               	bsf	(___ftmul@f2)+(15/8),(15)&7
  2013                           	line	67
  2014                           	
  2015  031E                     l10351:	
  2016  031E  30FF               	movlw	0FFh
  2017  031F  05BF               	andwf	(___ftmul@f2),f
  2018  0320  30FF               	movlw	0FFh
  2019  0321  05C0               	andwf	(___ftmul@f2+1),f
  2020  0322  3000               	movlw	0
  2021  0323  05C1               	andwf	(___ftmul@f2+2),f
  2022                           	line	68
  2023                           	
  2024  0324                     l10353:	
  2025  0324  3000               	movlw	0
  2026  0325  00C7               	movwf	(___ftmul@f3_as_product)
  2027  0326  3000               	movlw	0
  2028  0327  00C8               	movwf	(___ftmul@f3_as_product+1)
  2029  0328  3000               	movlw	0
  2030  0329  00C9               	movwf	(___ftmul@f3_as_product+2)
  2031                           	line	69
  2032                           	
  2033  032A                     l10355:	
  2034  032A  3007               	movlw	(07h)
  2035  032B  00C2               	movwf	(??___ftmul+0)+0
  2036  032C  0842               	movf	(??___ftmul+0)+0,w
  2037  032D  00CA               	movwf	(___ftmul@cntr)
  2038  032E  2B2F               	goto	l10357
  2039                           	line	70
  2040                           	
  2041  032F                     l7608:	
  2042                           	line	71
  2043                           	
  2044  032F                     l10357:	
  2045  032F  1C3C               	btfss	(___ftmul@f1),(0)&7
  2046  0330  2B32               	goto	u4561
  2047  0331  2B33               	goto	u4560
  2048  0332                     u4561:
  2049  0332  2B44               	goto	l10361
  2050  0333                     u4560:
  2051                           	line	72
  2052                           	
  2053  0333                     l10359:	
  2054  0333  083F               	movf	(___ftmul@f2),w
  2055  0334  07C7               	addwf	(___ftmul@f3_as_product),f
  2056  0335  0840               	movf	(___ftmul@f2+1),w
  2057  0336  1103               	clrz
  2058  0337  1803               	skipnc
  2059  0338  0A40               	incf	(___ftmul@f2+1),w
  2060  0339  1903               	skipnz
  2061  033A  2B3C               	goto	u4571
  2062  033B  07C8               	addwf	(___ftmul@f3_as_product+1),f
  2063  033C                     u4571:
  2064  033C  0841               	movf	(___ftmul@f2+2),w
  2065  033D  1103               	clrz
  2066  033E  1803               	skipnc
  2067  033F  0A41               	incf	(___ftmul@f2+2),w
  2068  0340  1903               	skipnz
  2069  0341  2B43               	goto	u4572
  2070  0342  07C9               	addwf	(___ftmul@f3_as_product+2),f
  2071  0343                     u4572:
  2072                           
  2073  0343  2B44               	goto	l10361
  2074                           	
  2075  0344                     l7609:	
  2076                           	line	73
  2077                           	
  2078  0344                     l10361:	
  2079  0344  3001               	movlw	01h
  2080  0345                     u4585:
  2081  0345  1003               	clrc
  2082  0346  0CBE               	rrf	(___ftmul@f1+2),f
  2083  0347  0CBD               	rrf	(___ftmul@f1+1),f
  2084  0348  0CBC               	rrf	(___ftmul@f1),f
  2085  0349  3EFF               	addlw	-1
  2086  034A  1D03               	skipz
  2087  034B  2B45               	goto	u4585
  2088                           
  2089                           	line	74
  2090                           	
  2091  034C                     l10363:	
  2092  034C  3001               	movlw	01h
  2093  034D                     u4595:
  2094  034D  1003               	clrc
  2095  034E  0DBF               	rlf	(___ftmul@f2),f
  2096  034F  0DC0               	rlf	(___ftmul@f2+1),f
  2097  0350  0DC1               	rlf	(___ftmul@f2+2),f
  2098  0351  3EFF               	addlw	-1
  2099  0352  1D03               	skipz
  2100  0353  2B4D               	goto	u4595
  2101                           	line	75
  2102                           	
  2103  0354                     l10365:	
  2104  0354  3001               	movlw	low(01h)
  2105  0355  02CA               	subwf	(___ftmul@cntr),f
  2106  0356  1D03               	btfss	status,2
  2107  0357  2B59               	goto	u4601
  2108  0358  2B5A               	goto	u4600
  2109  0359                     u4601:
  2110  0359  2B2F               	goto	l10357
  2111  035A                     u4600:
  2112  035A  2B5B               	goto	l10367
  2113                           	
  2114  035B                     l7610:	
  2115                           	line	76
  2116                           	
  2117  035B                     l10367:	
  2118  035B  3009               	movlw	(09h)
  2119  035C  00C2               	movwf	(??___ftmul+0)+0
  2120  035D  0842               	movf	(??___ftmul+0)+0,w
  2121  035E  00CA               	movwf	(___ftmul@cntr)
  2122  035F  2B60               	goto	l10369
  2123                           	line	77
  2124                           	
  2125  0360                     l7611:	
  2126                           	line	78
  2127                           	
  2128  0360                     l10369:	
  2129  0360  1C3C               	btfss	(___ftmul@f1),(0)&7
  2130  0361  2B63               	goto	u4611
  2131  0362  2B64               	goto	u4610
  2132  0363                     u4611:
  2133  0363  2B75               	goto	l10373
  2134  0364                     u4610:
  2135                           	line	79
  2136                           	
  2137  0364                     l10371:	
  2138  0364  083F               	movf	(___ftmul@f2),w
  2139  0365  07C7               	addwf	(___ftmul@f3_as_product),f
  2140  0366  0840               	movf	(___ftmul@f2+1),w
  2141  0367  1103               	clrz
  2142  0368  1803               	skipnc
  2143  0369  0A40               	incf	(___ftmul@f2+1),w
  2144  036A  1903               	skipnz
  2145  036B  2B6D               	goto	u4621
  2146  036C  07C8               	addwf	(___ftmul@f3_as_product+1),f
  2147  036D                     u4621:
  2148  036D  0841               	movf	(___ftmul@f2+2),w
  2149  036E  1103               	clrz
  2150  036F  1803               	skipnc
  2151  0370  0A41               	incf	(___ftmul@f2+2),w
  2152  0371  1903               	skipnz
  2153  0372  2B74               	goto	u4622
  2154  0373  07C9               	addwf	(___ftmul@f3_as_product+2),f
  2155  0374                     u4622:
  2156                           
  2157  0374  2B75               	goto	l10373
  2158                           	
  2159  0375                     l7612:	
  2160                           	line	80
  2161                           	
  2162  0375                     l10373:	
  2163  0375  3001               	movlw	01h
  2164  0376                     u4635:
  2165  0376  1003               	clrc
  2166  0377  0CBE               	rrf	(___ftmul@f1+2),f
  2167  0378  0CBD               	rrf	(___ftmul@f1+1),f
  2168  0379  0CBC               	rrf	(___ftmul@f1),f
  2169  037A  3EFF               	addlw	-1
  2170  037B  1D03               	skipz
  2171  037C  2B76               	goto	u4635
  2172                           
  2173                           	line	81
  2174                           	
  2175  037D                     l10375:	
  2176  037D  3001               	movlw	01h
  2177  037E                     u4645:
  2178  037E  1003               	clrc
  2179  037F  0CC9               	rrf	(___ftmul@f3_as_product+2),f
  2180  0380  0CC8               	rrf	(___ftmul@f3_as_product+1),f
  2181  0381  0CC7               	rrf	(___ftmul@f3_as_product),f
  2182  0382  3EFF               	addlw	-1
  2183  0383  1D03               	skipz
  2184  0384  2B7E               	goto	u4645
  2185                           
  2186                           	line	82
  2187                           	
  2188  0385                     l10377:	
  2189  0385  3001               	movlw	low(01h)
  2190  0386  02CA               	subwf	(___ftmul@cntr),f
  2191  0387  1D03               	btfss	status,2
  2192  0388  2B8A               	goto	u4651
  2193  0389  2B8B               	goto	u4650
  2194  038A                     u4651:
  2195  038A  2B60               	goto	l10369
  2196  038B                     u4650:
  2197  038B  2B8C               	goto	l10379
  2198                           	
  2199  038C                     l7613:	
  2200                           	line	83
  2201                           	
  2202  038C                     l10379:	
  2203  038C  0847               	movf	(___ftmul@f3_as_product),w
  2204  038D  00A0               	movwf	(?___ftpack)
  2205  038E  0848               	movf	(___ftmul@f3_as_product+1),w
  2206  038F  00A1               	movwf	(?___ftpack+1)
  2207  0390  0849               	movf	(___ftmul@f3_as_product+2),w
  2208  0391  00A2               	movwf	(?___ftpack+2)
  2209  0392  0846               	movf	(___ftmul@exp),w
  2210  0393  00C2               	movwf	(??___ftmul+0)+0
  2211  0394  0842               	movf	(??___ftmul+0)+0,w
  2212  0395  00A3               	movwf	0+(?___ftpack)+03h
  2213  0396  084B               	movf	(___ftmul@sign),w
  2214  0397  00C3               	movwf	(??___ftmul+1)+0
  2215  0398  0843               	movf	(??___ftmul+1)+0,w
  2216  0399  00A4               	movwf	0+(?___ftpack)+04h
  2217  039A  120A  158A  2783   	fcall	___ftpack
              120A  118A         
  2218  039F  1283               	bcf	status, 5	;RP0=0, select bank0
  2219  03A0  1303               	bcf	status, 6	;RP1=0, select bank0
  2220  03A1  0820               	movf	(0+(?___ftpack)),w
  2221  03A2  00BC               	movwf	(?___ftmul)
  2222  03A3  0821               	movf	(1+(?___ftpack)),w
  2223  03A4  00BD               	movwf	(?___ftmul+1)
  2224  03A5  0822               	movf	(2+(?___ftpack)),w
  2225  03A6  00BE               	movwf	(?___ftmul+2)
  2226  03A7  2BA8               	goto	l7606
  2227                           	
  2228  03A8                     l10381:	
  2229                           	line	84
  2230                           	
  2231  03A8                     l7606:	
  2232  03A8  0008               	return
  2233                           	opt stack 0
  2234                           GLOBAL	__end_of___ftmul
  2235  03A9                     	__end_of___ftmul:
  2236 ;; =============== function ___ftmul ends ============
  2237                           
  2238                           	signat	___ftmul,8315
  2239                           	global	___ftdiv
  2240                           psect	text698,local,class=CODE,delta=2
  2241                           global __ptext698
  2242  01F3                     __ptext698:
  2243                           
  2244 ;; *************** function ___ftdiv *****************
  2245 ;; Defined at:
  2246 ;;		line 50 in file "C:\Program Files (x86)\HI-TECH Software\PICC\9.83\sources\ftdiv.c"
  2247 ;; Parameters:    Size  Location     Type
  2248 ;;  f2              3   44[BANK0 ] float 
  2249 ;;  f1              3   47[BANK0 ] float 
  2250 ;; Auto vars:     Size  Location     Type
  2251 ;;  f3              3   55[BANK0 ] float 
  2252 ;;  sign            1   59[BANK0 ] unsigned char 
  2253 ;;  exp             1   58[BANK0 ] unsigned char 
  2254 ;;  cntr            1   54[BANK0 ] unsigned char 
  2255 ;; Return value:  Size  Location     Type
  2256 ;;                  3   44[BANK0 ] float 
  2257 ;; Registers used:
  2258 ;;		wreg, status,2, status,0, pclath, cstack
  2259 ;; Tracked objects:
  2260 ;;		On entry : 0/0
  2261 ;;		On exit  : 0/0
  2262 ;;		Unchanged: 0/0
  2263 ;; Data sizes:     COMMON   BANK0  BANK1h  BANK1l   BANK3   BANK2
  2264 ;;      Params:         0       6       0       0       0       0
  2265 ;;      Locals:         0       6       0       0       0       0
  2266 ;;      Temps:          0       4       0       0       0       0
  2267 ;;      Totals:         0      16       0       0       0       0
  2268 ;;Total ram usage:       16 bytes
  2269 ;; Hardware stack levels used:    1
  2270 ;; Hardware stack levels required when called:    2
  2271 ;; This function calls:
  2272 ;;		___ftpack
  2273 ;; This function is called by:
  2274 ;;		_main
  2275 ;; This function uses a non-reentrant model
  2276 ;;
  2277                           psect	text698
  2278                           	file	"C:\Program Files (x86)\HI-TECH Software\PICC\9.83\sources\ftdiv.c"
  2279                           	line	50
  2280                           	global	__size_of___ftdiv
  2281  00C8                     	__size_of___ftdiv	equ	__end_of___ftdiv-___ftdiv
  2282                           	
  2283  01F3                     ___ftdiv:	
  2284                           	opt	stack 5
  2285                           ; Regs used in ___ftdiv: [wreg+status,2+status,0+pclath+cstack]
  2286                           	line	55
  2287                           	
  2288  01F3                     l10291:	
  2289  01F3  1283               	bcf	status, 5	;RP0=0, select bank0
  2290  01F4  1303               	bcf	status, 6	;RP1=0, select bank0
  2291  01F5  084F               	movf	(___ftdiv@f1),w
  2292  01F6  00D2               	movwf	((??___ftdiv+0)+0)
  2293  01F7  0850               	movf	(___ftdiv@f1+1),w
  2294  01F8  00D3               	movwf	((??___ftdiv+0)+0+1)
  2295  01F9  0851               	movf	(___ftdiv@f1+2),w
  2296  01FA  00D4               	movwf	((??___ftdiv+0)+0+2)
  2297  01FB  1003               	clrc
  2298  01FC  0D53               	rlf	(??___ftdiv+0)+1,w
  2299  01FD  0D54               	rlf	(??___ftdiv+0)+2,w
  2300  01FE  00D5               	movwf	(??___ftdiv+3)+0
  2301  01FF  0855               	movf	(??___ftdiv+3)+0,w
  2302  0200  00DA               	movwf	(___ftdiv@exp)
  2303  0201  08DA               	movf	((___ftdiv@exp)),f
  2304  0202  1D03               	skipz
  2305  0203  2A05               	goto	u4441
  2306  0204  2A06               	goto	u4440
  2307  0205                     u4441:
  2308  0205  2A0E               	goto	l10297
  2309  0206                     u4440:
  2310                           	line	56
  2311                           	
  2312  0206                     l10293:	
  2313  0206  3000               	movlw	0x0
  2314  0207  00CC               	movwf	(?___ftdiv)
  2315  0208  3000               	movlw	0x0
  2316  0209  00CD               	movwf	(?___ftdiv+1)
  2317  020A  3000               	movlw	0x0
  2318  020B  00CE               	movwf	(?___ftdiv+2)
  2319  020C  2ABA               	goto	l7596
  2320                           	
  2321  020D                     l10295:	
  2322  020D  2ABA               	goto	l7596
  2323                           	
  2324  020E                     l7595:	
  2325                           	line	57
  2326                           	
  2327  020E                     l10297:	
  2328  020E  084C               	movf	(___ftdiv@f2),w
  2329  020F  00D2               	movwf	((??___ftdiv+0)+0)
  2330  0210  084D               	movf	(___ftdiv@f2+1),w
  2331  0211  00D3               	movwf	((??___ftdiv+0)+0+1)
  2332  0212  084E               	movf	(___ftdiv@f2+2),w
  2333  0213  00D4               	movwf	((??___ftdiv+0)+0+2)
  2334  0214  1003               	clrc
  2335  0215  0D53               	rlf	(??___ftdiv+0)+1,w
  2336  0216  0D54               	rlf	(??___ftdiv+0)+2,w
  2337  0217  00D5               	movwf	(??___ftdiv+3)+0
  2338  0218  0855               	movf	(??___ftdiv+3)+0,w
  2339  0219  00DB               	movwf	(___ftdiv@sign)
  2340  021A  08DB               	movf	((___ftdiv@sign)),f
  2341  021B  1D03               	skipz
  2342  021C  2A1E               	goto	u4451
  2343  021D  2A1F               	goto	u4450
  2344  021E                     u4451:
  2345  021E  2A27               	goto	l10303
  2346  021F                     u4450:
  2347                           	line	58
  2348                           	
  2349  021F                     l10299:	
  2350  021F  3000               	movlw	0x0
  2351  0220  00CC               	movwf	(?___ftdiv)
  2352  0221  3000               	movlw	0x0
  2353  0222  00CD               	movwf	(?___ftdiv+1)
  2354  0223  3000               	movlw	0x0
  2355  0224  00CE               	movwf	(?___ftdiv+2)
  2356  0225  2ABA               	goto	l7596
  2357                           	
  2358  0226                     l10301:	
  2359  0226  2ABA               	goto	l7596
  2360                           	
  2361  0227                     l7597:	
  2362                           	line	59
  2363                           	
  2364  0227                     l10303:	
  2365  0227  3000               	movlw	0
  2366  0228  00D7               	movwf	(___ftdiv@f3)
  2367  0229  3000               	movlw	0
  2368  022A  00D8               	movwf	(___ftdiv@f3+1)
  2369  022B  3000               	movlw	0
  2370  022C  00D9               	movwf	(___ftdiv@f3+2)
  2371                           	line	60
  2372                           	
  2373  022D                     l10305:	
  2374  022D  3089               	movlw	(089h)
  2375  022E  075B               	addwf	(___ftdiv@sign),w
  2376  022F  00D2               	movwf	(??___ftdiv+0)+0
  2377  0230  0852               	movf	0+(??___ftdiv+0)+0,w
  2378  0231  02DA               	subwf	(___ftdiv@exp),f
  2379                           	line	61
  2380                           	
  2381  0232                     l10307:	
  2382  0232  084F               	movf	(___ftdiv@f1),w
  2383  0233  00D2               	movwf	((??___ftdiv+0)+0)
  2384  0234  0850               	movf	(___ftdiv@f1+1),w
  2385  0235  00D3               	movwf	((??___ftdiv+0)+0+1)
  2386  0236  0851               	movf	(___ftdiv@f1+2),w
  2387  0237  00D4               	movwf	((??___ftdiv+0)+0+2)
  2388  0238  3010               	movlw	010h
  2389  0239                     u4465:
  2390  0239  1003               	clrc
  2391  023A  0CD4               	rrf	(??___ftdiv+0)+2,f
  2392  023B  0CD3               	rrf	(??___ftdiv+0)+1,f
  2393  023C  0CD2               	rrf	(??___ftdiv+0)+0,f
  2394  023D                     u4460:
  2395  023D  3EFF               	addlw	-1
  2396  023E  1D03               	skipz
  2397  023F  2A39               	goto	u4465
  2398  0240  0852               	movf	0+(??___ftdiv+0)+0,w
  2399  0241  00D5               	movwf	(??___ftdiv+3)+0
  2400  0242  0855               	movf	(??___ftdiv+3)+0,w
  2401  0243  00DB               	movwf	(___ftdiv@sign)
  2402                           	line	62
  2403                           	
  2404  0244                     l10309:	
  2405  0244  084C               	movf	(___ftdiv@f2),w
  2406  0245  00D2               	movwf	((??___ftdiv+0)+0)
  2407  0246  084D               	movf	(___ftdiv@f2+1),w
  2408  0247  00D3               	movwf	((??___ftdiv+0)+0+1)
  2409  0248  084E               	movf	(___ftdiv@f2+2),w
  2410  0249  00D4               	movwf	((??___ftdiv+0)+0+2)
  2411  024A  3010               	movlw	010h
  2412  024B                     u4475:
  2413  024B  1003               	clrc
  2414  024C  0CD4               	rrf	(??___ftdiv+0)+2,f
  2415  024D  0CD3               	rrf	(??___ftdiv+0)+1,f
  2416  024E  0CD2               	rrf	(??___ftdiv+0)+0,f
  2417  024F                     u4470:
  2418  024F  3EFF               	addlw	-1
  2419  0250  1D03               	skipz
  2420  0251  2A4B               	goto	u4475
  2421  0252  0852               	movf	0+(??___ftdiv+0)+0,w
  2422  0253  00D5               	movwf	(??___ftdiv+3)+0
  2423  0254  0855               	movf	(??___ftdiv+3)+0,w
  2424  0255  06DB               	xorwf	(___ftdiv@sign),f
  2425                           	line	63
  2426                           	
  2427  0256                     l10311:	
  2428  0256  3080               	movlw	(080h)
  2429  0257  00D2               	movwf	(??___ftdiv+0)+0
  2430  0258  0852               	movf	(??___ftdiv+0)+0,w
  2431  0259  05DB               	andwf	(___ftdiv@sign),f
  2432                           	line	64
  2433                           	
  2434  025A                     l10313:	
  2435  025A  17D0               	bsf	(___ftdiv@f1)+(15/8),(15)&7
  2436                           	line	65
  2437  025B  30FF               	movlw	0FFh
  2438  025C  05CF               	andwf	(___ftdiv@f1),f
  2439  025D  30FF               	movlw	0FFh
  2440  025E  05D0               	andwf	(___ftdiv@f1+1),f
  2441  025F  3000               	movlw	0
  2442  0260  05D1               	andwf	(___ftdiv@f1+2),f
  2443                           	line	66
  2444                           	
  2445  0261                     l10315:	
  2446  0261  17CD               	bsf	(___ftdiv@f2)+(15/8),(15)&7
  2447                           	line	67
  2448  0262  30FF               	movlw	0FFh
  2449  0263  05CC               	andwf	(___ftdiv@f2),f
  2450  0264  30FF               	movlw	0FFh
  2451  0265  05CD               	andwf	(___ftdiv@f2+1),f
  2452  0266  3000               	movlw	0
  2453  0267  05CE               	andwf	(___ftdiv@f2+2),f
  2454                           	line	68
  2455  0268  3018               	movlw	(018h)
  2456  0269  00D2               	movwf	(??___ftdiv+0)+0
  2457  026A  0852               	movf	(??___ftdiv+0)+0,w
  2458  026B  00D6               	movwf	(___ftdiv@cntr)
  2459  026C  2A6D               	goto	l10317
  2460                           	line	69
  2461                           	
  2462  026D                     l7598:	
  2463                           	line	70
  2464                           	
  2465  026D                     l10317:	
  2466  026D  3001               	movlw	01h
  2467  026E                     u4485:
  2468  026E  1003               	clrc
  2469  026F  0DD7               	rlf	(___ftdiv@f3),f
  2470  0270  0DD8               	rlf	(___ftdiv@f3+1),f
  2471  0271  0DD9               	rlf	(___ftdiv@f3+2),f
  2472  0272  3EFF               	addlw	-1
  2473  0273  1D03               	skipz
  2474  0274  2A6E               	goto	u4485
  2475                           	line	71
  2476                           	
  2477  0275                     l10319:	
  2478  0275  084E               	movf	(___ftdiv@f2+2),w
  2479  0276  0251               	subwf	(___ftdiv@f1+2),w
  2480  0277  1D03               	skipz
  2481  0278  2A7F               	goto	u4495
  2482  0279  084D               	movf	(___ftdiv@f2+1),w
  2483  027A  0250               	subwf	(___ftdiv@f1+1),w
  2484  027B  1D03               	skipz
  2485  027C  2A7F               	goto	u4495
  2486  027D  084C               	movf	(___ftdiv@f2),w
  2487  027E  024F               	subwf	(___ftdiv@f1),w
  2488  027F                     u4495:
  2489  027F  1C03               	skipc
  2490  0280  2A82               	goto	u4491
  2491  0281  2A83               	goto	u4490
  2492  0282                     u4491:
  2493  0282  2A8F               	goto	l10325
  2494  0283                     u4490:
  2495                           	line	72
  2496                           	
  2497  0283                     l10321:	
  2498  0283  084C               	movf	(___ftdiv@f2),w
  2499  0284  02CF               	subwf	(___ftdiv@f1),f
  2500  0285  084D               	movf	(___ftdiv@f2+1),w
  2501  0286  1C03               	skipc
  2502  0287  0F4D               	incfsz	(___ftdiv@f2+1),w
  2503  0288  02D0               	subwf	(___ftdiv@f1+1),f
  2504  0289  084E               	movf	(___ftdiv@f2+2),w
  2505  028A  1C03               	skipc
  2506  028B  0A4E               	incf	(___ftdiv@f2+2),w
  2507  028C  02D1               	subwf	(___ftdiv@f1+2),f
  2508                           	line	73
  2509                           	
  2510  028D                     l10323:	
  2511  028D  1457               	bsf	(___ftdiv@f3)+(0/8),(0)&7
  2512  028E  2A8F               	goto	l10325
  2513                           	line	74
  2514                           	
  2515  028F                     l7599:	
  2516                           	line	75
  2517                           	
  2518  028F                     l10325:	
  2519  028F  3001               	movlw	01h
  2520  0290                     u4505:
  2521  0290  1003               	clrc
  2522  0291  0DCF               	rlf	(___ftdiv@f1),f
  2523  0292  0DD0               	rlf	(___ftdiv@f1+1),f
  2524  0293  0DD1               	rlf	(___ftdiv@f1+2),f
  2525  0294  3EFF               	addlw	-1
  2526  0295  1D03               	skipz
  2527  0296  2A90               	goto	u4505
  2528                           	line	76
  2529                           	
  2530  0297                     l10327:	
  2531  0297  3001               	movlw	low(01h)
  2532  0298  02D6               	subwf	(___ftdiv@cntr),f
  2533  0299  1D03               	btfss	status,2
  2534  029A  2A9C               	goto	u4511
  2535  029B  2A9D               	goto	u4510
  2536  029C                     u4511:
  2537  029C  2A6D               	goto	l10317
  2538  029D                     u4510:
  2539  029D  2A9E               	goto	l10329
  2540                           	
  2541  029E                     l7600:	
  2542                           	line	77
  2543                           	
  2544  029E                     l10329:	
  2545  029E  0857               	movf	(___ftdiv@f3),w
  2546  029F  00A0               	movwf	(?___ftpack)
  2547  02A0  0858               	movf	(___ftdiv@f3+1),w
  2548  02A1  00A1               	movwf	(?___ftpack+1)
  2549  02A2  0859               	movf	(___ftdiv@f3+2),w
  2550  02A3  00A2               	movwf	(?___ftpack+2)
  2551  02A4  085A               	movf	(___ftdiv@exp),w
  2552  02A5  00D2               	movwf	(??___ftdiv+0)+0
  2553  02A6  0852               	movf	(??___ftdiv+0)+0,w
  2554  02A7  00A3               	movwf	0+(?___ftpack)+03h
  2555  02A8  085B               	movf	(___ftdiv@sign),w
  2556  02A9  00D3               	movwf	(??___ftdiv+1)+0
  2557  02AA  0853               	movf	(??___ftdiv+1)+0,w
  2558  02AB  00A4               	movwf	0+(?___ftpack)+04h
  2559  02AC  120A  158A  2783   	fcall	___ftpack
              120A  118A         
  2560  02B1  1283               	bcf	status, 5	;RP0=0, select bank0
  2561  02B2  1303               	bcf	status, 6	;RP1=0, select bank0
  2562  02B3  0820               	movf	(0+(?___ftpack)),w
  2563  02B4  00CC               	movwf	(?___ftdiv)
  2564  02B5  0821               	movf	(1+(?___ftpack)),w
  2565  02B6  00CD               	movwf	(?___ftdiv+1)
  2566  02B7  0822               	movf	(2+(?___ftpack)),w
  2567  02B8  00CE               	movwf	(?___ftdiv+2)
  2568  02B9  2ABA               	goto	l7596
  2569                           	
  2570  02BA                     l10331:	
  2571                           	line	78
  2572                           	
  2573  02BA                     l7596:	
  2574  02BA  0008               	return
  2575                           	opt stack 0
  2576                           GLOBAL	__end_of___ftdiv
  2577  02BB                     	__end_of___ftdiv:
  2578 ;; =============== function ___ftdiv ends ============
  2579                           
  2580                           	signat	___ftdiv,8315
  2581                           	global	___ftadd
  2582                           psect	text699,local,class=CODE,delta=2
  2583                           global __ptext699
  2584  03A9                     __ptext699:
  2585                           
  2586 ;; *************** function ___ftadd *****************
  2587 ;; Defined at:
  2588 ;;		line 87 in file "C:\Program Files (x86)\HI-TECH Software\PICC\9.83\sources\ftadd.c"
  2589 ;; Parameters:    Size  Location     Type
  2590 ;;  f1              3   44[BANK0 ] float 
  2591 ;;  f2              3   47[BANK0 ] float 
  2592 ;; Auto vars:     Size  Location     Type
  2593 ;;  exp1            1   56[BANK0 ] unsigned char 
  2594 ;;  exp2            1   55[BANK0 ] unsigned char 
  2595 ;;  sign            1   54[BANK0 ] unsigned char 
  2596 ;; Return value:  Size  Location     Type
  2597 ;;                  3   44[BANK0 ] float 
  2598 ;; Registers used:
  2599 ;;		wreg, status,2, status,0, pclath, cstack
  2600 ;; Tracked objects:
  2601 ;;		On entry : 0/0
  2602 ;;		On exit  : 0/0
  2603 ;;		Unchanged: 0/0
  2604 ;; Data sizes:     COMMON   BANK0  BANK1h  BANK1l   BANK3   BANK2
  2605 ;;      Params:         0       6       0       0       0       0
  2606 ;;      Locals:         0       3       0       0       0       0
  2607 ;;      Temps:          0       4       0       0       0       0
  2608 ;;      Totals:         0      13       0       0       0       0
  2609 ;;Total ram usage:       13 bytes
  2610 ;; Hardware stack levels used:    1
  2611 ;; Hardware stack levels required when called:    2
  2612 ;; This function calls:
  2613 ;;		___ftpack
  2614 ;; This function is called by:
  2615 ;;		_main
  2616 ;;		___ftsub
  2617 ;; This function uses a non-reentrant model
  2618 ;;
  2619                           psect	text699
  2620                           	file	"C:\Program Files (x86)\HI-TECH Software\PICC\9.83\sources\ftadd.c"
  2621                           	line	87
  2622                           	global	__size_of___ftadd
  2623  0146                     	__size_of___ftadd	equ	__end_of___ftadd-___ftadd
  2624                           	
  2625  03A9                     ___ftadd:	
  2626                           	opt	stack 5
  2627                           ; Regs used in ___ftadd: [wreg+status,2+status,0+pclath+cstack]
  2628                           	line	90
  2629                           	
  2630  03A9                     l10221:	
  2631  03A9  1283               	bcf	status, 5	;RP0=0, select bank0
  2632  03AA  1303               	bcf	status, 6	;RP1=0, select bank0
  2633  03AB  084C               	movf	(___ftadd@f1),w
  2634  03AC  00D2               	movwf	((??___ftadd+0)+0)
  2635  03AD  084D               	movf	(___ftadd@f1+1),w
  2636  03AE  00D3               	movwf	((??___ftadd+0)+0+1)
  2637  03AF  084E               	movf	(___ftadd@f1+2),w
  2638  03B0  00D4               	movwf	((??___ftadd+0)+0+2)
  2639  03B1  1003               	clrc
  2640  03B2  0D53               	rlf	(??___ftadd+0)+1,w
  2641  03B3  0D54               	rlf	(??___ftadd+0)+2,w
  2642  03B4  00D5               	movwf	(??___ftadd+3)+0
  2643  03B5  0855               	movf	(??___ftadd+3)+0,w
  2644  03B6  00D8               	movwf	(___ftadd@exp1)
  2645                           	line	91
  2646  03B7  084F               	movf	(___ftadd@f2),w
  2647  03B8  00D2               	movwf	((??___ftadd+0)+0)
  2648  03B9  0850               	movf	(___ftadd@f2+1),w
  2649  03BA  00D3               	movwf	((??___ftadd+0)+0+1)
  2650  03BB  0851               	movf	(___ftadd@f2+2),w
  2651  03BC  00D4               	movwf	((??___ftadd+0)+0+2)
  2652  03BD  1003               	clrc
  2653  03BE  0D53               	rlf	(??___ftadd+0)+1,w
  2654  03BF  0D54               	rlf	(??___ftadd+0)+2,w
  2655  03C0  00D5               	movwf	(??___ftadd+3)+0
  2656  03C1  0855               	movf	(??___ftadd+3)+0,w
  2657  03C2  00D7               	movwf	(___ftadd@exp2)
  2658                           	line	92
  2659                           	
  2660  03C3                     l10223:	
  2661  03C3  0858               	movf	(___ftadd@exp1),w
  2662  03C4  1D03               	skipz
  2663  03C5  2BC7               	goto	u4200
  2664  03C6  2BD8               	goto	l10229
  2665  03C7                     u4200:
  2666                           	
  2667  03C7                     l10225:	
  2668  03C7  0857               	movf	(___ftadd@exp2),w
  2669  03C8  0258               	subwf	(___ftadd@exp1),w
  2670  03C9  1803               	skipnc
  2671  03CA  2BCC               	goto	u4211
  2672  03CB  2BCD               	goto	u4210
  2673  03CC                     u4211:
  2674  03CC  2BE0               	goto	l10233
  2675  03CD                     u4210:
  2676                           	
  2677  03CD                     l10227:	
  2678  03CD  0358               	decf	(___ftadd@exp1),w
  2679  03CE  3AFF               	xorlw	0ffh
  2680  03CF  0757               	addwf	(___ftadd@exp2),w
  2681  03D0  00D2               	movwf	(??___ftadd+0)+0
  2682  03D1  3019               	movlw	(019h)
  2683  03D2  0252               	subwf	0+(??___ftadd+0)+0,w
  2684  03D3  1C03               	skipc
  2685  03D4  2BD6               	goto	u4221
  2686  03D5  2BD7               	goto	u4220
  2687  03D6                     u4221:
  2688  03D6  2BE0               	goto	l10233
  2689  03D7                     u4220:
  2690  03D7  2BD8               	goto	l10229
  2691                           	
  2692  03D8                     l7553:	
  2693                           	line	93
  2694                           	
  2695  03D8                     l10229:	
  2696  03D8  084F               	movf	(___ftadd@f2),w
  2697  03D9  00CC               	movwf	(?___ftadd)
  2698  03DA  0850               	movf	(___ftadd@f2+1),w
  2699  03DB  00CD               	movwf	(?___ftadd+1)
  2700  03DC  0851               	movf	(___ftadd@f2+2),w
  2701  03DD  00CE               	movwf	(?___ftadd+2)
  2702  03DE  2CEE               	goto	l7554
  2703                           	
  2704  03DF                     l10231:	
  2705  03DF  2CEE               	goto	l7554
  2706                           	
  2707  03E0                     l7551:	
  2708                           	line	94
  2709                           	
  2710  03E0                     l10233:	
  2711  03E0  0857               	movf	(___ftadd@exp2),w
  2712  03E1  1D03               	skipz
  2713  03E2  2BE4               	goto	u4230
  2714  03E3  2BF4               	goto	l7557
  2715  03E4                     u4230:
  2716                           	
  2717  03E4                     l10235:	
  2718  03E4  0858               	movf	(___ftadd@exp1),w
  2719  03E5  0257               	subwf	(___ftadd@exp2),w
  2720  03E6  1803               	skipnc
  2721  03E7  2BE9               	goto	u4241
  2722  03E8  2BEA               	goto	u4240
  2723  03E9                     u4241:
  2724  03E9  2BF5               	goto	l10239
  2725  03EA                     u4240:
  2726                           	
  2727  03EA                     l10237:	
  2728  03EA  0357               	decf	(___ftadd@exp2),w
  2729  03EB  3AFF               	xorlw	0ffh
  2730  03EC  0758               	addwf	(___ftadd@exp1),w
  2731  03ED  00D2               	movwf	(??___ftadd+0)+0
  2732  03EE  3019               	movlw	(019h)
  2733  03EF  0252               	subwf	0+(??___ftadd+0)+0,w
  2734  03F0  1C03               	skipc
  2735  03F1  2BF3               	goto	u4251
  2736  03F2  2BF4               	goto	u4250
  2737  03F3                     u4251:
  2738  03F3  2BF5               	goto	l10239
  2739  03F4                     u4250:
  2740                           	
  2741  03F4                     l7557:	
  2742                           	line	95
  2743  03F4  2CEE               	goto	l7554
  2744                           	
  2745  03F5                     l7555:	
  2746                           	line	96
  2747                           	
  2748  03F5                     l10239:	
  2749  03F5  3006               	movlw	(06h)
  2750  03F6  00D2               	movwf	(??___ftadd+0)+0
  2751  03F7  0852               	movf	(??___ftadd+0)+0,w
  2752  03F8  00D6               	movwf	(___ftadd@sign)
  2753                           	line	97
  2754                           	
  2755  03F9                     l10241:	
  2756  03F9  1FCE               	btfss	(___ftadd@f1+2),(23)&7
  2757  03FA  2BFC               	goto	u4261
  2758  03FB  2BFD               	goto	u4260
  2759  03FC                     u4261:
  2760  03FC  2BFE               	goto	l7558
  2761  03FD                     u4260:
  2762                           	line	98
  2763                           	
  2764  03FD                     l10243:	
  2765  03FD  17D6               	bsf	(___ftadd@sign)+(7/8),(7)&7
  2766                           	
  2767  03FE                     l7558:	
  2768                           	line	99
  2769  03FE  1FD1               	btfss	(___ftadd@f2+2),(23)&7
  2770  03FF  2C01               	goto	u4271
  2771  0400  2C02               	goto	u4270
  2772  0401                     u4271:
  2773  0401  2C03               	goto	l7559
  2774  0402                     u4270:
  2775                           	line	100
  2776                           	
  2777  0402                     l10245:	
  2778  0402  1756               	bsf	(___ftadd@sign)+(6/8),(6)&7
  2779                           	
  2780  0403                     l7559:	
  2781                           	line	101
  2782  0403  17CD               	bsf	(___ftadd@f1)+(15/8),(15)&7
  2783                           	line	102
  2784                           	
  2785  0404                     l10247:	
  2786  0404  30FF               	movlw	0FFh
  2787  0405  05CC               	andwf	(___ftadd@f1),f
  2788  0406  30FF               	movlw	0FFh
  2789  0407  05CD               	andwf	(___ftadd@f1+1),f
  2790  0408  3000               	movlw	0
  2791  0409  05CE               	andwf	(___ftadd@f1+2),f
  2792                           	line	103
  2793                           	
  2794  040A                     l10249:	
  2795  040A  17D0               	bsf	(___ftadd@f2)+(15/8),(15)&7
  2796                           	line	104
  2797  040B  30FF               	movlw	0FFh
  2798  040C  05CF               	andwf	(___ftadd@f2),f
  2799  040D  30FF               	movlw	0FFh
  2800  040E  05D0               	andwf	(___ftadd@f2+1),f
  2801  040F  3000               	movlw	0
  2802  0410  05D1               	andwf	(___ftadd@f2+2),f
  2803                           	line	106
  2804  0411  0857               	movf	(___ftadd@exp2),w
  2805  0412  0258               	subwf	(___ftadd@exp1),w
  2806  0413  1803               	skipnc
  2807  0414  2C16               	goto	u4281
  2808  0415  2C17               	goto	u4280
  2809  0416                     u4281:
  2810  0416  2C48               	goto	l10261
  2811  0417                     u4280:
  2812  0417  2C18               	goto	l10251
  2813                           	line	109
  2814                           	
  2815  0418                     l7561:	
  2816                           	line	110
  2817                           	
  2818  0418                     l10251:	
  2819  0418  3001               	movlw	01h
  2820  0419                     u4295:
  2821  0419  1003               	clrc
  2822  041A  0DCF               	rlf	(___ftadd@f2),f
  2823  041B  0DD0               	rlf	(___ftadd@f2+1),f
  2824  041C  0DD1               	rlf	(___ftadd@f2+2),f
  2825  041D  3EFF               	addlw	-1
  2826  041E  1D03               	skipz
  2827  041F  2C19               	goto	u4295
  2828                           	line	111
  2829  0420  3001               	movlw	low(01h)
  2830  0421  02D7               	subwf	(___ftadd@exp2),f
  2831                           	line	112
  2832                           	
  2833  0422                     l10253:	
  2834  0422  0857               	movf	(___ftadd@exp2),w
  2835  0423  0658               	xorwf	(___ftadd@exp1),w
  2836  0424  1903               	skipnz
  2837  0425  2C27               	goto	u4301
  2838  0426  2C28               	goto	u4300
  2839  0427                     u4301:
  2840  0427  2C40               	goto	l10259
  2841  0428                     u4300:
  2842                           	
  2843  0428                     l10255:	
  2844  0428  3001               	movlw	low(01h)
  2845  0429  02D6               	subwf	(___ftadd@sign),f
  2846  042A  0856               	movf	((___ftadd@sign)),w
  2847  042B  3907               	andlw	07h
  2848  042C  1D03               	btfss	status,2
  2849  042D  2C2F               	goto	u4311
  2850  042E  2C30               	goto	u4310
  2851  042F                     u4311:
  2852  042F  2C18               	goto	l10251
  2853  0430                     u4310:
  2854  0430  2C40               	goto	l10259
  2855                           	
  2856  0431                     l7563:	
  2857  0431  2C40               	goto	l10259
  2858                           	
  2859  0432                     l7564:	
  2860                           	line	113
  2861  0432  2C40               	goto	l10259
  2862                           	
  2863  0433                     l7566:	
  2864                           	line	114
  2865                           	
  2866  0433                     l10257:	
  2867  0433  3001               	movlw	01h
  2868  0434                     u4325:
  2869  0434  1003               	clrc
  2870  0435  0CCE               	rrf	(___ftadd@f1+2),f
  2871  0436  0CCD               	rrf	(___ftadd@f1+1),f
  2872  0437  0CCC               	rrf	(___ftadd@f1),f
  2873  0438  3EFF               	addlw	-1
  2874  0439  1D03               	skipz
  2875  043A  2C34               	goto	u4325
  2876                           
  2877                           	line	115
  2878  043B  3001               	movlw	(01h)
  2879  043C  00D2               	movwf	(??___ftadd+0)+0
  2880  043D  0852               	movf	(??___ftadd+0)+0,w
  2881  043E  07D8               	addwf	(___ftadd@exp1),f
  2882  043F  2C40               	goto	l10259
  2883                           	line	116
  2884                           	
  2885  0440                     l7565:	
  2886                           	line	113
  2887                           	
  2888  0440                     l10259:	
  2889  0440  0858               	movf	(___ftadd@exp1),w
  2890  0441  0657               	xorwf	(___ftadd@exp2),w
  2891  0442  1D03               	skipz
  2892  0443  2C45               	goto	u4331
  2893  0444  2C46               	goto	u4330
  2894  0445                     u4331:
  2895  0445  2C33               	goto	l10257
  2896  0446                     u4330:
  2897  0446  2C7F               	goto	l7568
  2898                           	
  2899  0447                     l7567:	
  2900                           	line	117
  2901  0447  2C7F               	goto	l7568
  2902                           	
  2903  0448                     l7560:	
  2904                           	
  2905  0448                     l10261:	
  2906  0448  0858               	movf	(___ftadd@exp1),w
  2907  0449  0257               	subwf	(___ftadd@exp2),w
  2908  044A  1803               	skipnc
  2909  044B  2C4D               	goto	u4341
  2910  044C  2C4E               	goto	u4340
  2911  044D                     u4341:
  2912  044D  2C7F               	goto	l7568
  2913  044E                     u4340:
  2914  044E  2C4F               	goto	l10263
  2915                           	line	120
  2916                           	
  2917  044F                     l7570:	
  2918                           	line	121
  2919                           	
  2920  044F                     l10263:	
  2921  044F  3001               	movlw	01h
  2922  0450                     u4355:
  2923  0450  1003               	clrc
  2924  0451  0DCC               	rlf	(___ftadd@f1),f
  2925  0452  0DCD               	rlf	(___ftadd@f1+1),f
  2926  0453  0DCE               	rlf	(___ftadd@f1+2),f
  2927  0454  3EFF               	addlw	-1
  2928  0455  1D03               	skipz
  2929  0456  2C50               	goto	u4355
  2930                           	line	122
  2931  0457  3001               	movlw	low(01h)
  2932  0458  02D8               	subwf	(___ftadd@exp1),f
  2933                           	line	123
  2934                           	
  2935  0459                     l10265:	
  2936  0459  0857               	movf	(___ftadd@exp2),w
  2937  045A  0658               	xorwf	(___ftadd@exp1),w
  2938  045B  1903               	skipnz
  2939  045C  2C5E               	goto	u4361
  2940  045D  2C5F               	goto	u4360
  2941  045E                     u4361:
  2942  045E  2C77               	goto	l10271
  2943  045F                     u4360:
  2944                           	
  2945  045F                     l10267:	
  2946  045F  3001               	movlw	low(01h)
  2947  0460  02D6               	subwf	(___ftadd@sign),f
  2948  0461  0856               	movf	((___ftadd@sign)),w
  2949  0462  3907               	andlw	07h
  2950  0463  1D03               	btfss	status,2
  2951  0464  2C66               	goto	u4371
  2952  0465  2C67               	goto	u4370
  2953  0466                     u4371:
  2954  0466  2C4F               	goto	l10263
  2955  0467                     u4370:
  2956  0467  2C77               	goto	l10271
  2957                           	
  2958  0468                     l7572:	
  2959  0468  2C77               	goto	l10271
  2960                           	
  2961  0469                     l7573:	
  2962                           	line	124
  2963  0469  2C77               	goto	l10271
  2964                           	
  2965  046A                     l7575:	
  2966                           	line	125
  2967                           	
  2968  046A                     l10269:	
  2969  046A  3001               	movlw	01h
  2970  046B                     u4385:
  2971  046B  1003               	clrc
  2972  046C  0CD1               	rrf	(___ftadd@f2+2),f
  2973  046D  0CD0               	rrf	(___ftadd@f2+1),f
  2974  046E  0CCF               	rrf	(___ftadd@f2),f
  2975  046F  3EFF               	addlw	-1
  2976  0470  1D03               	skipz
  2977  0471  2C6B               	goto	u4385
  2978                           
  2979                           	line	126
  2980  0472  3001               	movlw	(01h)
  2981  0473  00D2               	movwf	(??___ftadd+0)+0
  2982  0474  0852               	movf	(??___ftadd+0)+0,w
  2983  0475  07D7               	addwf	(___ftadd@exp2),f
  2984  0476  2C77               	goto	l10271
  2985                           	line	127
  2986                           	
  2987  0477                     l7574:	
  2988                           	line	124
  2989                           	
  2990  0477                     l10271:	
  2991  0477  0858               	movf	(___ftadd@exp1),w
  2992  0478  0657               	xorwf	(___ftadd@exp2),w
  2993  0479  1D03               	skipz
  2994  047A  2C7C               	goto	u4391
  2995  047B  2C7D               	goto	u4390
  2996  047C                     u4391:
  2997  047C  2C6A               	goto	l10269
  2998  047D                     u4390:
  2999  047D  2C7F               	goto	l7568
  3000                           	
  3001  047E                     l7576:	
  3002  047E  2C7F               	goto	l7568
  3003                           	line	128
  3004                           	
  3005  047F                     l7569:	
  3006                           	line	129
  3007                           	
  3008  047F                     l7568:	
  3009  047F  1FD6               	btfss	(___ftadd@sign),(7)&7
  3010  0480  2C82               	goto	u4401
  3011  0481  2C83               	goto	u4400
  3012  0482                     u4401:
  3013  0482  2C94               	goto	l10275
  3014  0483                     u4400:
  3015                           	line	131
  3016                           	
  3017  0483                     l10273:	
  3018  0483  30FF               	movlw	0FFh
  3019  0484  06CC               	xorwf	(___ftadd@f1),f
  3020  0485  30FF               	movlw	0FFh
  3021  0486  06CD               	xorwf	(___ftadd@f1+1),f
  3022  0487  30FF               	movlw	0FFh
  3023  0488  06CE               	xorwf	(___ftadd@f1+2),f
  3024                           	line	132
  3025  0489  3001               	movlw	01h
  3026  048A  07CC               	addwf	(___ftadd@f1),f
  3027  048B  3000               	movlw	0
  3028  048C  1803               	skipnc
  3029  048D  3001               movlw 1
  3030  048E  07CD               	addwf	(___ftadd@f1+1),f
  3031  048F  3000               	movlw	0
  3032  0490  1803               	skipnc
  3033  0491  3001               movlw 1
  3034  0492  07CE               	addwf	(___ftadd@f1+2),f
  3035  0493  2C94               	goto	l10275
  3036                           	line	133
  3037                           	
  3038  0494                     l7577:	
  3039                           	line	134
  3040                           	
  3041  0494                     l10275:	
  3042  0494  1F56               	btfss	(___ftadd@sign),(6)&7
  3043  0495  2C97               	goto	u4411
  3044  0496  2C98               	goto	u4410
  3045  0497                     u4411:
  3046  0497  2CA9               	goto	l10279
  3047  0498                     u4410:
  3048                           	line	136
  3049                           	
  3050  0498                     l10277:	
  3051  0498  30FF               	movlw	0FFh
  3052  0499  06CF               	xorwf	(___ftadd@f2),f
  3053  049A  30FF               	movlw	0FFh
  3054  049B  06D0               	xorwf	(___ftadd@f2+1),f
  3055  049C  30FF               	movlw	0FFh
  3056  049D  06D1               	xorwf	(___ftadd@f2+2),f
  3057                           	line	137
  3058  049E  3001               	movlw	01h
  3059  049F  07CF               	addwf	(___ftadd@f2),f
  3060  04A0  3000               	movlw	0
  3061  04A1  1803               	skipnc
  3062  04A2  3001               movlw 1
  3063  04A3  07D0               	addwf	(___ftadd@f2+1),f
  3064  04A4  3000               	movlw	0
  3065  04A5  1803               	skipnc
  3066  04A6  3001               movlw 1
  3067  04A7  07D1               	addwf	(___ftadd@f2+2),f
  3068  04A8  2CA9               	goto	l10279
  3069                           	line	138
  3070                           	
  3071  04A9                     l7578:	
  3072                           	line	139
  3073                           	
  3074  04A9                     l10279:	
  3075  04A9  01D6               	clrf	(___ftadd@sign)
  3076                           	line	140
  3077  04AA  084C               	movf	(___ftadd@f1),w
  3078  04AB  07CF               	addwf	(___ftadd@f2),f
  3079  04AC  084D               	movf	(___ftadd@f1+1),w
  3080  04AD  1103               	clrz
  3081  04AE  1803               	skipnc
  3082  04AF  0A4D               	incf	(___ftadd@f1+1),w
  3083  04B0  1903               	skipnz
  3084  04B1  2CB3               	goto	u4421
  3085  04B2  07D0               	addwf	(___ftadd@f2+1),f
  3086  04B3                     u4421:
  3087  04B3  084E               	movf	(___ftadd@f1+2),w
  3088  04B4  1103               	clrz
  3089  04B5  1803               	skipnc
  3090  04B6  0A4E               	incf	(___ftadd@f1+2),w
  3091  04B7  1903               	skipnz
  3092  04B8  2CBA               	goto	u4422
  3093  04B9  07D1               	addwf	(___ftadd@f2+2),f
  3094  04BA                     u4422:
  3095                           
  3096                           	line	141
  3097                           	
  3098  04BA                     l10281:	
  3099  04BA  1FD1               	btfss	(___ftadd@f2+2),(23)&7
  3100  04BB  2CBD               	goto	u4431
  3101  04BC  2CBE               	goto	u4430
  3102  04BD                     u4431:
  3103  04BD  2CD2               	goto	l10287
  3104  04BE                     u4430:
  3105                           	line	142
  3106                           	
  3107  04BE                     l10283:	
  3108  04BE  30FF               	movlw	0FFh
  3109  04BF  06CF               	xorwf	(___ftadd@f2),f
  3110  04C0  30FF               	movlw	0FFh
  3111  04C1  06D0               	xorwf	(___ftadd@f2+1),f
  3112  04C2  30FF               	movlw	0FFh
  3113  04C3  06D1               	xorwf	(___ftadd@f2+2),f
  3114                           	line	143
  3115  04C4  3001               	movlw	01h
  3116  04C5  07CF               	addwf	(___ftadd@f2),f
  3117  04C6  3000               	movlw	0
  3118  04C7  1803               	skipnc
  3119  04C8  3001               movlw 1
  3120  04C9  07D0               	addwf	(___ftadd@f2+1),f
  3121  04CA  3000               	movlw	0
  3122  04CB  1803               	skipnc
  3123  04CC  3001               movlw 1
  3124  04CD  07D1               	addwf	(___ftadd@f2+2),f
  3125                           	line	144
  3126                           	
  3127  04CE                     l10285:	
  3128  04CE  01D6               	clrf	(___ftadd@sign)
  3129  04CF  1403               	bsf	status,0
  3130  04D0  0DD6               	rlf	(___ftadd@sign),f
  3131  04D1  2CD2               	goto	l10287
  3132                           	line	145
  3133                           	
  3134  04D2                     l7579:	
  3135                           	line	146
  3136                           	
  3137  04D2                     l10287:	
  3138  04D2  084F               	movf	(___ftadd@f2),w
  3139  04D3  00A0               	movwf	(?___ftpack)
  3140  04D4  0850               	movf	(___ftadd@f2+1),w
  3141  04D5  00A1               	movwf	(?___ftpack+1)
  3142  04D6  0851               	movf	(___ftadd@f2+2),w
  3143  04D7  00A2               	movwf	(?___ftpack+2)
  3144  04D8  0858               	movf	(___ftadd@exp1),w
  3145  04D9  00D2               	movwf	(??___ftadd+0)+0
  3146  04DA  0852               	movf	(??___ftadd+0)+0,w
  3147  04DB  00A3               	movwf	0+(?___ftpack)+03h
  3148  04DC  0856               	movf	(___ftadd@sign),w
  3149  04DD  00D3               	movwf	(??___ftadd+1)+0
  3150  04DE  0853               	movf	(??___ftadd+1)+0,w
  3151  04DF  00A4               	movwf	0+(?___ftpack)+04h
  3152  04E0  120A  158A  2783   	fcall	___ftpack
              120A  118A         
  3153  04E5  1283               	bcf	status, 5	;RP0=0, select bank0
  3154  04E6  1303               	bcf	status, 6	;RP1=0, select bank0
  3155  04E7  0820               	movf	(0+(?___ftpack)),w
  3156  04E8  00CC               	movwf	(?___ftadd)
  3157  04E9  0821               	movf	(1+(?___ftpack)),w
  3158  04EA  00CD               	movwf	(?___ftadd+1)
  3159  04EB  0822               	movf	(2+(?___ftpack)),w
  3160  04EC  00CE               	movwf	(?___ftadd+2)
  3161  04ED  2CEE               	goto	l7554
  3162                           	
  3163  04EE                     l10289:	
  3164                           	line	148
  3165                           	
  3166  04EE                     l7554:	
  3167  04EE  0008               	return
  3168                           	opt stack 0
  3169                           GLOBAL	__end_of___ftadd
  3170  04EF                     	__end_of___ftadd:
  3171 ;; =============== function ___ftadd ends ============
  3172                           
  3173                           	signat	___ftadd,8315
  3174                           	global	_Initialise
  3175                           psect	text700,local,class=CODE,delta=2
  3176                           global __ptext700
  3177  0E23                     __ptext700:
  3178                           
  3179 ;; *************** function _Initialise *****************
  3180 ;; Defined at:
  3181 ;;		line 192 in file "primarymain.c"
  3182 ;; Parameters:    Size  Location     Type
  3183 ;;		None
  3184 ;; Auto vars:     Size  Location     Type
  3185 ;;		None
  3186 ;; Return value:  Size  Location     Type
  3187 ;;		None               void
  3188 ;; Registers used:
  3189 ;;		wreg, status,2, status,0, pclath, cstack
  3190 ;; Tracked objects:
  3191 ;;		On entry : 0/0
  3192 ;;		On exit  : 0/0
  3193 ;;		Unchanged: 0/0
  3194 ;; Data sizes:     COMMON   BANK0  BANK1h  BANK1l   BANK3   BANK2
  3195 ;;      Params:         0       0       0       0       0       0
  3196 ;;      Locals:         0       0       0       0       0       0
  3197 ;;      Temps:          0       0       0       0       0       0
  3198 ;;      Totals:         0       0       0       0       0       0
  3199 ;;Total ram usage:        0 bytes
  3200 ;; Hardware stack levels used:    1
  3201 ;; Hardware stack levels required when called:    2
  3202 ;; This function calls:
  3203 ;;		_BeginPWM
  3204 ;;		_BeginEncoder
  3205 ;; This function is called by:
  3206 ;;		_main
  3207 ;; This function uses a non-reentrant model
  3208 ;;
  3209                           psect	text700
  3210                           	file	"primarymain.c"
  3211                           	line	192
  3212                           	global	__size_of_Initialise
  3213  0027                     	__size_of_Initialise	equ	__end_of_Initialise-_Initialise
  3214                           	
  3215  0E23                     _Initialise:	
  3216                           	opt	stack 5
  3217                           ; Regs used in _Initialise: [wreg+status,2+status,0+pclath+cstack]
  3218                           	line	193
  3219                           	
  3220  0E23                     l10191:	
  3221                           ;primarymain.c: 193: FLAG = 0;
  3222  0E23  1683               	bsf	status, 5	;RP0=1, select bank1
  3223  0E24  1303               	bcf	status, 6	;RP1=0, select bank1
  3224  0E25  01AA               	clrf	(170)^080h
  3225                           	line	194
  3226                           	
  3227  0E26                     l10193:	
  3228                           ;primarymain.c: 194: BeginPWM();
  3229  0E26  120A  158A  25C2   	fcall	_BeginPWM
              120A  158A         
  3230                           	line	195
  3231                           ;primarymain.c: 195: BeginEncoder();
  3232  0E2B  120A  158A  258A   	fcall	_BeginEncoder
              120A  158A         
  3233                           	line	198
  3234                           	
  3235  0E30                     l10195:	
  3236                           ;primarymain.c: 198: PEIE = 1;
  3237  0E30  170B               	bsf	(94/8),(94)&7
  3238                           	line	199
  3239                           	
  3240  0E31                     l10197:	
  3241                           ;primarymain.c: 199: RBIE = 1;
  3242  0E31  158B               	bsf	(91/8),(91)&7
  3243                           	line	200
  3244                           	
  3245  0E32                     l10199:	
  3246                           ;primarymain.c: 200: T0IE = 1;
  3247  0E32  168B               	bsf	(93/8),(93)&7
  3248                           	line	201
  3249                           	
  3250  0E33                     l10201:	
  3251                           ;primarymain.c: 201: PIE1 = 0b00001001;
  3252  0E33  3009               	movlw	(09h)
  3253  0E34  1683               	bsf	status, 5	;RP0=1, select bank1
  3254  0E35  1303               	bcf	status, 6	;RP1=0, select bank1
  3255  0E36  008C               	movwf	(140)^080h	;volatile
  3256                           	line	202
  3257                           	
  3258  0E37                     l10203:	
  3259                           ;primarymain.c: 202: PIE2 = 0;
  3260  0E37  018D               	clrf	(141)^080h	;volatile
  3261                           	line	204
  3262                           	
  3263  0E38                     l10205:	
  3264                           ;primarymain.c: 204: SSPIF = 0;
  3265  0E38  1283               	bcf	status, 5	;RP0=0, select bank0
  3266  0E39  1303               	bcf	status, 6	;RP1=0, select bank0
  3267  0E3A  118C               	bcf	(99/8),(99)&7
  3268                           	line	205
  3269                           	
  3270  0E3B                     l10207:	
  3271                           ;primarymain.c: 205: RBIF = 0;
  3272  0E3B  100B               	bcf	(88/8),(88)&7
  3273                           	line	206
  3274                           	
  3275  0E3C                     l10209:	
  3276                           ;primarymain.c: 206: T0IF = 0;
  3277  0E3C  110B               	bcf	(90/8),(90)&7
  3278                           	line	207
  3279                           	
  3280  0E3D                     l10211:	
  3281                           ;primarymain.c: 207: TMR1IF = 0;
  3282  0E3D  100C               	bcf	(96/8),(96)&7
  3283                           	line	209
  3284                           	
  3285  0E3E                     l10213:	
  3286                           ;primarymain.c: 209: GIE = 0;
  3287  0E3E  138B               	bcf	(95/8),(95)&7
  3288                           	line	211
  3289                           	
  3290  0E3F                     l10215:	
  3291                           ;primarymain.c: 211: TRISB = 0b11110111;
  3292  0E3F  30F7               	movlw	(0F7h)
  3293  0E40  1683               	bsf	status, 5	;RP0=1, select bank1
  3294  0E41  1303               	bcf	status, 6	;RP1=0, select bank1
  3295  0E42  0086               	movwf	(134)^080h	;volatile
  3296                           	line	212
  3297                           	
  3298  0E43                     l10217:	
  3299                           ;primarymain.c: 212: PORTBbits.RB3 = 0;
  3300  0E43  1283               	bcf	status, 5	;RP0=0, select bank0
  3301  0E44  1303               	bcf	status, 6	;RP1=0, select bank0
  3302  0E45  1186               	bcf	(6),3	;volatile
  3303                           	line	214
  3304                           	
  3305  0E46                     l10219:	
  3306                           ;primarymain.c: 214: TRISD = 0;
  3307  0E46  1683               	bsf	status, 5	;RP0=1, select bank1
  3308  0E47  1303               	bcf	status, 6	;RP1=0, select bank1
  3309  0E48  0188               	clrf	(136)^080h	;volatile
  3310                           	line	215
  3311                           	
  3312  0E49                     l1544:	
  3313  0E49  0008               	return
  3314                           	opt stack 0
  3315                           GLOBAL	__end_of_Initialise
  3316  0E4A                     	__end_of_Initialise:
  3317 ;; =============== function _Initialise ends ============
  3318                           
  3319                           	signat	_Initialise,88
  3320                           	global	___aldiv
  3321                           psect	text701,local,class=CODE,delta=2
  3322                           global __ptext701
  3323  014B                     __ptext701:
  3324                           
  3325 ;; *************** function ___aldiv *****************
  3326 ;; Defined at:
  3327 ;;		line 5 in file "C:\Program Files (x86)\HI-TECH Software\PICC\9.83\sources\aldiv.c"
  3328 ;; Parameters:    Size  Location     Type
  3329 ;;  divisor         4    0[BANK0 ] long 
  3330 ;;  dividend        4    4[BANK0 ] long 
  3331 ;; Auto vars:     Size  Location     Type
  3332 ;;  quotient        4   11[BANK0 ] long 
  3333 ;;  sign            1   10[BANK0 ] unsigned char 
  3334 ;;  counter         1    9[BANK0 ] unsigned char 
  3335 ;; Return value:  Size  Location     Type
  3336 ;;                  4    0[BANK0 ] long 
  3337 ;; Registers used:
  3338 ;;		wreg, status,2, status,0
  3339 ;; Tracked objects:
  3340 ;;		On entry : 0/0
  3341 ;;		On exit  : 0/0
  3342 ;;		Unchanged: 0/0
  3343 ;; Data sizes:     COMMON   BANK0  BANK1h  BANK1l   BANK3   BANK2
  3344 ;;      Params:         0       8       0       0       0       0
  3345 ;;      Locals:         0       6       0       0       0       0
  3346 ;;      Temps:          0       1       0       0       0       0
  3347 ;;      Totals:         0      15       0       0       0       0
  3348 ;;Total ram usage:       15 bytes
  3349 ;; Hardware stack levels used:    1
  3350 ;; Hardware stack levels required when called:    1
  3351 ;; This function calls:
  3352 ;;		Nothing
  3353 ;; This function is called by:
  3354 ;;		_main
  3355 ;; This function uses a non-reentrant model
  3356 ;;
  3357                           psect	text701
  3358                           	file	"C:\Program Files (x86)\HI-TECH Software\PICC\9.83\sources\aldiv.c"
  3359                           	line	5
  3360                           	global	__size_of___aldiv
  3361  00A8                     	__size_of___aldiv	equ	__end_of___aldiv-___aldiv
  3362                           	
  3363  014B                     ___aldiv:	
  3364                           	opt	stack 6
  3365                           ; Regs used in ___aldiv: [wreg+status,2+status,0]
  3366                           	line	9
  3367                           	
  3368  014B                     l10103:	
  3369  014B  1283               	bcf	status, 5	;RP0=0, select bank0
  3370  014C  1303               	bcf	status, 6	;RP1=0, select bank0
  3371  014D  01AA               	clrf	(___aldiv@sign)
  3372                           	line	10
  3373  014E  1FA3               	btfss	(___aldiv@divisor+3),7
  3374  014F  2951               	goto	u4041
  3375  0150  2952               	goto	u4040
  3376  0151                     u4041:
  3377  0151  2961               	goto	l10109
  3378  0152                     u4040:
  3379                           	line	11
  3380                           	
  3381  0152                     l10105:	
  3382  0152  09A0               	comf	(___aldiv@divisor),f
  3383  0153  09A1               	comf	(___aldiv@divisor+1),f
  3384  0154  09A2               	comf	(___aldiv@divisor+2),f
  3385  0155  09A3               	comf	(___aldiv@divisor+3),f
  3386  0156  0AA0               	incf	(___aldiv@divisor),f
  3387  0157  1903               	skipnz
  3388  0158  0AA1               	incf	(___aldiv@divisor+1),f
  3389  0159  1903               	skipnz
  3390  015A  0AA2               	incf	(___aldiv@divisor+2),f
  3391  015B  1903               	skipnz
  3392  015C  0AA3               	incf	(___aldiv@divisor+3),f
  3393                           	line	12
  3394                           	
  3395  015D                     l10107:	
  3396  015D  01AA               	clrf	(___aldiv@sign)
  3397  015E  1403               	bsf	status,0
  3398  015F  0DAA               	rlf	(___aldiv@sign),f
  3399  0160  2961               	goto	l10109
  3400                           	line	13
  3401                           	
  3402  0161                     l7702:	
  3403                           	line	14
  3404                           	
  3405  0161                     l10109:	
  3406  0161  1FA7               	btfss	(___aldiv@dividend+3),7
  3407  0162  2964               	goto	u4051
  3408  0163  2965               	goto	u4050
  3409  0164                     u4051:
  3410  0164  2975               	goto	l10115
  3411  0165                     u4050:
  3412                           	line	15
  3413                           	
  3414  0165                     l10111:	
  3415  0165  09A4               	comf	(___aldiv@dividend),f
  3416  0166  09A5               	comf	(___aldiv@dividend+1),f
  3417  0167  09A6               	comf	(___aldiv@dividend+2),f
  3418  0168  09A7               	comf	(___aldiv@dividend+3),f
  3419  0169  0AA4               	incf	(___aldiv@dividend),f
  3420  016A  1903               	skipnz
  3421  016B  0AA5               	incf	(___aldiv@dividend+1),f
  3422  016C  1903               	skipnz
  3423  016D  0AA6               	incf	(___aldiv@dividend+2),f
  3424  016E  1903               	skipnz
  3425  016F  0AA7               	incf	(___aldiv@dividend+3),f
  3426                           	line	16
  3427                           	
  3428  0170                     l10113:	
  3429  0170  3001               	movlw	(01h)
  3430  0171  00A8               	movwf	(??___aldiv+0)+0
  3431  0172  0828               	movf	(??___aldiv+0)+0,w
  3432  0173  06AA               	xorwf	(___aldiv@sign),f
  3433  0174  2975               	goto	l10115
  3434                           	line	17
  3435                           	
  3436  0175                     l7703:	
  3437                           	line	18
  3438                           	
  3439  0175                     l10115:	
  3440  0175  3000               	movlw	0
  3441  0176  00AE               	movwf	(___aldiv@quotient+3)
  3442  0177  3000               	movlw	0
  3443  0178  00AD               	movwf	(___aldiv@quotient+2)
  3444  0179  3000               	movlw	0
  3445  017A  00AC               	movwf	(___aldiv@quotient+1)
  3446  017B  3000               	movlw	0
  3447  017C  00AB               	movwf	(___aldiv@quotient)
  3448                           
  3449                           	line	19
  3450                           	
  3451  017D                     l10117:	
  3452  017D  0823               	movf	(___aldiv@divisor+3),w
  3453  017E  0422               	iorwf	(___aldiv@divisor+2),w
  3454  017F  0421               	iorwf	(___aldiv@divisor+1),w
  3455  0180  0420               	iorwf	(___aldiv@divisor),w
  3456  0181  1903               	skipnz
  3457  0182  2984               	goto	u4061
  3458  0183  2985               	goto	u4060
  3459  0184                     u4061:
  3460  0184  29D9               	goto	l10137
  3461  0185                     u4060:
  3462                           	line	20
  3463                           	
  3464  0185                     l10119:	
  3465  0185  01A9               	clrf	(___aldiv@counter)
  3466  0186  1403               	bsf	status,0
  3467  0187  0DA9               	rlf	(___aldiv@counter),f
  3468                           	line	21
  3469  0188  2997               	goto	l10123
  3470                           	
  3471  0189                     l7706:	
  3472                           	line	22
  3473                           	
  3474  0189                     l10121:	
  3475  0189  3001               	movlw	01h
  3476  018A  00A8               	movwf	(??___aldiv+0)+0
  3477  018B                     u4075:
  3478  018B  1003               	clrc
  3479  018C  0DA0               	rlf	(___aldiv@divisor),f
  3480  018D  0DA1               	rlf	(___aldiv@divisor+1),f
  3481  018E  0DA2               	rlf	(___aldiv@divisor+2),f
  3482  018F  0DA3               	rlf	(___aldiv@divisor+3),f
  3483  0190  0BA8               	decfsz	(??___aldiv+0)+0
  3484  0191  298B               	goto	u4075
  3485                           	line	23
  3486  0192  3001               	movlw	(01h)
  3487  0193  00A8               	movwf	(??___aldiv+0)+0
  3488  0194  0828               	movf	(??___aldiv+0)+0,w
  3489  0195  07A9               	addwf	(___aldiv@counter),f
  3490  0196  2997               	goto	l10123
  3491                           	line	24
  3492                           	
  3493  0197                     l7705:	
  3494                           	line	21
  3495                           	
  3496  0197                     l10123:	
  3497  0197  1FA3               	btfss	(___aldiv@divisor+3),(31)&7
  3498  0198  299A               	goto	u4081
  3499  0199  299B               	goto	u4080
  3500  019A                     u4081:
  3501  019A  2989               	goto	l10121
  3502  019B                     u4080:
  3503  019B  299D               	goto	l10125
  3504                           	
  3505  019C                     l7707:	
  3506  019C  299D               	goto	l10125
  3507                           	line	25
  3508                           	
  3509  019D                     l7708:	
  3510                           	line	26
  3511                           	
  3512  019D                     l10125:	
  3513  019D  3001               	movlw	01h
  3514  019E  00A8               	movwf	(??___aldiv+0)+0
  3515  019F                     u4095:
  3516  019F  1003               	clrc
  3517  01A0  0DAB               	rlf	(___aldiv@quotient),f
  3518  01A1  0DAC               	rlf	(___aldiv@quotient+1),f
  3519  01A2  0DAD               	rlf	(___aldiv@quotient+2),f
  3520  01A3  0DAE               	rlf	(___aldiv@quotient+3),f
  3521  01A4  0BA8               	decfsz	(??___aldiv+0)+0
  3522  01A5  299F               	goto	u4095
  3523                           	line	27
  3524                           	
  3525  01A6                     l10127:	
  3526  01A6  0823               	movf	(___aldiv@divisor+3),w
  3527  01A7  0227               	subwf	(___aldiv@dividend+3),w
  3528  01A8  1D03               	skipz
  3529  01A9  29B4               	goto	u4105
  3530  01AA  0822               	movf	(___aldiv@divisor+2),w
  3531  01AB  0226               	subwf	(___aldiv@dividend+2),w
  3532  01AC  1D03               	skipz
  3533  01AD  29B4               	goto	u4105
  3534  01AE  0821               	movf	(___aldiv@divisor+1),w
  3535  01AF  0225               	subwf	(___aldiv@dividend+1),w
  3536  01B0  1D03               	skipz
  3537  01B1  29B4               	goto	u4105
  3538  01B2  0820               	movf	(___aldiv@divisor),w
  3539  01B3  0224               	subwf	(___aldiv@dividend),w
  3540  01B4                     u4105:
  3541  01B4  1C03               	skipc
  3542  01B5  29B7               	goto	u4101
  3543  01B6  29B8               	goto	u4100
  3544  01B7                     u4101:
  3545  01B7  29C8               	goto	l10133
  3546  01B8                     u4100:
  3547                           	line	28
  3548                           	
  3549  01B8                     l10129:	
  3550  01B8  0820               	movf	(___aldiv@divisor),w
  3551  01B9  02A4               	subwf	(___aldiv@dividend),f
  3552  01BA  0821               	movf	(___aldiv@divisor+1),w
  3553  01BB  1C03               	skipc
  3554  01BC  0F21               	incfsz	(___aldiv@divisor+1),w
  3555  01BD  02A5               	subwf	(___aldiv@dividend+1),f
  3556  01BE  0822               	movf	(___aldiv@divisor+2),w
  3557  01BF  1C03               	skipc
  3558  01C0  0F22               	incfsz	(___aldiv@divisor+2),w
  3559  01C1  02A6               	subwf	(___aldiv@dividend+2),f
  3560  01C2  0823               	movf	(___aldiv@divisor+3),w
  3561  01C3  1C03               	skipc
  3562  01C4  0F23               	incfsz	(___aldiv@divisor+3),w
  3563  01C5  02A7               	subwf	(___aldiv@dividend+3),f
  3564                           	line	29
  3565                           	
  3566  01C6                     l10131:	
  3567  01C6  142B               	bsf	(___aldiv@quotient)+(0/8),(0)&7
  3568  01C7  29C8               	goto	l10133
  3569                           	line	30
  3570                           	
  3571  01C8                     l7709:	
  3572                           	line	31
  3573                           	
  3574  01C8                     l10133:	
  3575  01C8  3001               	movlw	01h
  3576  01C9                     u4115:
  3577  01C9  1003               	clrc
  3578  01CA  0CA3               	rrf	(___aldiv@divisor+3),f
  3579  01CB  0CA2               	rrf	(___aldiv@divisor+2),f
  3580  01CC  0CA1               	rrf	(___aldiv@divisor+1),f
  3581  01CD  0CA0               	rrf	(___aldiv@divisor),f
  3582  01CE  3EFF               	addlw	-1
  3583  01CF  1D03               	skipz
  3584  01D0  29C9               	goto	u4115
  3585                           
  3586                           	line	32
  3587                           	
  3588  01D1                     l10135:	
  3589  01D1  3001               	movlw	low(01h)
  3590  01D2  02A9               	subwf	(___aldiv@counter),f
  3591  01D3  1D03               	btfss	status,2
  3592  01D4  29D6               	goto	u4121
  3593  01D5  29D7               	goto	u4120
  3594  01D6                     u4121:
  3595  01D6  299D               	goto	l10125
  3596  01D7                     u4120:
  3597  01D7  29D9               	goto	l10137
  3598                           	
  3599  01D8                     l7710:	
  3600  01D8  29D9               	goto	l10137
  3601                           	line	33
  3602                           	
  3603  01D9                     l7704:	
  3604                           	line	34
  3605                           	
  3606  01D9                     l10137:	
  3607  01D9  082A               	movf	(___aldiv@sign),w
  3608  01DA  1D03               	skipz
  3609  01DB  29DD               	goto	u4130
  3610  01DC  29E9               	goto	l10141
  3611  01DD                     u4130:
  3612                           	line	35
  3613                           	
  3614  01DD                     l10139:	
  3615  01DD  09AB               	comf	(___aldiv@quotient),f
  3616  01DE  09AC               	comf	(___aldiv@quotient+1),f
  3617  01DF  09AD               	comf	(___aldiv@quotient+2),f
  3618  01E0  09AE               	comf	(___aldiv@quotient+3),f
  3619  01E1  0AAB               	incf	(___aldiv@quotient),f
  3620  01E2  1903               	skipnz
  3621  01E3  0AAC               	incf	(___aldiv@quotient+1),f
  3622  01E4  1903               	skipnz
  3623  01E5  0AAD               	incf	(___aldiv@quotient+2),f
  3624  01E6  1903               	skipnz
  3625  01E7  0AAE               	incf	(___aldiv@quotient+3),f
  3626  01E8  29E9               	goto	l10141
  3627                           	
  3628  01E9                     l7711:	
  3629                           	line	36
  3630                           	
  3631  01E9                     l10141:	
  3632  01E9  082E               	movf	(___aldiv@quotient+3),w
  3633  01EA  00A3               	movwf	(?___aldiv+3)
  3634  01EB  082D               	movf	(___aldiv@quotient+2),w
  3635  01EC  00A2               	movwf	(?___aldiv+2)
  3636  01ED  082C               	movf	(___aldiv@quotient+1),w
  3637  01EE  00A1               	movwf	(?___aldiv+1)
  3638  01EF  082B               	movf	(___aldiv@quotient),w
  3639  01F0  00A0               	movwf	(?___aldiv)
  3640                           
  3641  01F1  29F2               	goto	l7712
  3642                           	
  3643  01F2                     l10143:	
  3644                           	line	37
  3645                           	
  3646  01F2                     l7712:	
  3647  01F2  0008               	return
  3648                           	opt stack 0
  3649                           GLOBAL	__end_of___aldiv
  3650  01F3                     	__end_of___aldiv:
  3651 ;; =============== function ___aldiv ends ============
  3652                           
  3653                           	signat	___aldiv,8316
  3654                           	global	___awdiv
  3655                           psect	text702,local,class=CODE,delta=2
  3656                           global __ptext702
  3657  0F0D                     __ptext702:
  3658                           
  3659 ;; *************** function ___awdiv *****************
  3660 ;; Defined at:
  3661 ;;		line 5 in file "C:\Program Files (x86)\HI-TECH Software\PICC\9.83\sources\awdiv.c"
  3662 ;; Parameters:    Size  Location     Type
  3663 ;;  divisor         2    8[BANK0 ] int 
  3664 ;;  dividend        2   10[BANK0 ] int 
  3665 ;; Auto vars:     Size  Location     Type
  3666 ;;  quotient        2   15[BANK0 ] int 
  3667 ;;  sign            1   14[BANK0 ] unsigned char 
  3668 ;;  counter         1   13[BANK0 ] unsigned char 
  3669 ;; Return value:  Size  Location     Type
  3670 ;;                  2    8[BANK0 ] int 
  3671 ;; Registers used:
  3672 ;;		wreg, status,2, status,0
  3673 ;; Tracked objects:
  3674 ;;		On entry : 0/0
  3675 ;;		On exit  : 0/0
  3676 ;;		Unchanged: 0/0
  3677 ;; Data sizes:     COMMON   BANK0  BANK1h  BANK1l   BANK3   BANK2
  3678 ;;      Params:         0       4       0       0       0       0
  3679 ;;      Locals:         0       4       0       0       0       0
  3680 ;;      Temps:          0       1       0       0       0       0
  3681 ;;      Totals:         0       9       0       0       0       0
  3682 ;;Total ram usage:        9 bytes
  3683 ;; Hardware stack levels used:    1
  3684 ;; Hardware stack levels required when called:    1
  3685 ;; This function calls:
  3686 ;;		Nothing
  3687 ;; This function is called by:
  3688 ;;		_main
  3689 ;;		_CalcPulse
  3690 ;; This function uses a non-reentrant model
  3691 ;;
  3692                           psect	text702
  3693                           	file	"C:\Program Files (x86)\HI-TECH Software\PICC\9.83\sources\awdiv.c"
  3694                           	line	5
  3695                           	global	__size_of___awdiv
  3696  0076                     	__size_of___awdiv	equ	__end_of___awdiv-___awdiv
  3697                           	
  3698  0F0D                     ___awdiv:	
  3699                           	opt	stack 6
  3700                           ; Regs used in ___awdiv: [wreg+status,2+status,0]
  3701                           	line	9
  3702                           	
  3703  0F0D                     l10063:	
  3704  0F0D  1283               	bcf	status, 5	;RP0=0, select bank0
  3705  0F0E  1303               	bcf	status, 6	;RP1=0, select bank0
  3706  0F0F  01AE               	clrf	(___awdiv@sign)
  3707                           	line	10
  3708  0F10  1FA9               	btfss	(___awdiv@divisor+1),7
  3709  0F11  2F13               	goto	u3941
  3710  0F12  2F14               	goto	u3940
  3711  0F13                     u3941:
  3712  0F13  2F1D               	goto	l10067
  3713  0F14                     u3940:
  3714                           	line	11
  3715                           	
  3716  0F14                     l10065:	
  3717  0F14  09A8               	comf	(___awdiv@divisor),f
  3718  0F15  09A9               	comf	(___awdiv@divisor+1),f
  3719  0F16  0AA8               	incf	(___awdiv@divisor),f
  3720  0F17  1903               	skipnz
  3721  0F18  0AA9               	incf	(___awdiv@divisor+1),f
  3722                           	line	12
  3723  0F19  01AE               	clrf	(___awdiv@sign)
  3724  0F1A  1403               	bsf	status,0
  3725  0F1B  0DAE               	rlf	(___awdiv@sign),f
  3726  0F1C  2F1D               	goto	l10067
  3727                           	line	13
  3728                           	
  3729  0F1D                     l7647:	
  3730                           	line	14
  3731                           	
  3732  0F1D                     l10067:	
  3733  0F1D  1FAB               	btfss	(___awdiv@dividend+1),7
  3734  0F1E  2F20               	goto	u3951
  3735  0F1F  2F21               	goto	u3950
  3736  0F20                     u3951:
  3737  0F20  2F2B               	goto	l10073
  3738  0F21                     u3950:
  3739                           	line	15
  3740                           	
  3741  0F21                     l10069:	
  3742  0F21  09AA               	comf	(___awdiv@dividend),f
  3743  0F22  09AB               	comf	(___awdiv@dividend+1),f
  3744  0F23  0AAA               	incf	(___awdiv@dividend),f
  3745  0F24  1903               	skipnz
  3746  0F25  0AAB               	incf	(___awdiv@dividend+1),f
  3747                           	line	16
  3748                           	
  3749  0F26                     l10071:	
  3750  0F26  3001               	movlw	(01h)
  3751  0F27  00AC               	movwf	(??___awdiv+0)+0
  3752  0F28  082C               	movf	(??___awdiv+0)+0,w
  3753  0F29  06AE               	xorwf	(___awdiv@sign),f
  3754  0F2A  2F2B               	goto	l10073
  3755                           	line	17
  3756                           	
  3757  0F2B                     l7648:	
  3758                           	line	18
  3759                           	
  3760  0F2B                     l10073:	
  3761  0F2B  01AF               	clrf	(___awdiv@quotient)
  3762  0F2C  01B0               	clrf	(___awdiv@quotient+1)
  3763                           	line	19
  3764                           	
  3765  0F2D                     l10075:	
  3766  0F2D  0829               	movf	(___awdiv@divisor+1),w
  3767  0F2E  0428               	iorwf	(___awdiv@divisor),w
  3768  0F2F  1903               	skipnz
  3769  0F30  2F32               	goto	u3961
  3770  0F31  2F33               	goto	u3960
  3771  0F32                     u3961:
  3772  0F32  2F71               	goto	l10095
  3773  0F33                     u3960:
  3774                           	line	20
  3775                           	
  3776  0F33                     l10077:	
  3777  0F33  01AD               	clrf	(___awdiv@counter)
  3778  0F34  1403               	bsf	status,0
  3779  0F35  0DAD               	rlf	(___awdiv@counter),f
  3780                           	line	21
  3781  0F36  2F43               	goto	l10083
  3782                           	
  3783  0F37                     l7651:	
  3784                           	line	22
  3785                           	
  3786  0F37                     l10079:	
  3787  0F37  3001               	movlw	01h
  3788                           	
  3789  0F38                     u3975:
  3790  0F38  1003               	clrc
  3791  0F39  0DA8               	rlf	(___awdiv@divisor),f
  3792  0F3A  0DA9               	rlf	(___awdiv@divisor+1),f
  3793  0F3B  3EFF               	addlw	-1
  3794  0F3C  1D03               	skipz
  3795  0F3D  2F38               	goto	u3975
  3796                           	line	23
  3797                           	
  3798  0F3E                     l10081:	
  3799  0F3E  3001               	movlw	(01h)
  3800  0F3F  00AC               	movwf	(??___awdiv+0)+0
  3801  0F40  082C               	movf	(??___awdiv+0)+0,w
  3802  0F41  07AD               	addwf	(___awdiv@counter),f
  3803  0F42  2F43               	goto	l10083
  3804                           	line	24
  3805                           	
  3806  0F43                     l7650:	
  3807                           	line	21
  3808                           	
  3809  0F43                     l10083:	
  3810  0F43  1FA9               	btfss	(___awdiv@divisor+1),(15)&7
  3811  0F44  2F46               	goto	u3981
  3812  0F45  2F47               	goto	u3980
  3813  0F46                     u3981:
  3814  0F46  2F37               	goto	l10079
  3815  0F47                     u3980:
  3816  0F47  2F49               	goto	l10085
  3817                           	
  3818  0F48                     l7652:	
  3819  0F48  2F49               	goto	l10085
  3820                           	line	25
  3821                           	
  3822  0F49                     l7653:	
  3823                           	line	26
  3824                           	
  3825  0F49                     l10085:	
  3826  0F49  3001               	movlw	01h
  3827                           	
  3828  0F4A                     u3995:
  3829  0F4A  1003               	clrc
  3830  0F4B  0DAF               	rlf	(___awdiv@quotient),f
  3831  0F4C  0DB0               	rlf	(___awdiv@quotient+1),f
  3832  0F4D  3EFF               	addlw	-1
  3833  0F4E  1D03               	skipz
  3834  0F4F  2F4A               	goto	u3995
  3835                           	line	27
  3836  0F50  0829               	movf	(___awdiv@divisor+1),w
  3837  0F51  022B               	subwf	(___awdiv@dividend+1),w
  3838  0F52  1D03               	skipz
  3839  0F53  2F56               	goto	u4005
  3840  0F54  0828               	movf	(___awdiv@divisor),w
  3841  0F55  022A               	subwf	(___awdiv@dividend),w
  3842  0F56                     u4005:
  3843  0F56  1C03               	skipc
  3844  0F57  2F59               	goto	u4001
  3845  0F58  2F5A               	goto	u4000
  3846  0F59                     u4001:
  3847  0F59  2F62               	goto	l10091
  3848  0F5A                     u4000:
  3849                           	line	28
  3850                           	
  3851  0F5A                     l10087:	
  3852  0F5A  0828               	movf	(___awdiv@divisor),w
  3853  0F5B  02AA               	subwf	(___awdiv@dividend),f
  3854  0F5C  0829               	movf	(___awdiv@divisor+1),w
  3855  0F5D  1C03               	skipc
  3856  0F5E  03AB               	decf	(___awdiv@dividend+1),f
  3857  0F5F  02AB               	subwf	(___awdiv@dividend+1),f
  3858                           	line	29
  3859                           	
  3860  0F60                     l10089:	
  3861  0F60  142F               	bsf	(___awdiv@quotient)+(0/8),(0)&7
  3862  0F61  2F62               	goto	l10091
  3863                           	line	30
  3864                           	
  3865  0F62                     l7654:	
  3866                           	line	31
  3867                           	
  3868  0F62                     l10091:	
  3869  0F62  3001               	movlw	01h
  3870                           	
  3871  0F63                     u4015:
  3872  0F63  1003               	clrc
  3873  0F64  0CA9               	rrf	(___awdiv@divisor+1),f
  3874  0F65  0CA8               	rrf	(___awdiv@divisor),f
  3875  0F66  3EFF               	addlw	-1
  3876  0F67  1D03               	skipz
  3877  0F68  2F63               	goto	u4015
  3878                           	line	32
  3879                           	
  3880  0F69                     l10093:	
  3881  0F69  3001               	movlw	low(01h)
  3882  0F6A  02AD               	subwf	(___awdiv@counter),f
  3883  0F6B  1D03               	btfss	status,2
  3884  0F6C  2F6E               	goto	u4021
  3885  0F6D  2F6F               	goto	u4020
  3886  0F6E                     u4021:
  3887  0F6E  2F49               	goto	l10085
  3888  0F6F                     u4020:
  3889  0F6F  2F71               	goto	l10095
  3890                           	
  3891  0F70                     l7655:	
  3892  0F70  2F71               	goto	l10095
  3893                           	line	33
  3894                           	
  3895  0F71                     l7649:	
  3896                           	line	34
  3897                           	
  3898  0F71                     l10095:	
  3899  0F71  082E               	movf	(___awdiv@sign),w
  3900  0F72  1D03               	skipz
  3901  0F73  2F75               	goto	u4030
  3902  0F74  2F7B               	goto	l10099
  3903  0F75                     u4030:
  3904                           	line	35
  3905                           	
  3906  0F75                     l10097:	
  3907  0F75  09AF               	comf	(___awdiv@quotient),f
  3908  0F76  09B0               	comf	(___awdiv@quotient+1),f
  3909  0F77  0AAF               	incf	(___awdiv@quotient),f
  3910  0F78  1903               	skipnz
  3911  0F79  0AB0               	incf	(___awdiv@quotient+1),f
  3912  0F7A  2F7B               	goto	l10099
  3913                           	
  3914  0F7B                     l7656:	
  3915                           	line	36
  3916                           	
  3917  0F7B                     l10099:	
  3918  0F7B  0830               	movf	(___awdiv@quotient+1),w
  3919  0F7C  01A9               	clrf	(?___awdiv+1)
  3920  0F7D  07A9               	addwf	(?___awdiv+1)
  3921  0F7E  082F               	movf	(___awdiv@quotient),w
  3922  0F7F  01A8               	clrf	(?___awdiv)
  3923  0F80  07A8               	addwf	(?___awdiv)
  3924                           
  3925  0F81  2F82               	goto	l7657
  3926                           	
  3927  0F82                     l10101:	
  3928                           	line	37
  3929                           	
  3930  0F82                     l7657:	
  3931  0F82  0008               	return
  3932                           	opt stack 0
  3933                           GLOBAL	__end_of___awdiv
  3934  0F83                     	__end_of___awdiv:
  3935 ;; =============== function ___awdiv ends ============
  3936                           
  3937                           	signat	___awdiv,8314
  3938                           	global	___fttol
  3939                           psect	text703,local,class=CODE,delta=2
  3940                           global __ptext703
  3941  00A5                     __ptext703:
  3942                           
  3943 ;; *************** function ___fttol *****************
  3944 ;; Defined at:
  3945 ;;		line 45 in file "C:\Program Files (x86)\HI-TECH Software\PICC\9.83\sources\fttol.c"
  3946 ;; Parameters:    Size  Location     Type
  3947 ;;  f1              3    8[BANK0 ] float 
  3948 ;; Auto vars:     Size  Location     Type
  3949 ;;  lval            4   17[BANK0 ] unsigned long 
  3950 ;;  exp1            1   21[BANK0 ] unsigned char 
  3951 ;;  sign1           1   16[BANK0 ] unsigned char 
  3952 ;; Return value:  Size  Location     Type
  3953 ;;                  4    8[BANK0 ] long 
  3954 ;; Registers used:
  3955 ;;		wreg, status,2, status,0
  3956 ;; Tracked objects:
  3957 ;;		On entry : 0/0
  3958 ;;		On exit  : 0/0
  3959 ;;		Unchanged: 0/0
  3960 ;; Data sizes:     COMMON   BANK0  BANK1h  BANK1l   BANK3   BANK2
  3961 ;;      Params:         0       4       0       0       0       0
  3962 ;;      Locals:         0       6       0       0       0       0
  3963 ;;      Temps:          0       4       0       0       0       0
  3964 ;;      Totals:         0      14       0       0       0       0
  3965 ;;Total ram usage:       14 bytes
  3966 ;; Hardware stack levels used:    1
  3967 ;; Hardware stack levels required when called:    1
  3968 ;; This function calls:
  3969 ;;		Nothing
  3970 ;; This function is called by:
  3971 ;;		_main
  3972 ;; This function uses a non-reentrant model
  3973 ;;
  3974                           psect	text703
  3975                           	file	"C:\Program Files (x86)\HI-TECH Software\PICC\9.83\sources\fttol.c"
  3976                           	line	45
  3977                           	global	__size_of___fttol
  3978  00A6                     	__size_of___fttol	equ	__end_of___fttol-___fttol
  3979                           	
  3980  00A5                     ___fttol:	
  3981                           	opt	stack 6
  3982                           ; Regs used in ___fttol: [wreg+status,2+status,0]
  3983                           	line	49
  3984                           	
  3985  00A5                     l10007:	
  3986  00A5  1283               	bcf	status, 5	;RP0=0, select bank0
  3987  00A6  1303               	bcf	status, 6	;RP1=0, select bank0
  3988  00A7  0828               	movf	(___fttol@f1),w
  3989  00A8  00AC               	movwf	((??___fttol+0)+0)
  3990  00A9  0829               	movf	(___fttol@f1+1),w
  3991  00AA  00AD               	movwf	((??___fttol+0)+0+1)
  3992  00AB  082A               	movf	(___fttol@f1+2),w
  3993  00AC  00AE               	movwf	((??___fttol+0)+0+2)
  3994  00AD  1003               	clrc
  3995  00AE  0D2D               	rlf	(??___fttol+0)+1,w
  3996  00AF  0D2E               	rlf	(??___fttol+0)+2,w
  3997  00B0  00AF               	movwf	(??___fttol+3)+0
  3998  00B1  082F               	movf	(??___fttol+3)+0,w
  3999  00B2  00B5               	movwf	(___fttol@exp1)
  4000  00B3  08B5               	movf	((___fttol@exp1)),f
  4001  00B4  1D03               	skipz
  4002  00B5  28B7               	goto	u3831
  4003  00B6  28B8               	goto	u3830
  4004  00B7                     u3831:
  4005  00B7  28C2               	goto	l10013
  4006  00B8                     u3830:
  4007                           	line	50
  4008                           	
  4009  00B8                     l10009:	
  4010  00B8  3000               	movlw	0
  4011  00B9  00AB               	movwf	(?___fttol+3)
  4012  00BA  3000               	movlw	0
  4013  00BB  00AA               	movwf	(?___fttol+2)
  4014  00BC  3000               	movlw	0
  4015  00BD  00A9               	movwf	(?___fttol+1)
  4016  00BE  3000               	movlw	0
  4017  00BF  00A8               	movwf	(?___fttol)
  4018                           
  4019  00C0  294A               	goto	l7617
  4020                           	
  4021  00C1                     l10011:	
  4022  00C1  294A               	goto	l7617
  4023                           	
  4024  00C2                     l7616:	
  4025                           	line	51
  4026                           	
  4027  00C2                     l10013:	
  4028  00C2  0828               	movf	(___fttol@f1),w
  4029  00C3  00AC               	movwf	((??___fttol+0)+0)
  4030  00C4  0829               	movf	(___fttol@f1+1),w
  4031  00C5  00AD               	movwf	((??___fttol+0)+0+1)
  4032  00C6  082A               	movf	(___fttol@f1+2),w
  4033  00C7  00AE               	movwf	((??___fttol+0)+0+2)
  4034  00C8  3017               	movlw	017h
  4035  00C9                     u3845:
  4036  00C9  1003               	clrc
  4037  00CA  0CAE               	rrf	(??___fttol+0)+2,f
  4038  00CB  0CAD               	rrf	(??___fttol+0)+1,f
  4039  00CC  0CAC               	rrf	(??___fttol+0)+0,f
  4040  00CD                     u3840:
  4041  00CD  3EFF               	addlw	-1
  4042  00CE  1D03               	skipz
  4043  00CF  28C9               	goto	u3845
  4044  00D0  082C               	movf	0+(??___fttol+0)+0,w
  4045  00D1  00AF               	movwf	(??___fttol+3)+0
  4046  00D2  082F               	movf	(??___fttol+3)+0,w
  4047  00D3  00B0               	movwf	(___fttol@sign1)
  4048                           	line	52
  4049                           	
  4050  00D4                     l10015:	
  4051  00D4  17A9               	bsf	(___fttol@f1)+(15/8),(15)&7
  4052                           	line	53
  4053                           	
  4054  00D5                     l10017:	
  4055  00D5  30FF               	movlw	0FFh
  4056  00D6  05A8               	andwf	(___fttol@f1),f
  4057  00D7  30FF               	movlw	0FFh
  4058  00D8  05A9               	andwf	(___fttol@f1+1),f
  4059  00D9  3000               	movlw	0
  4060  00DA  05AA               	andwf	(___fttol@f1+2),f
  4061                           	line	54
  4062                           	
  4063  00DB                     l10019:	
  4064  00DB  0828               	movf	(___fttol@f1),w
  4065  00DC  00B1               	movwf	(___fttol@lval)
  4066  00DD  0829               	movf	(___fttol@f1+1),w
  4067  00DE  00B2               	movwf	((___fttol@lval))+1
  4068  00DF  082A               	movf	(___fttol@f1+2),w
  4069  00E0  00B3               	movwf	((___fttol@lval))+2
  4070  00E1  01B4               	clrf	((___fttol@lval))+3
  4071                           	line	55
  4072                           	
  4073  00E2                     l10021:	
  4074  00E2  308E               	movlw	low(08Eh)
  4075  00E3  02B5               	subwf	(___fttol@exp1),f
  4076                           	line	56
  4077                           	
  4078  00E4                     l10023:	
  4079  00E4  1FB5               	btfss	(___fttol@exp1),7
  4080  00E5  28E7               	goto	u3851
  4081  00E6  28E8               	goto	u3850
  4082  00E7                     u3851:
  4083  00E7  290D               	goto	l10033
  4084  00E8                     u3850:
  4085                           	line	57
  4086                           	
  4087  00E8                     l10025:	
  4088  00E8  0835               	movf	(___fttol@exp1),w
  4089  00E9  3A80               	xorlw	80h
  4090  00EA  3E8F               	addlw	-((-15)^80h)
  4091  00EB  1803               	skipnc
  4092  00EC  28EE               	goto	u3861
  4093  00ED  28EF               	goto	u3860
  4094  00EE                     u3861:
  4095  00EE  28FA               	goto	l10031
  4096  00EF                     u3860:
  4097                           	line	58
  4098                           	
  4099  00EF                     l10027:	
  4100  00EF  3000               	movlw	0
  4101  00F0  00AB               	movwf	(?___fttol+3)
  4102  00F1  3000               	movlw	0
  4103  00F2  00AA               	movwf	(?___fttol+2)
  4104  00F3  3000               	movlw	0
  4105  00F4  00A9               	movwf	(?___fttol+1)
  4106  00F5  3000               	movlw	0
  4107  00F6  00A8               	movwf	(?___fttol)
  4108                           
  4109  00F7  294A               	goto	l7617
  4110                           	
  4111  00F8                     l10029:	
  4112  00F8  294A               	goto	l7617
  4113                           	
  4114  00F9                     l7619:	
  4115  00F9  28FA               	goto	l10031
  4116                           	line	59
  4117                           	
  4118  00FA                     l7620:	
  4119                           	line	60
  4120                           	
  4121  00FA                     l10031:	
  4122  00FA  3001               	movlw	01h
  4123  00FB                     u3875:
  4124  00FB  1003               	clrc
  4125  00FC  0CB4               	rrf	(___fttol@lval+3),f
  4126  00FD  0CB3               	rrf	(___fttol@lval+2),f
  4127  00FE  0CB2               	rrf	(___fttol@lval+1),f
  4128  00FF  0CB1               	rrf	(___fttol@lval),f
  4129  0100  3EFF               	addlw	-1
  4130  0101  1D03               	skipz
  4131  0102  28FB               	goto	u3875
  4132                           
  4133                           	line	61
  4134  0103  3001               	movlw	(01h)
  4135  0104  00AC               	movwf	(??___fttol+0)+0
  4136  0105  082C               	movf	(??___fttol+0)+0,w
  4137  0106  07B5               	addwf	(___fttol@exp1),f
  4138  0107  1D03               	btfss	status,2
  4139  0108  290A               	goto	u3881
  4140  0109  290B               	goto	u3880
  4141  010A                     u3881:
  4142  010A  28FA               	goto	l10031
  4143  010B                     u3880:
  4144  010B  2931               	goto	l10043
  4145                           	
  4146  010C                     l7621:	
  4147                           	line	62
  4148  010C  2931               	goto	l10043
  4149                           	
  4150  010D                     l7618:	
  4151                           	line	63
  4152                           	
  4153  010D                     l10033:	
  4154  010D  3018               	movlw	(018h)
  4155  010E  0235               	subwf	(___fttol@exp1),w
  4156  010F  1C03               	skipc
  4157  0110  2912               	goto	u3891
  4158  0111  2913               	goto	u3890
  4159  0112                     u3891:
  4160  0112  292A               	goto	l10041
  4161  0113                     u3890:
  4162                           	line	64
  4163                           	
  4164  0113                     l10035:	
  4165  0113  3000               	movlw	0
  4166  0114  00AB               	movwf	(?___fttol+3)
  4167  0115  3000               	movlw	0
  4168  0116  00AA               	movwf	(?___fttol+2)
  4169  0117  3000               	movlw	0
  4170  0118  00A9               	movwf	(?___fttol+1)
  4171  0119  3000               	movlw	0
  4172  011A  00A8               	movwf	(?___fttol)
  4173                           
  4174  011B  294A               	goto	l7617
  4175                           	
  4176  011C                     l10037:	
  4177  011C  294A               	goto	l7617
  4178                           	
  4179  011D                     l7623:	
  4180                           	line	65
  4181  011D  292A               	goto	l10041
  4182                           	
  4183  011E                     l7625:	
  4184                           	line	66
  4185                           	
  4186  011E                     l10039:	
  4187  011E  3001               	movlw	01h
  4188  011F  00AC               	movwf	(??___fttol+0)+0
  4189  0120                     u3905:
  4190  0120  1003               	clrc
  4191  0121  0DB1               	rlf	(___fttol@lval),f
  4192  0122  0DB2               	rlf	(___fttol@lval+1),f
  4193  0123  0DB3               	rlf	(___fttol@lval+2),f
  4194  0124  0DB4               	rlf	(___fttol@lval+3),f
  4195  0125  0BAC               	decfsz	(??___fttol+0)+0
  4196  0126  2920               	goto	u3905
  4197                           	line	67
  4198  0127  3001               	movlw	low(01h)
  4199  0128  02B5               	subwf	(___fttol@exp1),f
  4200  0129  292A               	goto	l10041
  4201                           	line	68
  4202                           	
  4203  012A                     l7624:	
  4204                           	line	65
  4205                           	
  4206  012A                     l10041:	
  4207  012A  08B5               	movf	(___fttol@exp1),f
  4208  012B  1D03               	skipz
  4209  012C  292E               	goto	u3911
  4210  012D  292F               	goto	u3910
  4211  012E                     u3911:
  4212  012E  291E               	goto	l10039
  4213  012F                     u3910:
  4214  012F  2931               	goto	l10043
  4215                           	
  4216  0130                     l7626:	
  4217  0130  2931               	goto	l10043
  4218                           	line	69
  4219                           	
  4220  0131                     l7622:	
  4221                           	line	70
  4222                           	
  4223  0131                     l10043:	
  4224  0131  0830               	movf	(___fttol@sign1),w
  4225  0132  1D03               	skipz
  4226  0133  2935               	goto	u3920
  4227  0134  2941               	goto	l10047
  4228  0135                     u3920:
  4229                           	line	71
  4230                           	
  4231  0135                     l10045:	
  4232  0135  09B1               	comf	(___fttol@lval),f
  4233  0136  09B2               	comf	(___fttol@lval+1),f
  4234  0137  09B3               	comf	(___fttol@lval+2),f
  4235  0138  09B4               	comf	(___fttol@lval+3),f
  4236  0139  0AB1               	incf	(___fttol@lval),f
  4237  013A  1903               	skipnz
  4238  013B  0AB2               	incf	(___fttol@lval+1),f
  4239  013C  1903               	skipnz
  4240  013D  0AB3               	incf	(___fttol@lval+2),f
  4241  013E  1903               	skipnz
  4242  013F  0AB4               	incf	(___fttol@lval+3),f
  4243  0140  2941               	goto	l10047
  4244                           	
  4245  0141                     l7627:	
  4246                           	line	72
  4247                           	
  4248  0141                     l10047:	
  4249  0141  0834               	movf	(___fttol@lval+3),w
  4250  0142  00AB               	movwf	(?___fttol+3)
  4251  0143  0833               	movf	(___fttol@lval+2),w
  4252  0144  00AA               	movwf	(?___fttol+2)
  4253  0145  0832               	movf	(___fttol@lval+1),w
  4254  0146  00A9               	movwf	(?___fttol+1)
  4255  0147  0831               	movf	(___fttol@lval),w
  4256  0148  00A8               	movwf	(?___fttol)
  4257                           
  4258  0149  294A               	goto	l7617
  4259                           	
  4260  014A                     l10049:	
  4261                           	line	73
  4262                           	
  4263  014A                     l7617:	
  4264  014A  0008               	return
  4265                           	opt stack 0
  4266                           GLOBAL	__end_of___fttol
  4267  014B                     	__end_of___fttol:
  4268 ;; =============== function ___fttol ends ============
  4269                           
  4270                           	signat	___fttol,4220
  4271                           	global	___ftpack
  4272                           psect	text704,local,class=CODE,delta=2
  4273                           global __ptext704
  4274  0F83                     __ptext704:
  4275                           
  4276 ;; *************** function ___ftpack *****************
  4277 ;; Defined at:
  4278 ;;		line 63 in file "C:\Program Files (x86)\HI-TECH Software\PICC\9.83\sources\float.c"
  4279 ;; Parameters:    Size  Location     Type
  4280 ;;  arg             3    0[BANK0 ] unsigned um
  4281 ;;  exp             1    3[BANK0 ] unsigned char 
  4282 ;;  sign            1    4[BANK0 ] unsigned char 
  4283 ;; Auto vars:     Size  Location     Type
  4284 ;;		None
  4285 ;; Return value:  Size  Location     Type
  4286 ;;                  3    0[BANK0 ] float 
  4287 ;; Registers used:
  4288 ;;		wreg, status,2, status,0
  4289 ;; Tracked objects:
  4290 ;;		On entry : 0/0
  4291 ;;		On exit  : 0/0
  4292 ;;		Unchanged: 0/0
  4293 ;; Data sizes:     COMMON   BANK0  BANK1h  BANK1l   BANK3   BANK2
  4294 ;;      Params:         0       5       0       0       0       0
  4295 ;;      Locals:         0       0       0       0       0       0
  4296 ;;      Temps:          0       3       0       0       0       0
  4297 ;;      Totals:         0       8       0       0       0       0
  4298 ;;Total ram usage:        8 bytes
  4299 ;; Hardware stack levels used:    1
  4300 ;; Hardware stack levels required when called:    1
  4301 ;; This function calls:
  4302 ;;		Nothing
  4303 ;; This function is called by:
  4304 ;;		___ftadd
  4305 ;;		___ftdiv
  4306 ;;		___ftmul
  4307 ;;		___awtoft
  4308 ;;		___lbtoft
  4309 ;;		___abtoft
  4310 ;;		___lwtoft
  4311 ;;		___altoft
  4312 ;;		___lltoft
  4313 ;;		___attoft
  4314 ;;		___lttoft
  4315 ;; This function uses a non-reentrant model
  4316 ;;
  4317                           psect	text704
  4318                           	file	"C:\Program Files (x86)\HI-TECH Software\PICC\9.83\sources\float.c"
  4319                           	line	63
  4320                           	global	__size_of___ftpack
  4321  007D                     	__size_of___ftpack	equ	__end_of___ftpack-___ftpack
  4322                           	
  4323  0F83                     ___ftpack:	
  4324                           	opt	stack 5
  4325                           ; Regs used in ___ftpack: [wreg+status,2+status,0]
  4326                           	line	64
  4327                           	
  4328  0F83                     l9971:	
  4329  0F83  1283               	bcf	status, 5	;RP0=0, select bank0
  4330  0F84  1303               	bcf	status, 6	;RP1=0, select bank0
  4331  0F85  0823               	movf	(___ftpack@exp),w
  4332  0F86  1D03               	skipz
  4333  0F87  2F89               	goto	u3720
  4334  0F88  2F91               	goto	l9975
  4335  0F89                     u3720:
  4336                           	
  4337  0F89                     l9973:	
  4338  0F89  0822               	movf	(___ftpack@arg+2),w
  4339  0F8A  0421               	iorwf	(___ftpack@arg+1),w
  4340  0F8B  0420               	iorwf	(___ftpack@arg),w
  4341  0F8C  1D03               	skipz
  4342  0F8D  2F8F               	goto	u3731
  4343  0F8E  2F90               	goto	u3730
  4344  0F8F                     u3731:
  4345  0F8F  2FA7               	goto	l9981
  4346  0F90                     u3730:
  4347  0F90  2F91               	goto	l9975
  4348                           	
  4349  0F91                     l7841:	
  4350                           	line	65
  4351                           	
  4352  0F91                     l9975:	
  4353  0F91  3000               	movlw	0x0
  4354  0F92  00A0               	movwf	(?___ftpack)
  4355  0F93  3000               	movlw	0x0
  4356  0F94  00A1               	movwf	(?___ftpack+1)
  4357  0F95  3000               	movlw	0x0
  4358  0F96  00A2               	movwf	(?___ftpack+2)
  4359  0F97  2FFF               	goto	l7842
  4360                           	
  4361  0F98                     l9977:	
  4362  0F98  2FFF               	goto	l7842
  4363                           	
  4364  0F99                     l7839:	
  4365                           	line	66
  4366  0F99  2FA7               	goto	l9981
  4367                           	
  4368  0F9A                     l7844:	
  4369                           	line	67
  4370                           	
  4371  0F9A                     l9979:	
  4372  0F9A  3001               	movlw	(01h)
  4373  0F9B  00A5               	movwf	(??___ftpack+0)+0
  4374  0F9C  0825               	movf	(??___ftpack+0)+0,w
  4375  0F9D  07A3               	addwf	(___ftpack@exp),f
  4376                           	line	68
  4377  0F9E  3001               	movlw	01h
  4378  0F9F                     u3745:
  4379  0F9F  1003               	clrc
  4380  0FA0  0CA2               	rrf	(___ftpack@arg+2),f
  4381  0FA1  0CA1               	rrf	(___ftpack@arg+1),f
  4382  0FA2  0CA0               	rrf	(___ftpack@arg),f
  4383  0FA3  3EFF               	addlw	-1
  4384  0FA4  1D03               	skipz
  4385  0FA5  2F9F               	goto	u3745
  4386                           
  4387  0FA6  2FA7               	goto	l9981
  4388                           	line	69
  4389                           	
  4390  0FA7                     l7843:	
  4391                           	line	66
  4392                           	
  4393  0FA7                     l9981:	
  4394  0FA7  30FE               	movlw	low highword(0FE0000h)
  4395  0FA8  0522               	andwf	(___ftpack@arg+2),w
  4396  0FA9  1D03               	btfss	status,2
  4397  0FAA  2FAC               	goto	u3751
  4398  0FAB  2FAD               	goto	u3750
  4399  0FAC                     u3751:
  4400  0FAC  2F9A               	goto	l9979
  4401  0FAD                     u3750:
  4402  0FAD  2FC5               	goto	l7846
  4403                           	
  4404  0FAE                     l7845:	
  4405                           	line	70
  4406  0FAE  2FC5               	goto	l7846
  4407                           	
  4408  0FAF                     l7847:	
  4409                           	line	71
  4410                           	
  4411  0FAF                     l9983:	
  4412  0FAF  3001               	movlw	(01h)
  4413  0FB0  00A5               	movwf	(??___ftpack+0)+0
  4414  0FB1  0825               	movf	(??___ftpack+0)+0,w
  4415  0FB2  07A3               	addwf	(___ftpack@exp),f
  4416                           	line	72
  4417                           	
  4418  0FB3                     l9985:	
  4419  0FB3  3001               	movlw	01h
  4420  0FB4  07A0               	addwf	(___ftpack@arg),f
  4421  0FB5  3000               	movlw	0
  4422  0FB6  1803               	skipnc
  4423  0FB7  3001               movlw 1
  4424  0FB8  07A1               	addwf	(___ftpack@arg+1),f
  4425  0FB9  3000               	movlw	0
  4426  0FBA  1803               	skipnc
  4427  0FBB  3001               movlw 1
  4428  0FBC  07A2               	addwf	(___ftpack@arg+2),f
  4429                           	line	73
  4430                           	
  4431  0FBD                     l9987:	
  4432  0FBD  3001               	movlw	01h
  4433  0FBE                     u3765:
  4434  0FBE  1003               	clrc
  4435  0FBF  0CA2               	rrf	(___ftpack@arg+2),f
  4436  0FC0  0CA1               	rrf	(___ftpack@arg+1),f
  4437  0FC1  0CA0               	rrf	(___ftpack@arg),f
  4438  0FC2  3EFF               	addlw	-1
  4439  0FC3  1D03               	skipz
  4440  0FC4  2FBE               	goto	u3765
  4441                           
  4442                           	line	74
  4443                           	
  4444  0FC5                     l7846:	
  4445                           	line	70
  4446  0FC5  30FF               	movlw	low highword(0FF0000h)
  4447  0FC6  0522               	andwf	(___ftpack@arg+2),w
  4448  0FC7  1D03               	btfss	status,2
  4449  0FC8  2FCA               	goto	u3771
  4450  0FC9  2FCB               	goto	u3770
  4451  0FCA                     u3771:
  4452  0FCA  2FAF               	goto	l9983
  4453  0FCB                     u3770:
  4454  0FCB  2FD8               	goto	l9991
  4455                           	
  4456  0FCC                     l7848:	
  4457                           	line	75
  4458  0FCC  2FD8               	goto	l9991
  4459                           	
  4460  0FCD                     l7850:	
  4461                           	line	76
  4462                           	
  4463  0FCD                     l9989:	
  4464  0FCD  3001               	movlw	low(01h)
  4465  0FCE  02A3               	subwf	(___ftpack@exp),f
  4466                           	line	77
  4467  0FCF  3001               	movlw	01h
  4468  0FD0                     u3785:
  4469  0FD0  1003               	clrc
  4470  0FD1  0DA0               	rlf	(___ftpack@arg),f
  4471  0FD2  0DA1               	rlf	(___ftpack@arg+1),f
  4472  0FD3  0DA2               	rlf	(___ftpack@arg+2),f
  4473  0FD4  3EFF               	addlw	-1
  4474  0FD5  1D03               	skipz
  4475  0FD6  2FD0               	goto	u3785
  4476  0FD7  2FD8               	goto	l9991
  4477                           	line	78
  4478                           	
  4479  0FD8                     l7849:	
  4480                           	line	75
  4481                           	
  4482  0FD8                     l9991:	
  4483  0FD8  1FA1               	btfss	(___ftpack@arg+1),(15)&7
  4484  0FD9  2FDB               	goto	u3791
  4485  0FDA  2FDC               	goto	u3790
  4486  0FDB                     u3791:
  4487  0FDB  2FCD               	goto	l9989
  4488  0FDC                     u3790:
  4489                           	
  4490  0FDC                     l7851:	
  4491                           	line	79
  4492  0FDC  1823               	btfsc	(___ftpack@exp),(0)&7
  4493  0FDD  2FDF               	goto	u3801
  4494  0FDE  2FE0               	goto	u3800
  4495  0FDF                     u3801:
  4496  0FDF  2FE6               	goto	l7852
  4497  0FE0                     u3800:
  4498                           	line	80
  4499                           	
  4500  0FE0                     l9993:	
  4501  0FE0  30FF               	movlw	0FFh
  4502  0FE1  05A0               	andwf	(___ftpack@arg),f
  4503  0FE2  307F               	movlw	07Fh
  4504  0FE3  05A1               	andwf	(___ftpack@arg+1),f
  4505  0FE4  30FF               	movlw	0FFh
  4506  0FE5  05A2               	andwf	(___ftpack@arg+2),f
  4507                           	
  4508  0FE6                     l7852:	
  4509                           	line	81
  4510  0FE6  1003               	clrc
  4511  0FE7  0CA3               	rrf	(___ftpack@exp),f
  4512                           
  4513                           	line	82
  4514                           	
  4515  0FE8                     l9995:	
  4516  0FE8  0823               	movf	(___ftpack@exp),w
  4517  0FE9  00A5               	movwf	((??___ftpack+0)+0)
  4518  0FEA  01A6               	clrf	((??___ftpack+0)+0+1)
  4519  0FEB  01A7               	clrf	((??___ftpack+0)+0+2)
  4520  0FEC  3010               	movlw	010h
  4521  0FED                     u3815:
  4522  0FED  1003               	clrc
  4523  0FEE  0DA5               	rlf	(??___ftpack+0)+0,f
  4524  0FEF  0DA6               	rlf	(??___ftpack+0)+1,f
  4525  0FF0  0DA7               	rlf	(??___ftpack+0)+2,f
  4526  0FF1                     u3810:
  4527  0FF1  3EFF               	addlw	-1
  4528  0FF2  1D03               	skipz
  4529  0FF3  2FED               	goto	u3815
  4530  0FF4  0825               	movf	0+(??___ftpack+0)+0,w
  4531  0FF5  04A0               	iorwf	(___ftpack@arg),f
  4532  0FF6  0826               	movf	1+(??___ftpack+0)+0,w
  4533  0FF7  04A1               	iorwf	(___ftpack@arg+1),f
  4534  0FF8  0827               	movf	2+(??___ftpack+0)+0,w
  4535  0FF9  04A2               	iorwf	(___ftpack@arg+2),f
  4536                           	line	83
  4537                           	
  4538  0FFA                     l9997:	
  4539  0FFA  0824               	movf	(___ftpack@sign),w
  4540  0FFB  1D03               	skipz
  4541  0FFC  2FFE               	goto	u3820
  4542  0FFD  2FFF               	goto	l7853
  4543  0FFE                     u3820:
  4544                           	line	84
  4545                           	
  4546  0FFE                     l9999:	
  4547  0FFE  17A2               	bsf	(___ftpack@arg)+(23/8),(23)&7
  4548                           	
  4549  0FFF                     l7853:	
  4550                           	line	85
  4551                           	line	86
  4552                           	
  4553  0FFF                     l7842:	
  4554  0FFF  0008               	return
  4555                           	opt stack 0
  4556                           GLOBAL	__end_of___ftpack
  4557  1000                     	__end_of___ftpack:
  4558 ;; =============== function ___ftpack ends ============
  4559                           
  4560                           	signat	___ftpack,12411
  4561                           	global	_BeginEncoder
  4562                           psect	text705,local,class=CODE,delta=2
  4563                           global __ptext705
  4564  0D8A                     __ptext705:
  4565                           
  4566 ;; *************** function _BeginEncoder *****************
  4567 ;; Defined at:
  4568 ;;		line 22 in file "enclib.c"
  4569 ;; Parameters:    Size  Location     Type
  4570 ;;		None
  4571 ;; Auto vars:     Size  Location     Type
  4572 ;;		None
  4573 ;; Return value:  Size  Location     Type
  4574 ;;		None               void
  4575 ;; Registers used:
  4576 ;;		wreg
  4577 ;; Tracked objects:
  4578 ;;		On entry : 0/0
  4579 ;;		On exit  : 0/0
  4580 ;;		Unchanged: 0/0
  4581 ;; Data sizes:     COMMON   BANK0  BANK1h  BANK1l   BANK3   BANK2
  4582 ;;      Params:         0       0       0       0       0       0
  4583 ;;      Locals:         0       0       0       0       0       0
  4584 ;;      Temps:          0       0       0       0       0       0
  4585 ;;      Totals:         0       0       0       0       0       0
  4586 ;;Total ram usage:        0 bytes
  4587 ;; Hardware stack levels used:    1
  4588 ;; Hardware stack levels required when called:    1
  4589 ;; This function calls:
  4590 ;;		Nothing
  4591 ;; This function is called by:
  4592 ;;		_Initialise
  4593 ;; This function uses a non-reentrant model
  4594 ;;
  4595                           psect	text705
  4596                           	file	"enclib.c"
  4597                           	line	22
  4598                           	global	__size_of_BeginEncoder
  4599  000B                     	__size_of_BeginEncoder	equ	__end_of_BeginEncoder-_BeginEncoder
  4600                           	
  4601  0D8A                     _BeginEncoder:	
  4602                           	opt	stack 5
  4603                           ; Regs used in _BeginEncoder: [wreg]
  4604                           	line	28
  4605                           	
  4606  0D8A                     l9939:	
  4607                           ;enclib.c: 28: OPTION_REG = 0b10011111;
  4608  0D8A  309F               	movlw	(09Fh)
  4609  0D8B  1683               	bsf	status, 5	;RP0=1, select bank1
  4610  0D8C  1303               	bcf	status, 6	;RP1=0, select bank1
  4611  0D8D  0081               	movwf	(129)^080h	;volatile
  4612                           	line	34
  4613                           ;enclib.c: 34: CMCON1 = 0x02;
  4614  0D8E  3002               	movlw	(02h)
  4615  0D8F  0097               	movwf	(151)^080h	;volatile
  4616                           	line	35
  4617                           ;enclib.c: 35: T1CON = 0b00000111;
  4618  0D90  3007               	movlw	(07h)
  4619  0D91  1283               	bcf	status, 5	;RP0=0, select bank0
  4620  0D92  1303               	bcf	status, 6	;RP1=0, select bank0
  4621  0D93  0090               	movwf	(16)	;volatile
  4622                           	line	36
  4623                           	
  4624  0D94                     l4579:	
  4625  0D94  0008               	return
  4626                           	opt stack 0
  4627                           GLOBAL	__end_of_BeginEncoder
  4628  0D95                     	__end_of_BeginEncoder:
  4629 ;; =============== function _BeginEncoder ends ============
  4630                           
  4631                           	signat	_BeginEncoder,88
  4632                           	global	_BeginPWM
  4633                           psect	text706,local,class=CODE,delta=2
  4634                           global __ptext706
  4635  0DC2                     __ptext706:
  4636                           
  4637 ;; *************** function _BeginPWM *****************
  4638 ;; Defined at:
  4639 ;;		line 41 in file "pwmlib.c"
  4640 ;; Parameters:    Size  Location     Type
  4641 ;;		None
  4642 ;; Auto vars:     Size  Location     Type
  4643 ;;		None
  4644 ;; Return value:  Size  Location     Type
  4645 ;;		None               void
  4646 ;; Registers used:
  4647 ;;		wreg, status,2
  4648 ;; Tracked objects:
  4649 ;;		On entry : 0/0
  4650 ;;		On exit  : 0/0
  4651 ;;		Unchanged: 0/0
  4652 ;; Data sizes:     COMMON   BANK0  BANK1h  BANK1l   BANK3   BANK2
  4653 ;;      Params:         0       0       0       0       0       0
  4654 ;;      Locals:         0       0       0       0       0       0
  4655 ;;      Temps:          0       0       0       0       0       0
  4656 ;;      Totals:         0       0       0       0       0       0
  4657 ;;Total ram usage:        0 bytes
  4658 ;; Hardware stack levels used:    1
  4659 ;; Hardware stack levels required when called:    1
  4660 ;; This function calls:
  4661 ;;		Nothing
  4662 ;; This function is called by:
  4663 ;;		_Initialise
  4664 ;; This function uses a non-reentrant model
  4665 ;;
  4666                           psect	text706
  4667                           	file	"pwmlib.c"
  4668                           	line	41
  4669                           	global	__size_of_BeginPWM
  4670  001E                     	__size_of_BeginPWM	equ	__end_of_BeginPWM-_BeginPWM
  4671                           	
  4672  0DC2                     _BeginPWM:	
  4673                           	opt	stack 5
  4674                           ; Regs used in _BeginPWM: [wreg+status,2]
  4675                           	line	44
  4676                           	
  4677  0DC2                     l9921:	
  4678                           ;pwmlib.c: 44: TRISDbits.TRISD2 = 1;
  4679  0DC2  1683               	bsf	status, 5	;RP0=1, select bank1
  4680  0DC3  1303               	bcf	status, 6	;RP1=0, select bank1
  4681  0DC4  1508               	bsf	(136)^080h,2	;volatile
  4682                           	line	47
  4683                           ;pwmlib.c: 47: PIE1bits.TMR2IE = 0;
  4684  0DC5  108C               	bcf	(140)^080h,1	;volatile
  4685                           	line	51
  4686                           	
  4687  0DC6                     l9923:	
  4688                           ;pwmlib.c: 51: PR2 = 0xFF;
  4689  0DC6  30FF               	movlw	(0FFh)
  4690  0DC7  0092               	movwf	(146)^080h	;volatile
  4691                           	line	55
  4692                           ;pwmlib.c: 55: CCP2CON = 0b00001100;
  4693  0DC8  300C               	movlw	(0Ch)
  4694  0DC9  1283               	bcf	status, 5	;RP0=0, select bank0
  4695  0DCA  1303               	bcf	status, 6	;RP1=0, select bank0
  4696  0DCB  009D               	movwf	(29)	;volatile
  4697                           	line	59
  4698                           	
  4699  0DCC                     l9925:	
  4700                           ;pwmlib.c: 59: CCPR2L = 0;
  4701  0DCC  019B               	clrf	(27)	;volatile
  4702                           	line	60
  4703                           	
  4704  0DCD                     l9927:	
  4705                           ;pwmlib.c: 60: CCP2CONbits.CCP2X = 0;
  4706  0DCD  129D               	bcf	(29),5	;volatile
  4707                           	line	61
  4708                           	
  4709  0DCE                     l9929:	
  4710                           ;pwmlib.c: 61: CCP2CONbits.CCP2Y = 0;
  4711  0DCE  121D               	bcf	(29),4	;volatile
  4712                           	line	66
  4713                           	
  4714  0DCF                     l9931:	
  4715                           ;pwmlib.c: 66: PIR1bits.TMR2IF = 0;
  4716  0DCF  108C               	bcf	(12),1	;volatile
  4717                           	line	70
  4718                           	
  4719  0DD0                     l9933:	
  4720                           ;pwmlib.c: 70: T2CON = 0b00000100;
  4721  0DD0  3004               	movlw	(04h)
  4722  0DD1  0092               	movwf	(18)	;volatile
  4723  0DD2  2DD3               	goto	l9935
  4724                           	line	75
  4725                           ;pwmlib.c: 75: while(1)
  4726                           	
  4727  0DD3                     l3073:	
  4728                           	line	77
  4729                           	
  4730  0DD3                     l9935:	
  4731                           ;pwmlib.c: 76: {
  4732                           ;pwmlib.c: 77: if(PIR1bits.TMR2IF == 1)
  4733  0DD3  1283               	bcf	status, 5	;RP0=0, select bank0
  4734  0DD4  1C8C               	btfss	(12),1	;volatile
  4735  0DD5  2DD7               	goto	u3661
  4736  0DD6  2DD8               	goto	u3660
  4737  0DD7                     u3661:
  4738  0DD7  2DD3               	goto	l9935
  4739  0DD8                     u3660:
  4740                           	line	79
  4741                           	
  4742  0DD8                     l9937:	
  4743                           ;pwmlib.c: 78: {
  4744                           ;pwmlib.c: 79: TMR2IF = 0;
  4745  0DD8  108C               	bcf	(97/8),(97)&7
  4746                           	line	80
  4747                           ;pwmlib.c: 80: TRISDbits.TRISD2 = 0;
  4748  0DD9  1683               	bsf	status, 5	;RP0=1, select bank1
  4749  0DDA  1303               	bcf	status, 6	;RP1=0, select bank1
  4750  0DDB  1108               	bcf	(136)^080h,2	;volatile
  4751                           	line	81
  4752                           ;pwmlib.c: 81: break;
  4753  0DDC  2DDF               	goto	l3077
  4754                           	line	82
  4755                           	
  4756  0DDD                     l3074:	
  4757  0DDD  2DD3               	goto	l9935
  4758                           	line	83
  4759                           	
  4760  0DDE                     l3076:	
  4761                           	line	75
  4762  0DDE  2DD3               	goto	l9935
  4763                           	
  4764  0DDF                     l3075:	
  4765                           	line	84
  4766                           	
  4767  0DDF                     l3077:	
  4768  0DDF  0008               	return
  4769                           	opt stack 0
  4770                           GLOBAL	__end_of_BeginPWM
  4771  0DE0                     	__end_of_BeginPWM:
  4772 ;; =============== function _BeginPWM ends ============
  4773                           
  4774                           	signat	_BeginPWM,88
  4775                           	global	_delay
  4776                           psect	text707,local,class=CODE,delta=2
  4777                           global __ptext707
  4778  0E4A                     __ptext707:
  4779                           
  4780 ;; *************** function _delay *****************
  4781 ;; Defined at:
  4782 ;;		line 308 in file "primarymain.c"
  4783 ;; Parameters:    Size  Location     Type
  4784 ;;  length          2    0[BANK0 ] int 
  4785 ;; Auto vars:     Size  Location     Type
  4786 ;;  x               2    3[BANK0 ] int 
  4787 ;; Return value:  Size  Location     Type
  4788 ;;		None               void
  4789 ;; Registers used:
  4790 ;;		wreg, status,2
  4791 ;; Tracked objects:
  4792 ;;		On entry : 0/0
  4793 ;;		On exit  : 0/0
  4794 ;;		Unchanged: 0/0
  4795 ;; Data sizes:     COMMON   BANK0  BANK1h  BANK1l   BANK3   BANK2
  4796 ;;      Params:         0       2       0       0       0       0
  4797 ;;      Locals:         0       2       0       0       0       0
  4798 ;;      Temps:          0       1       0       0       0       0
  4799 ;;      Totals:         0       5       0       0       0       0
  4800 ;;Total ram usage:        5 bytes
  4801 ;; Hardware stack levels used:    1
  4802 ;; Hardware stack levels required when called:    1
  4803 ;; This function calls:
  4804 ;;		Nothing
  4805 ;; This function is called by:
  4806 ;;		_main
  4807 ;; This function uses a non-reentrant model
  4808 ;;
  4809                           psect	text707
  4810                           	file	"primarymain.c"
  4811                           	line	308
  4812                           	global	__size_of_delay
  4813  0029                     	__size_of_delay	equ	__end_of_delay-_delay
  4814                           	
  4815  0E4A                     _delay:	
  4816                           	opt	stack 6
  4817                           ; Regs used in _delay: [wreg+status,2]
  4818                           	line	309
  4819                           	
  4820  0E4A                     l9917:	
  4821                           ;primarymain.c: 309: for (int x=0; x < length; x++)
  4822  0E4A  1283               	bcf	status, 5	;RP0=0, select bank0
  4823  0E4B  1303               	bcf	status, 6	;RP1=0, select bank0
  4824  0E4C  01A3               	clrf	(delay@x)
  4825  0E4D  01A4               	clrf	(delay@x+1)
  4826  0E4E  2E63               	goto	l1576
  4827                           	line	310
  4828                           	
  4829  0E4F                     l1577:	
  4830                           	line	311
  4831                           	
  4832  0E4F                     l9919:	
  4833                           ;primarymain.c: 310: {
  4834                           ;primarymain.c: 311: x++;
  4835  0E4F  3001               	movlw	low(01h)
  4836  0E50  1283               	bcf	status, 5	;RP0=0, select bank0
  4837  0E51  1303               	bcf	status, 6	;RP1=0, select bank0
  4838  0E52  07A3               	addwf	(delay@x),f
  4839  0E53  1803               	skipnc
  4840  0E54  0AA4               	incf	(delay@x+1),f
  4841  0E55  3000               	movlw	high(01h)
  4842  0E56  07A4               	addwf	(delay@x+1),f
  4843                           	line	312
  4844                           ;primarymain.c: 312: x--;
  4845  0E57  30FF               	movlw	low(-1)
  4846  0E58  07A3               	addwf	(delay@x),f
  4847  0E59  1803               	skipnc
  4848  0E5A  0AA4               	incf	(delay@x+1),f
  4849  0E5B  30FF               	movlw	high(-1)
  4850  0E5C  07A4               	addwf	(delay@x+1),f
  4851                           	line	309
  4852  0E5D  3001               	movlw	low(01h)
  4853  0E5E  07A3               	addwf	(delay@x),f
  4854  0E5F  1803               	skipnc
  4855  0E60  0AA4               	incf	(delay@x+1),f
  4856  0E61  3000               	movlw	high(01h)
  4857  0E62  07A4               	addwf	(delay@x+1),f
  4858                           	
  4859  0E63                     l1576:	
  4860  0E63  0824               	movf	(delay@x+1),w
  4861  0E64  3A80               	xorlw	80h
  4862  0E65  00A2               	movwf	(??_delay+0)+0
  4863  0E66  0821               	movf	(delay@length+1),w
  4864  0E67  3A80               	xorlw	80h
  4865  0E68  0222               	subwf	(??_delay+0)+0,w
  4866  0E69  1D03               	skipz
  4867  0E6A  2E6D               	goto	u3655
  4868  0E6B  0820               	movf	(delay@length),w
  4869  0E6C  0223               	subwf	(delay@x),w
  4870  0E6D                     u3655:
  4871                           
  4872  0E6D  1C03               	skipc
  4873  0E6E  2E70               	goto	u3651
  4874  0E6F  2E71               	goto	u3650
  4875  0E70                     u3651:
  4876  0E70  2E4F               	goto	l9919
  4877  0E71                     u3650:
  4878  0E71  2E72               	goto	l1579
  4879                           	
  4880  0E72                     l1578:	
  4881                           	line	314
  4882                           	
  4883  0E72                     l1579:	
  4884  0E72  0008               	return
  4885                           	opt stack 0
  4886                           GLOBAL	__end_of_delay
  4887  0E73                     	__end_of_delay:
  4888 ;; =============== function _delay ends ============
  4889                           
  4890                           	signat	_delay,4216
  4891                           	global	_SetPulse
  4892                           psect	text708,local,class=CODE,delta=2
  4893                           global __ptext708
  4894  0DE0                     __ptext708:
  4895                           
  4896 ;; *************** function _SetPulse *****************
  4897 ;; Defined at:
  4898 ;;		line 105 in file "pwmlib.c"
  4899 ;; Parameters:    Size  Location     Type
  4900 ;;  length          2    0[BANK0 ] int 
  4901 ;; Auto vars:     Size  Location     Type
  4902 ;;  temp            2    2[BANK0 ] int 
  4903 ;; Return value:  Size  Location     Type
  4904 ;;		None               void
  4905 ;; Registers used:
  4906 ;;		wreg, status,2, status,0, btemp+1
  4907 ;; Tracked objects:
  4908 ;;		On entry : 0/0
  4909 ;;		On exit  : 0/0
  4910 ;;		Unchanged: 0/0
  4911 ;; Data sizes:     COMMON   BANK0  BANK1h  BANK1l   BANK3   BANK2
  4912 ;;      Params:         0       2       0       0       0       0
  4913 ;;      Locals:         0       2       0       0       0       0
  4914 ;;      Temps:          0       0       0       0       0       0
  4915 ;;      Totals:         0       4       0       0       0       0
  4916 ;;Total ram usage:        4 bytes
  4917 ;; Hardware stack levels used:    1
  4918 ;; Hardware stack levels required when called:    1
  4919 ;; This function calls:
  4920 ;;		Nothing
  4921 ;; This function is called by:
  4922 ;;		_main
  4923 ;;		_CalcPulse
  4924 ;; This function uses a non-reentrant model
  4925 ;;
  4926                           psect	text708
  4927                           	file	"pwmlib.c"
  4928                           	line	105
  4929                           	global	__size_of_SetPulse
  4930  0020                     	__size_of_SetPulse	equ	__end_of_SetPulse-_SetPulse
  4931                           	
  4932  0DE0                     _SetPulse:	
  4933                           	opt	stack 6
  4934                           ; Regs used in _SetPulse: [wreg+status,2+status,0+btemp+1]
  4935                           	line	106
  4936                           	
  4937  0DE0                     l9911:	
  4938                           ;pwmlib.c: 106: int temp = length;
  4939  0DE0  1283               	bcf	status, 5	;RP0=0, select bank0
  4940  0DE1  1303               	bcf	status, 6	;RP1=0, select bank0
  4941  0DE2  0821               	movf	(SetPulse@length+1),w
  4942  0DE3  01A3               	clrf	(SetPulse@temp+1)
  4943  0DE4  07A3               	addwf	(SetPulse@temp+1)
  4944  0DE5  0820               	movf	(SetPulse@length),w
  4945  0DE6  01A2               	clrf	(SetPulse@temp)
  4946  0DE7  07A2               	addwf	(SetPulse@temp)
  4947                           
  4948                           	line	107
  4949                           	
  4950  0DE8                     l9913:	
  4951                           ;pwmlib.c: 107: if (temp > 255)
  4952  0DE8  0823               	movf	(SetPulse@temp+1),w
  4953  0DE9  3A80               	xorlw	80h
  4954  0DEA  00FF               	movwf	btemp+1
  4955  0DEB  3081               	movlw	(high(0100h))^80h
  4956  0DEC  027F               	subwf	btemp+1,w
  4957  0DED  1D03               	skipz
  4958  0DEE  2DF1               	goto	u3645
  4959  0DEF  3000               	movlw	low(0100h)
  4960  0DF0  0222               	subwf	(SetPulse@temp),w
  4961  0DF1                     u3645:
  4962                           
  4963  0DF1  1C03               	skipc
  4964  0DF2  2DF4               	goto	u3641
  4965  0DF3  2DF5               	goto	u3640
  4966  0DF4                     u3641:
  4967  0DF4  2DFB               	goto	l3084
  4968  0DF5                     u3640:
  4969                           	line	108
  4970                           	
  4971  0DF5                     l9915:	
  4972                           ;pwmlib.c: 108: temp = 255;
  4973  0DF5  30FF               	movlw	low(0FFh)
  4974  0DF6  1283               	bcf	status, 5	;RP0=0, select bank0
  4975  0DF7  1303               	bcf	status, 6	;RP1=0, select bank0
  4976  0DF8  00A2               	movwf	(SetPulse@temp)
  4977  0DF9  3000               	movlw	high(0FFh)
  4978  0DFA  00A3               	movwf	((SetPulse@temp))+1
  4979                           	
  4980  0DFB                     l3084:	
  4981                           	line	109
  4982                           ;pwmlib.c: 109: CCPR2L = temp;
  4983  0DFB  1283               	bcf	status, 5	;RP0=0, select bank0
  4984  0DFC  1303               	bcf	status, 6	;RP1=0, select bank0
  4985  0DFD  0822               	movf	(SetPulse@temp),w
  4986  0DFE  009B               	movwf	(27)	;volatile
  4987                           	line	113
  4988                           	
  4989  0DFF                     l3085:	
  4990  0DFF  0008               	return
  4991                           	opt stack 0
  4992                           GLOBAL	__end_of_SetPulse
  4993  0E00                     	__end_of_SetPulse:
  4994 ;; =============== function _SetPulse ends ============
  4995                           
  4996                           	signat	_SetPulse,4216
  4997                           	global	_abs
  4998                           psect	text709,local,class=CODE,delta=2
  4999                           global __ptext709
  5000  0E00                     __ptext709:
  5001                           
  5002 ;; *************** function _abs *****************
  5003 ;; Defined at:
  5004 ;;		line 285 in file "primarymain.c"
  5005 ;; Parameters:    Size  Location     Type
  5006 ;;  a               2    0[BANK0 ] int 
  5007 ;;  b               2    2[BANK0 ] int 
  5008 ;; Auto vars:     Size  Location     Type
  5009 ;;  temp            2    6[BANK0 ] int 
  5010 ;; Return value:  Size  Location     Type
  5011 ;;                  2    0[BANK0 ] int 
  5012 ;; Registers used:
  5013 ;;		wreg, status,2, status,0
  5014 ;; Tracked objects:
  5015 ;;		On entry : 0/0
  5016 ;;		On exit  : 0/0
  5017 ;;		Unchanged: 0/0
  5018 ;; Data sizes:     COMMON   BANK0  BANK1h  BANK1l   BANK3   BANK2
  5019 ;;      Params:         0       4       0       0       0       0
  5020 ;;      Locals:         0       2       0       0       0       0
  5021 ;;      Temps:          0       2       0       0       0       0
  5022 ;;      Totals:         0       8       0       0       0       0
  5023 ;;Total ram usage:        8 bytes
  5024 ;; Hardware stack levels used:    1
  5025 ;; Hardware stack levels required when called:    1
  5026 ;; This function calls:
  5027 ;;		Nothing
  5028 ;; This function is called by:
  5029 ;;		_main
  5030 ;; This function uses a non-reentrant model
  5031 ;;
  5032                           psect	text709
  5033                           	file	"primarymain.c"
  5034                           	line	285
  5035                           	global	__size_of_abs
  5036  0023                     	__size_of_abs	equ	__end_of_abs-_abs
  5037                           	
  5038  0E00                     _abs:	
  5039                           	opt	stack 6
  5040                           ; Regs used in _abs: [wreg+status,2+status,0]
  5041                           	line	287
  5042                           	
  5043  0E00                     l9901:	
  5044                           ;primarymain.c: 286: int temp;
  5045                           ;primarymain.c: 287: temp = a - b;
  5046  0E00  1283               	bcf	status, 5	;RP0=0, select bank0
  5047  0E01  1303               	bcf	status, 6	;RP1=0, select bank0
  5048  0E02  0922               	comf	(abs@b),w
  5049  0E03  00A4               	movwf	(??_abs+0)+0
  5050  0E04  0923               	comf	(abs@b+1),w
  5051  0E05  00A5               	movwf	((??_abs+0)+0+1)
  5052  0E06  0AA4               	incf	(??_abs+0)+0,f
  5053  0E07  1903               	skipnz
  5054  0E08  0AA5               	incf	((??_abs+0)+0+1),f
  5055  0E09  0820               	movf	(abs@a),w
  5056  0E0A  0724               	addwf	0+(??_abs+0)+0,w
  5057  0E0B  00A6               	movwf	(abs@temp)
  5058  0E0C  0821               	movf	(abs@a+1),w
  5059  0E0D  1803               	skipnc
  5060  0E0E  0A21               	incf	(abs@a+1),w
  5061  0E0F  0725               	addwf	1+(??_abs+0)+0,w
  5062  0E10  00A7               	movwf	1+(abs@temp)
  5063                           	line	288
  5064                           	
  5065  0E11                     l9903:	
  5066                           ;primarymain.c: 288: if (temp < 0)
  5067  0E11  1FA7               	btfss	(abs@temp+1),7
  5068  0E12  2E14               	goto	u3631
  5069  0E13  2E15               	goto	u3630
  5070  0E14                     u3631:
  5071  0E14  2E1B               	goto	l9907
  5072  0E15                     u3630:
  5073                           	line	289
  5074                           	
  5075  0E15                     l9905:	
  5076                           ;primarymain.c: 289: temp = temp * -1;
  5077  0E15  09A6               	comf	(abs@temp),f
  5078  0E16  09A7               	comf	(abs@temp+1),f
  5079  0E17  0AA6               	incf	(abs@temp),f
  5080  0E18  1903               	skipnz
  5081  0E19  0AA7               	incf	(abs@temp+1),f
  5082  0E1A  2E1B               	goto	l9907
  5083                           	
  5084  0E1B                     l1572:	
  5085                           	line	290
  5086                           	
  5087  0E1B                     l9907:	
  5088                           ;primarymain.c: 290: return temp;
  5089  0E1B  0827               	movf	(abs@temp+1),w
  5090  0E1C  01A1               	clrf	(?_abs+1)
  5091  0E1D  07A1               	addwf	(?_abs+1)
  5092  0E1E  0826               	movf	(abs@temp),w
  5093  0E1F  01A0               	clrf	(?_abs)
  5094  0E20  07A0               	addwf	(?_abs)
  5095                           
  5096  0E21  2E22               	goto	l1573
  5097                           	
  5098  0E22                     l9909:	
  5099                           	line	291
  5100                           	
  5101  0E22                     l1573:	
  5102  0E22  0008               	return
  5103                           	opt stack 0
  5104                           GLOBAL	__end_of_abs
  5105  0E23                     	__end_of_abs:
  5106 ;; =============== function _abs ends ============
  5107                           
  5108                           	signat	_abs,8314
  5109                           	global	_UpdateData
  5110                           psect	text710,local,class=CODE,delta=2
  5111                           global __ptext710
  5112  001D                     __ptext710:
  5113                           
  5114 ;; *************** function _UpdateData *****************
  5115 ;; Defined at:
  5116 ;;		line 255 in file "primarymain.c"
  5117 ;; Parameters:    Size  Location     Type
  5118 ;;  t               2    0[BANK0 ] int 
  5119 ;;  c               2    2[BANK0 ] int 
  5120 ;; Auto vars:     Size  Location     Type
  5121 ;;		None
  5122 ;; Return value:  Size  Location     Type
  5123 ;;		None               void
  5124 ;; Registers used:
  5125 ;;		wreg, status,2, status,0
  5126 ;; Tracked objects:
  5127 ;;		On entry : 0/0
  5128 ;;		On exit  : 0/0
  5129 ;;		Unchanged: 0/0
  5130 ;; Data sizes:     COMMON   BANK0  BANK1h  BANK1l   BANK3   BANK2
  5131 ;;      Params:         0       4       0       0       0       0
  5132 ;;      Locals:         0       0       0       0       0       0
  5133 ;;      Temps:          0       4       0       0       0       0
  5134 ;;      Totals:         0       8       0       0       0       0
  5135 ;;Total ram usage:        8 bytes
  5136 ;; Hardware stack levels used:    1
  5137 ;; Hardware stack levels required when called:    1
  5138 ;; This function calls:
  5139 ;;		Nothing
  5140 ;; This function is called by:
  5141 ;;		_main
  5142 ;; This function uses a non-reentrant model
  5143 ;;
  5144                           psect	text710
  5145                           	file	"primarymain.c"
  5146                           	line	255
  5147                           	global	__size_of_UpdateData
  5148  0088                     	__size_of_UpdateData	equ	__end_of_UpdateData-_UpdateData
  5149                           	
  5150  001D                     _UpdateData:	
  5151                           	opt	stack 6
  5152                           ; Regs used in _UpdateData: [wreg+status,2+status,0]
  5153                           	line	259
  5154                           	
  5155  001D                     l9895:	
  5156                           ;primarymain.c: 259: if (DIR_READ == 0)
  5157  001D  1283               	bcf	status, 5	;RP0=0, select bank0
  5158  001E  1303               	bcf	status, 6	;RP1=0, select bank0
  5159  001F  0863               	movf	((_DIR_READ+1)),w
  5160  0020  0462               	iorwf	((_DIR_READ)),w
  5161  0021  1D03               	skipz
  5162  0022  2824               	goto	u3581
  5163  0023  2825               	goto	u3580
  5164  0024                     u3581:
  5165  0024  2866               	goto	l9899
  5166  0025                     u3580:
  5167                           	line	261
  5168                           	
  5169  0025                     l9897:	
  5170                           ;primarymain.c: 260: {
  5171                           ;primarymain.c: 261: TIME += t;
  5172  0025  0820               	movf	(UpdateData@t),w
  5173  0026  00A4               	movwf	((??_UpdateData+0)+0)
  5174  0027  0821               	movf	(UpdateData@t+1),w
  5175  0028  00A5               	movwf	((??_UpdateData+0)+0+1)
  5176  0029  3000               	movlw	0
  5177  002A  1BA5               	btfsc	((??_UpdateData+0)+0+1),7
  5178  002B  30FF               	movlw	255
  5179  002C  00A6               	movwf	((??_UpdateData+0)+0+2)
  5180  002D  00A7               	movwf	((??_UpdateData+0)+0+3)
  5181  002E  0824               	movf	0+(??_UpdateData+0)+0,w
  5182  002F  07F1               	addwf	(_TIME),f
  5183  0030  0825               	movf	1+(??_UpdateData+0)+0,w
  5184  0031  1103               	clrz
  5185  0032  1803               	skipnc
  5186  0033  3E01               	addlw	1
  5187  0034  1903               	skipnz
  5188  0035  2837               	goto	u3591
  5189  0036  07F2               	addwf	(_TIME+1),f
  5190  0037                     u3591:
  5191  0037  0826               	movf	2+(??_UpdateData+0)+0,w
  5192  0038  1103               	clrz
  5193  0039  1803               	skipnc
  5194  003A  3E01               	addlw	1
  5195  003B  1903               	skipnz
  5196  003C  283E               	goto	u3592
  5197  003D  07F3               	addwf	(_TIME+2),f
  5198  003E                     u3592:
  5199  003E  0827               	movf	3+(??_UpdateData+0)+0,w
  5200  003F  1103               	clrz
  5201  0040  1803               	skipnc
  5202  0041  3E01               	addlw	1
  5203  0042  1903               	skipnz
  5204  0043  2845               	goto	u3593
  5205  0044  07F4               	addwf	(_TIME+3),f
  5206  0045                     u3593:
  5207                           
  5208                           	line	262
  5209                           ;primarymain.c: 262: COUNTS += c;
  5210  0045  0822               	movf	(UpdateData@c),w
  5211  0046  00A4               	movwf	((??_UpdateData+0)+0)
  5212  0047  0823               	movf	(UpdateData@c+1),w
  5213  0048  00A5               	movwf	((??_UpdateData+0)+0+1)
  5214  0049  3000               	movlw	0
  5215  004A  1BA5               	btfsc	((??_UpdateData+0)+0+1),7
  5216  004B  30FF               	movlw	255
  5217  004C  00A6               	movwf	((??_UpdateData+0)+0+2)
  5218  004D  00A7               	movwf	((??_UpdateData+0)+0+3)
  5219  004E  0824               	movf	0+(??_UpdateData+0)+0,w
  5220  004F  07DE               	addwf	(_COUNTS),f
  5221  0050  0825               	movf	1+(??_UpdateData+0)+0,w
  5222  0051  1103               	clrz
  5223  0052  1803               	skipnc
  5224  0053  3E01               	addlw	1
  5225  0054  1903               	skipnz
  5226  0055  2857               	goto	u3601
  5227  0056  07DF               	addwf	(_COUNTS+1),f
  5228  0057                     u3601:
  5229  0057  0826               	movf	2+(??_UpdateData+0)+0,w
  5230  0058  1103               	clrz
  5231  0059  1803               	skipnc
  5232  005A  3E01               	addlw	1
  5233  005B  1903               	skipnz
  5234  005C  285E               	goto	u3602
  5235  005D  07E0               	addwf	(_COUNTS+2),f
  5236  005E                     u3602:
  5237  005E  0827               	movf	3+(??_UpdateData+0)+0,w
  5238  005F  1103               	clrz
  5239  0060  1803               	skipnc
  5240  0061  3E01               	addlw	1
  5241  0062  1903               	skipnz
  5242  0063  2865               	goto	u3603
  5243  0064  07E1               	addwf	(_COUNTS+3),f
  5244  0065                     u3603:
  5245                           
  5246                           	line	263
  5247                           ;primarymain.c: 263: } else
  5248  0065  28A4               	goto	l1562
  5249                           	
  5250  0066                     l1560:	
  5251                           	line	265
  5252                           	
  5253  0066                     l9899:	
  5254                           ;primarymain.c: 264: {
  5255                           ;primarymain.c: 265: TIME += t;
  5256  0066  0820               	movf	(UpdateData@t),w
  5257  0067  00A4               	movwf	((??_UpdateData+0)+0)
  5258  0068  0821               	movf	(UpdateData@t+1),w
  5259  0069  00A5               	movwf	((??_UpdateData+0)+0+1)
  5260  006A  3000               	movlw	0
  5261  006B  1BA5               	btfsc	((??_UpdateData+0)+0+1),7
  5262  006C  30FF               	movlw	255
  5263  006D  00A6               	movwf	((??_UpdateData+0)+0+2)
  5264  006E  00A7               	movwf	((??_UpdateData+0)+0+3)
  5265  006F  0824               	movf	0+(??_UpdateData+0)+0,w
  5266  0070  07F1               	addwf	(_TIME),f
  5267  0071  0825               	movf	1+(??_UpdateData+0)+0,w
  5268  0072  1103               	clrz
  5269  0073  1803               	skipnc
  5270  0074  3E01               	addlw	1
  5271  0075  1903               	skipnz
  5272  0076  2878               	goto	u3611
  5273  0077  07F2               	addwf	(_TIME+1),f
  5274  0078                     u3611:
  5275  0078  0826               	movf	2+(??_UpdateData+0)+0,w
  5276  0079  1103               	clrz
  5277  007A  1803               	skipnc
  5278  007B  3E01               	addlw	1
  5279  007C  1903               	skipnz
  5280  007D  287F               	goto	u3612
  5281  007E  07F3               	addwf	(_TIME+2),f
  5282  007F                     u3612:
  5283  007F  0827               	movf	3+(??_UpdateData+0)+0,w
  5284  0080  1103               	clrz
  5285  0081  1803               	skipnc
  5286  0082  3E01               	addlw	1
  5287  0083  1903               	skipnz
  5288  0084  2886               	goto	u3613
  5289  0085  07F4               	addwf	(_TIME+3),f
  5290  0086                     u3613:
  5291                           
  5292                           	line	266
  5293                           ;primarymain.c: 266: COUNTS -= c;
  5294  0086  0822               	movf	(UpdateData@c),w
  5295  0087  00A4               	movwf	((??_UpdateData+0)+0)
  5296  0088  0823               	movf	(UpdateData@c+1),w
  5297  0089  00A5               	movwf	((??_UpdateData+0)+0+1)
  5298  008A  3000               	movlw	0
  5299  008B  1BA5               	btfsc	((??_UpdateData+0)+0+1),7
  5300  008C  30FF               	movlw	255
  5301  008D  00A6               	movwf	((??_UpdateData+0)+0+2)
  5302  008E  00A7               	movwf	((??_UpdateData+0)+0+3)
  5303  008F  0824               	movf	0+(??_UpdateData+0)+0,w
  5304  0090  02DE               	subwf	(_COUNTS),f
  5305  0091  0825               	movf	1+(??_UpdateData+0)+0,w
  5306  0092  1C03               	skipc
  5307  0093  0F25               	incfsz	1+(??_UpdateData+0)+0,w
  5308  0094  2896               	goto	u3625
  5309  0095  2897               	goto	u3626
  5310  0096                     u3625:
  5311  0096  02DF               	subwf	(_COUNTS+1),f
  5312  0097                     u3626:
  5313  0097  0826               	movf	2+(??_UpdateData+0)+0,w
  5314  0098  1C03               	skipc
  5315  0099  0F26               	incfsz	2+(??_UpdateData+0)+0,w
  5316  009A  289C               	goto	u3627
  5317  009B  289D               	goto	u3628
  5318  009C                     u3627:
  5319  009C  02E0               	subwf	(_COUNTS+2),f
  5320  009D                     u3628:
  5321  009D  0827               	movf	3+(??_UpdateData+0)+0,w
  5322  009E  1C03               	skipc
  5323  009F  0F27               	incfsz	3+(??_UpdateData+0)+0,w
  5324  00A0  28A2               	goto	u3629
  5325  00A1  28A3               	goto	u3620
  5326  00A2                     u3629:
  5327  00A2  02E1               	subwf	(_COUNTS+3),f
  5328  00A3                     u3620:
  5329                           
  5330  00A3  28A4               	goto	l1562
  5331                           	line	267
  5332                           	
  5333  00A4                     l1561:	
  5334                           	line	268
  5335                           	
  5336  00A4                     l1562:	
  5337  00A4  0008               	return
  5338                           	opt stack 0
  5339                           GLOBAL	__end_of_UpdateData
  5340  00A5                     	__end_of_UpdateData:
  5341 ;; =============== function _UpdateData ends ============
  5342                           
  5343                           	signat	_UpdateData,8312
  5344                           	global	_EncUpdate
  5345                           psect	text711,local,class=CODE,delta=2
  5346                           global __ptext711
  5347  0DA5                     __ptext711:
  5348                           
  5349 ;; *************** function _EncUpdate *****************
  5350 ;; Defined at:
  5351 ;;		line 42 in file "enclib.c"
  5352 ;; Parameters:    Size  Location     Type
  5353 ;;  t0              2    0[BANK0 ] PTR int 
  5354 ;;		 -> RAM(512), main@time(2), 
  5355 ;;  t1              2    2[BANK0 ] PTR int 
  5356 ;;		 -> RAM(512), main@counts(2), 
  5357 ;; Auto vars:     Size  Location     Type
  5358 ;;		None
  5359 ;; Return value:  Size  Location     Type
  5360 ;;		None               void
  5361 ;; Registers used:
  5362 ;;		wreg, fsr0l, fsr0h, status,2
  5363 ;; Tracked objects:
  5364 ;;		On entry : 0/0
  5365 ;;		On exit  : 0/0
  5366 ;;		Unchanged: 0/0
  5367 ;; Data sizes:     COMMON   BANK0  BANK1h  BANK1l   BANK3   BANK2
  5368 ;;      Params:         0       4       0       0       0       0
  5369 ;;      Locals:         0       0       0       0       0       0
  5370 ;;      Temps:          0       2       0       0       0       0
  5371 ;;      Totals:         0       6       0       0       0       0
  5372 ;;Total ram usage:        6 bytes
  5373 ;; Hardware stack levels used:    1
  5374 ;; Hardware stack levels required when called:    1
  5375 ;; This function calls:
  5376 ;;		Nothing
  5377 ;; This function is called by:
  5378 ;;		_main
  5379 ;; This function uses a non-reentrant model
  5380 ;;
  5381                           psect	text711
  5382                           	file	"enclib.c"
  5383                           	line	42
  5384                           	global	__size_of_EncUpdate
  5385  001D                     	__size_of_EncUpdate	equ	__end_of_EncUpdate-_EncUpdate
  5386                           	
  5387  0DA5                     _EncUpdate:	
  5388                           	opt	stack 6
  5389                           ; Regs used in _EncUpdate: [wreg-fsr0h+status,2]
  5390                           	line	43
  5391                           	
  5392  0DA5                     l9889:	
  5393                           ;enclib.c: 43: *t1 = TMR1;
  5394  0DA5  1283               	bcf	status, 5	;RP0=0, select bank0
  5395  0DA6  1303               	bcf	status, 6	;RP1=0, select bank0
  5396  0DA7  0822               	movf	(EncUpdate@t1),w
  5397  0DA8  0084               	movwf	fsr0
  5398  0DA9  1783               	bsf	status,7
  5399  0DAA  1C23               	btfss	(EncUpdate@t1+1),0
  5400  0DAB  1383               	bcf	status,7
  5401  0DAC  080E               	movf	(14),w	;volatile
  5402  0DAD  0080               	movwf	indf
  5403  0DAE  0A84               	incf	fsr0,f
  5404  0DAF  080F               	movf	(14+1),w	;volatile
  5405  0DB0  0080               	movwf	indf
  5406                           	line	44
  5407                           ;enclib.c: 44: *t0 = TMR0;
  5408  0DB1  0801               	movf	(1),w	;volatile
  5409  0DB2  00A4               	movwf	(??_EncUpdate+0)+0
  5410  0DB3  01A5               	clrf	(??_EncUpdate+0)+0+1
  5411  0DB4  0820               	movf	(EncUpdate@t0),w
  5412  0DB5  0084               	movwf	fsr0
  5413  0DB6  1783               	bsf	status,7
  5414  0DB7  1C21               	btfss	(EncUpdate@t0+1),0
  5415  0DB8  1383               	bcf	status,7
  5416  0DB9  0824               	movf	0+(??_EncUpdate+0)+0,w
  5417  0DBA  0080               	movwf	indf
  5418  0DBB  0A84               	incf	fsr0,f
  5419  0DBC  0825               	movf	1+(??_EncUpdate+0)+0,w
  5420  0DBD  0080               	movwf	indf
  5421                           	line	45
  5422                           	
  5423  0DBE                     l9891:	
  5424                           ;enclib.c: 45: TMR1 = 0;
  5425  0DBE  018E               	clrf	(14)	;volatile
  5426  0DBF  018F               	clrf	(14+1)	;volatile
  5427                           	line	46
  5428                           	
  5429  0DC0                     l9893:	
  5430                           ;enclib.c: 46: TMR0 = 0;
  5431  0DC0  0181               	clrf	(1)	;volatile
  5432                           	line	47
  5433                           	
  5434  0DC1                     l4582:	
  5435  0DC1  0008               	return
  5436                           	opt stack 0
  5437                           GLOBAL	__end_of_EncUpdate
  5438  0DC2                     	__end_of_EncUpdate:
  5439 ;; =============== function _EncUpdate ends ============
  5440                           
  5441                           	signat	_EncUpdate,8312
  5442                           	global	_isr
  5443                           psect	text712,local,class=CODE,delta=2
  5444                           global __ptext712
  5445  0E9F                     __ptext712:
  5446                           
  5447 ;; *************** function _isr *****************
  5448 ;; Defined at:
  5449 ;;		line 220 in file "primarymain.c"
  5450 ;; Parameters:    Size  Location     Type
  5451 ;;		None
  5452 ;; Auto vars:     Size  Location     Type
  5453 ;;		None
  5454 ;; Return value:  Size  Location     Type
  5455 ;;		None               void
  5456 ;; Registers used:
  5457 ;;		wreg, status,2, status,0
  5458 ;; Tracked objects:
  5459 ;;		On entry : 0/0
  5460 ;;		On exit  : 0/0
  5461 ;;		Unchanged: 0/0
  5462 ;; Data sizes:     COMMON   BANK0  BANK1h  BANK1l   BANK3   BANK2
  5463 ;;      Params:         0       0       0       0       0       0
  5464 ;;      Locals:         0       0       0       0       0       0
  5465 ;;      Temps:          6       0       0       0       0       0
  5466 ;;      Totals:         6       0       0       0       0       0
  5467 ;;Total ram usage:        6 bytes
  5468 ;; Hardware stack levels used:    1
  5469 ;; This function calls:
  5470 ;;		Nothing
  5471 ;; This function is called by:
  5472 ;;		Interrupt level 1
  5473 ;; This function uses a non-reentrant model
  5474 ;;
  5475                           psect	text712
  5476                           	file	"primarymain.c"
  5477                           	line	220
  5478                           	global	__size_of_isr
  5479  006E                     	__size_of_isr	equ	__end_of_isr-_isr
  5480                           	
  5481  0E9F                     _isr:	
  5482                           	opt	stack 5
  5483                           ; Regs used in _isr: [wreg+status,2+status,0]
  5484                           psect	intentry,class=CODE,delta=2
  5485                           global __pintentry
  5486  0004                     __pintentry:
  5487                           global interrupt_function
  5488  0004                     interrupt_function:
  5489                           	global saved_w
  5490  007E                     	saved_w	set	btemp+0
  5491  0004  00FE               	movwf	saved_w
  5492  0005  0E03               	swapf	status,w
  5493  0006  00F9               	movwf	(??_isr+2)
  5494  0007  0804               	movf	fsr0,w
  5495  0008  00FA               	movwf	(??_isr+3)
  5496  0009  080A               	movf	pclath,w
  5497  000A  00FB               	movwf	(??_isr+4)
  5498  000B  1283               	bcf	status, 5	;RP0=0, select bank0
  5499  000C  1303               	bcf	status, 6	;RP1=0, select bank0
  5500  000D  087F               	movf	btemp+1,w
  5501  000E  00FC               	movwf	(??_isr+5)
  5502  000F  120A  158A  2E9F   	ljmp	_isr
  5503                           psect	text712
  5504                           	line	221
  5505                           	
  5506  0E9F                     i1l9941:	
  5507                           ;primarymain.c: 221: if (SSPIF == 1)
  5508  0E9F  1D8C               	btfss	(99/8),(99)&7
  5509  0EA0  2EA2               	goto	u367_21
  5510  0EA1  2EA3               	goto	u367_20
  5511  0EA2                     u367_21:
  5512  0EA2  2EAA               	goto	i1l1547
  5513  0EA3                     u367_20:
  5514                           	line	223
  5515                           	
  5516  0EA3                     i1l9943:	
  5517                           ;primarymain.c: 222: {
  5518                           ;primarymain.c: 223: F.I2C = 1;
  5519  0EA3  1683               	bsf	status, 5	;RP0=1, select bank1
  5520  0EA4  1303               	bcf	status, 6	;RP1=0, select bank1
  5521  0EA5  142A               	bsf	(170)^080h,0
  5522                           	line	224
  5523                           ;primarymain.c: 224: SSPIF = 0;
  5524  0EA6  1283               	bcf	status, 5	;RP0=0, select bank0
  5525  0EA7  1303               	bcf	status, 6	;RP1=0, select bank0
  5526  0EA8  118C               	bcf	(99/8),(99)&7
  5527                           	line	225
  5528                           ;primarymain.c: 225: } else if (T0IF == 1)
  5529  0EA9  2F01               	goto	i1l1557
  5530                           	
  5531  0EAA                     i1l1547:	
  5532  0EAA  1D0B               	btfss	(90/8),(90)&7
  5533  0EAB  2EAD               	goto	u368_21
  5534  0EAC  2EAE               	goto	u368_20
  5535  0EAD                     u368_21:
  5536  0EAD  2EBE               	goto	i1l1549
  5537  0EAE                     u368_20:
  5538                           	line	227
  5539                           	
  5540  0EAE                     i1l9945:	
  5541                           ;primarymain.c: 226: {
  5542                           ;primarymain.c: 227: TIME += 256;
  5543  0EAE  3000               	movlw	0
  5544  0EAF  07F1               	addwf	(_TIME),f
  5545  0EB0  3001               	movlw	01h
  5546  0EB1  1803               	skipnc
  5547  0EB2  3002               movlw 2
  5548  0EB3  07F2               	addwf	(_TIME+1),f
  5549  0EB4  3000               	movlw	0
  5550  0EB5  1803               	skipnc
  5551  0EB6  3001               movlw 1
  5552  0EB7  07F3               	addwf	(_TIME+2),f
  5553  0EB8  3000               	movlw	0
  5554  0EB9  1803               	skipnc
  5555  0EBA  3001               movlw 1
  5556  0EBB  07F4               	addwf	(_TIME+3),f
  5557                           	line	228
  5558                           	
  5559  0EBC                     i1l9947:	
  5560                           ;primarymain.c: 228: T0IF = 0;
  5561  0EBC  110B               	bcf	(90/8),(90)&7
  5562                           	line	229
  5563                           ;primarymain.c: 229: } else if (TMR1IF == 1)
  5564  0EBD  2F01               	goto	i1l1557
  5565                           	
  5566  0EBE                     i1l1549:	
  5567  0EBE  1C0C               	btfss	(96/8),(96)&7
  5568  0EBF  2EC1               	goto	u369_21
  5569  0EC0  2EC2               	goto	u369_20
  5570  0EC1                     u369_21:
  5571  0EC1  2ED2               	goto	i1l1551
  5572  0EC2                     u369_20:
  5573                           	line	231
  5574                           	
  5575  0EC2                     i1l9949:	
  5576                           ;primarymain.c: 230: {
  5577                           ;primarymain.c: 231: COUNTS += 65536;
  5578  0EC2  3000               	movlw	0
  5579  0EC3  07DE               	addwf	(_COUNTS),f
  5580  0EC4  3000               	movlw	0
  5581  0EC5  1803               	skipnc
  5582  0EC6  3001               movlw 1
  5583  0EC7  07DF               	addwf	(_COUNTS+1),f
  5584  0EC8  3001               	movlw	01h
  5585  0EC9  1803               	skipnc
  5586  0ECA  3002               movlw 2
  5587  0ECB  07E0               	addwf	(_COUNTS+2),f
  5588  0ECC  3000               	movlw	0
  5589  0ECD  1803               	skipnc
  5590  0ECE  3001               movlw 1
  5591  0ECF  07E1               	addwf	(_COUNTS+3),f
  5592                           	line	232
  5593                           	
  5594  0ED0                     i1l9951:	
  5595                           ;primarymain.c: 232: TMR1IF = 0;
  5596  0ED0  100C               	bcf	(96/8),(96)&7
  5597                           	line	233
  5598                           ;primarymain.c: 233: } else if (RBIF == 1)
  5599  0ED1  2F01               	goto	i1l1557
  5600                           	
  5601  0ED2                     i1l1551:	
  5602  0ED2  1C0B               	btfss	(88/8),(88)&7
  5603  0ED3  2ED5               	goto	u370_21
  5604  0ED4  2ED6               	goto	u370_20
  5605  0ED5                     u370_21:
  5606  0ED5  2EF6               	goto	i1l9963
  5607  0ED6                     u370_20:
  5608                           	line	235
  5609                           	
  5610  0ED6                     i1l9953:	
  5611                           ;primarymain.c: 234: {
  5612                           ;primarymain.c: 235: if (RB5 != DIR_READ)
  5613  0ED6  1003               	clrc
  5614  0ED7  1A86               	btfsc	(53/8),(53)&7
  5615  0ED8  1403               	setc
  5616  0ED9  3000               	movlw	0
  5617  0EDA  1803               	skipnc
  5618  0EDB  3001               	movlw	1
  5619                           
  5620  0EDC  00F7               	movwf	(??_isr+0)+0
  5621  0EDD  01F8               	clrf	(??_isr+0)+0+1
  5622  0EDE  0863               	movf	(_DIR_READ+1),w
  5623  0EDF  0678               	xorwf	1+(??_isr+0)+0,w
  5624  0EE0  1D03               	skipz
  5625  0EE1  2EE4               	goto	u371_25
  5626  0EE2  0862               	movf	(_DIR_READ),w
  5627  0EE3  0677               	xorwf	0+(??_isr+0)+0,w
  5628  0EE4                     u371_25:
  5629                           
  5630  0EE4  1903               	skipnz
  5631  0EE5  2EE7               	goto	u371_21
  5632  0EE6  2EE8               	goto	u371_20
  5633  0EE7                     u371_21:
  5634  0EE7  2EEC               	goto	i1l9957
  5635  0EE8                     u371_20:
  5636                           	line	237
  5637                           	
  5638  0EE8                     i1l9955:	
  5639                           ;primarymain.c: 236: {
  5640                           ;primarymain.c: 237: F.DIR = 1;
  5641  0EE8  1683               	bsf	status, 5	;RP0=1, select bank1
  5642  0EE9  1303               	bcf	status, 6	;RP1=0, select bank1
  5643  0EEA  15AA               	bsf	(170)^080h,3
  5644                           	line	238
  5645                           ;primarymain.c: 238: } else
  5646  0EEB  2EF4               	goto	i1l9961
  5647                           	
  5648  0EEC                     i1l1554:	
  5649                           	line	240
  5650                           	
  5651  0EEC                     i1l9957:	
  5652                           ;primarymain.c: 239: {
  5653                           ;primarymain.c: 240: TRISD = 0;
  5654  0EEC  1683               	bsf	status, 5	;RP0=1, select bank1
  5655  0EED  1303               	bcf	status, 6	;RP1=0, select bank1
  5656  0EEE  0188               	clrf	(136)^080h	;volatile
  5657                           	line	241
  5658                           	
  5659  0EEF                     i1l9959:	
  5660                           ;primarymain.c: 241: PORTD = 0xE0;
  5661  0EEF  30E0               	movlw	(0E0h)
  5662  0EF0  1283               	bcf	status, 5	;RP0=0, select bank0
  5663  0EF1  1303               	bcf	status, 6	;RP1=0, select bank0
  5664  0EF2  0088               	movwf	(8)	;volatile
  5665  0EF3  2EF4               	goto	i1l9961
  5666                           	line	242
  5667                           	
  5668  0EF4                     i1l1555:	
  5669                           	line	243
  5670                           	
  5671  0EF4                     i1l9961:	
  5672                           ;primarymain.c: 242: }
  5673                           ;primarymain.c: 243: RBIF = 0;
  5674  0EF4  100B               	bcf	(88/8),(88)&7
  5675                           	line	244
  5676                           ;primarymain.c: 244: } else
  5677  0EF5  2F01               	goto	i1l1557
  5678                           	
  5679  0EF6                     i1l1553:	
  5680                           	line	246
  5681                           	
  5682  0EF6                     i1l9963:	
  5683                           ;primarymain.c: 245: {
  5684                           ;primarymain.c: 246: TRISD = 0;
  5685  0EF6  1683               	bsf	status, 5	;RP0=1, select bank1
  5686  0EF7  1303               	bcf	status, 6	;RP1=0, select bank1
  5687  0EF8  0188               	clrf	(136)^080h	;volatile
  5688                           	line	247
  5689                           	
  5690  0EF9                     i1l9965:	
  5691                           ;primarymain.c: 247: PORTD = 0xF0;
  5692  0EF9  30F0               	movlw	(0F0h)
  5693  0EFA  1283               	bcf	status, 5	;RP0=0, select bank0
  5694  0EFB  1303               	bcf	status, 6	;RP1=0, select bank0
  5695  0EFC  0088               	movwf	(8)	;volatile
  5696  0EFD  2F01               	goto	i1l1557
  5697                           	line	248
  5698                           	
  5699  0EFE                     i1l1556:	
  5700  0EFE  2F01               	goto	i1l1557
  5701                           	
  5702  0EFF                     i1l1552:	
  5703  0EFF  2F01               	goto	i1l1557
  5704                           	
  5705  0F00                     i1l1550:	
  5706  0F00  2F01               	goto	i1l1557
  5707                           	
  5708  0F01                     i1l1548:	
  5709                           	line	249
  5710                           	
  5711  0F01                     i1l1557:	
  5712  0F01  087C               	movf	(??_isr+5),w
  5713  0F02  1283               	bcf	status, 5	;RP0=0, select bank0
  5714  0F03  00FF               	movwf	btemp+1
  5715  0F04  087B               	movf	(??_isr+4),w
  5716  0F05  008A               	movwf	pclath
  5717  0F06  087A               	movf	(??_isr+3),w
  5718  0F07  0084               	movwf	fsr0
  5719  0F08  0E79               	swapf	(??_isr+2)^0FFFFFF80h,w
  5720  0F09  0083               	movwf	status
  5721  0F0A  0EFE               	swapf	saved_w,f
  5722  0F0B  0E7E               	swapf	saved_w,w
  5723  0F0C  0009               	retfie
  5724                           	opt stack 0
  5725                           GLOBAL	__end_of_isr
  5726  0F0D                     	__end_of_isr:
  5727 ;; =============== function _isr ends ============
  5728                           
  5729                           	signat	_isr,88
  5730                           psect	text713,local,class=CODE,delta=2
  5731                           global __ptext713
  5732  0000                     __ptext713:
  5733                           	global	btemp
  5734  007E                     	btemp set 07Eh
  5735                           
  5736                           	DABS	1,126,2	;btemp
  5737                           	global	wtemp0
  5738  007E                     	wtemp0 set btemp


HI-TECH Software PICC Macro Assembler V9.83 build 10920 
Symbol Table                                                                                   Fri Mar 15 16:23:46 2013

                    _F 00AA                     _T0 0551                     _T1 0552                     _RD 0C60  
                   _WR 0C61           ___awdiv@sign 002E           ___ftadd@exp1 0058           ___ftadd@exp2 0057  
         ___ftadd@sign 0056                    _I2C 0550                    _GIE 005F                    _DIR 0553  
                  _RB5 0035                    _ERR 0554                    _PR2 0092                    _abs 0E00  
                  _isr 0E9F                    fsr0 0004                    indf 0000           ___ftdiv@cntr 0056  
         ___ftdiv@sign 005B                   ?_abs 0020                   l1531 0505                   l1540 07FD  
                 l1532 0527                   l1541 07FD                   l1533 0578                   l1534 07F4  
                 l1535 0579                   l1560 0066                   l1544 0E49                   l1536 0741  
                 l1561 00A4                   l3073 0DD3                   l1537 074C                   l1562 00A4  
                 l3074 0DDD                   l1538 07FB                   l3075 0DDF                   l1539 07FC  
                 l1572 0E1B                   l3084 0DFB                   l3076 0DDE                   l1573 0E22  
                 l3085 0DFF                   l3077 0DDF                   l1576 0E63                   l1577 0E4F  
                 l1578 0E72                   l1579 0E72                   l4582 0DC1                   l4579 0D94  
                 l7600 029E                   l7610 035B                   l7611 0360                   l7620 00FA  
                 l7612 0375                   ?_isr 0077                   l7621 010C                   l7613 038C  
                 l7605 02D6                   l7622 0131                   l7710 01D8                   l7702 0161  
                 l7606 03A8                   l7623 011D                   l7711 01E9                   l7703 0175  
                 l7551 03E0                   l7607 02EF                   l7624 012A                   l7616 00C2  
                 l7712 01F2                   l7704 01D9                   l7560 0448                   l7608 032F  
                 l7625 011E                   l7617 014A                   l7705 0197                   l7561 0418  
                 l7553 03D8                   l7609 0344                   l7626 0130                   l7618 010D  
                 l7650 0F43                   l7706 0189                   l7570 044F                   l7554 04EE  
                 l7627 0141                   l7619 00F9                   l7651 0F37                   l7707 019C  
                 l7563 0431                   l7555 03F5                   l7643 0E83                   l7652 0F48  
                 l7708 019D                   l7572 0468                   l7564 0432                   l7644 0E9E  
                 l7653 0F49                   l7709 01C8                   l7573 0469                   l7565 0440  
                 l7557 03F4                   l7654 0F62                   l7574 0477                   l7566 0433  
                 l7558 03FE                   l7655 0F70                   l7647 0F1D                   l7575 046A  
                 l7567 0447                   l7559 0403                   l7656 0F7B                   l7648 0F2B  
                 l7576 047E                   l7568 047F                   l7841 0F91                   l7657 0F82  
                 l7649 0F71                   l7577 0494                   l7569 047F                   l7850 0FCD  
                 l7842 0FFF                   l7578 04A9                   l7851 0FDC                   l7843 0FA7  
                 l7579 04D2                   l7595 020E                   l7852 0FE6                   l7844 0F9A  
                 l7596 02BA                   l7853 0FFF                   l7845 0FAE                   l7597 0227  
                 l7846 0FC5                   l7598 026D                   l7847 0FAF                   l7839 0F99  
                 l7599 028F                   l7848 0FCC                   l7849 0FD8                   l9901 0E00  
                 l9903 0E11                   l9911 0DE0                   l9905 0E15                   l9913 0DE8  
                 l9921 0DC2                   l9907 0E1B                   l9915 0DF5                   l9931 0DCF  
                 l9923 0DC6                   l9909 0E22                   l9917 0E4A                   l9933 0DD0  
                 l9925 0DCC                   l9919 0E4F                   l9935 0DD3                   l9927 0DCD  
                 l9937 0DD8                   l9929 0DCE                   l9891 0DBE                   l9939 0D8A  
                 l9971 0F83                   l9893 0DC0                   l9981 0FA7                   l9973 0F89  
                 l9895 001D                   l9991 0FD8                   l9983 0FAF                   l9975 0F91  
                 l9889 0DA5                   l9897 0025                   l9993 0FE0                   l9985 0FB3  
                 l9977 0F98                   l9899 0066                   l9995 0FE8                   l9987 0FBD  
                 l9979 0F9A                   l9997 0FFA                   l9989 0FCD                   l9999 0FFE  
                 _FLAG 00AA                   _T0IE 005D                   _T0IF 005A                   u4000 0F5A  
                 u4001 0F59                   u4020 0F6F                   u4100 01B8                   u4021 0F6E  
                 u4005 0F56                   u4101 01B7                   u4030 0F75                   u4015 0F63  
                 u4120 01D7                   u4040 0152                   u4200 03C7                   u4121 01D6  
                 u4105 01B4                   u4041 0151                   u4130 01DD                   u4050 0165  
                 u4210 03CD                   u4115 01C9                   u4051 0164                   u4211 03CC  
                 u4060 0185                   u4300 0428                   u4220 03D7                   u4061 0184  
                 u4301 0427                   u4221 03D6                   u4310 0430                   u4230 03E4  
                 u4311 042F                   _PIE1 008C                   u4080 019B                   u4400 0483  
                 u4240 03EA                   _PIE2 008D                   u3601 0057                   u4081 019A  
                 u4401 0482                   u4241 03E9                   u3602 005E                   u4410 0498  
                 u4330 0446                   u4250 03F4                   u3611 0078                   u3603 0065  
                 u4075 018B                   u4411 0497                   u4331 0445                   u4251 03F3  
                 u3620 00A3                   u3612 007F                   u4340 044E                   u4260 03FD  
                 u3613 0086                   u4421 04B3                   u4341 044D                   u4325 0434  
                 u4261 03FC                   u3630 0E15                   u4430 04BE                   u4422 04BA  
                 u4270 0402                   u4510 029D                   u3631 0E14                   u4095 019F  
                 u4431 04BD                   u4271 0401                   u4511 029C                   u3640 0DF5  
                 u3800 0FE0                   u3720 0F89                   u4360 045F                   u4280 0417  
                 u4440 0206                   u4600 035A                   u4520 02CE                   u3625 0096  
                 u3641 0DF4                   u3801 0FDF                   u4361 045E                   u4281 0416  
                 u4505 0290                   u4441 0205                   u4601 0359                   u4521 02CD  
                 u3626 0097                   u3650 0E71                   u3810 0FF1                   u3730 0F90  
                 u4370 0467                   u4450 021F                   u4610 0364                   u4530 02E7  
                 u3627 009C                   u3651 0E70                   u3731 0F8F                   u4371 0466  
                 u4355 0450                   u4451 021E                   u4611 0363                   u4531 02E6  
                 _PEIE 005E                   u3628 009D                   u3580 0025                   u3660 0DD8  
                 u3820 0FFE                   u4460 023D                   u4540 02FF                   u4700 0747  
                 u3629 00A2                   u3581 0024                   u3645 0DF1                   u3661 0DD7  
                 u4621 036D                   u4701 0746                   u3750 0FAD                   u3910 012F  
                 u3830 00B8                   u4390 047D                   u4470 024F                   u4622 0374  
                 u4550 0311                   u4710 07FA                   u3591 0037                   u3655 0E6D  
                 u3815 0FED                   u3751 0FAC                   u3911 012E                   u3831 00B7  
                 u4391 047C                   u4295 0419                   _RBIE 005B                   u3592 003E  
                 u3920 0135                   u3840 00CD                   u4560 0333                   _RBIF 0058  
                 u3593 0045                   u3745 0F9F                   u3905 0120                   u4385 046B  
                 u4465 0239                   u4561 0332                   u4545 02FB                   u3770 0FCB  
                 u3850 00E8                   u4490 0283                   u4650 038B                   u3771 0FCA  
                 u3851 00E7                   u4491 0282                   u4475 024B                   u4651 038A  
                 u4635 0376                   u4571 033C                   u4555 030D                   u3860 00EF  
                 u3940 0F14                   u4572 0343                   u4660 0E7A                   u3765 0FBE  
                 u3861 00EE                   u3845 00C9                   u3941 0F13                   u4485 026E  
                 u4645 037E                   u4661 0E79                   u3790 0FDC                   u3950 0F21  
                 u4670 050B                   u3791 0FDB                   u3951 0F20                   u4495 027F  
                 u4671 050A                   u3880 010B                   u3960 0F33                   u4680 052B  
                 u3785 0FD0                   u3881 010A                   u3961 0F32                   u4585 0345  
                 u4681 052A                   u3890 0113                   u4690 073C                   u3891 0112  
                 u3875 00FB                   u4595 034D                   u4691 073B                   u3980 0F47  
                 u3981 0F46                   u3975 0F38                   u3995 0F4A                   _TIME 0071  
                 _TMR0 0001                   _TMR1 000E                   _WREN 0C62                   abs@a 0020  
                 abs@b 0022                   _main 04EF           ___ftpack@arg 0020           ___ftpack@exp 0023  
                 btemp 007E                   start 0012  __size_of_BeginEncoder 000B           ___ftmul@cntr 004A  
         ___ftmul@sign 004B           ___fttol@exp1 0035                  ??_abs 0024           ___fttol@lval 0031  
                ??_isr 0077                  l10011 00C1                  l10021 00E2                  l10013 00C2  
                l10101 0F82                  l10031 00FA                  l10023 00E4                  l10015 00D4  
                l10007 00A5                  l10111 0165                  l10103 014B                  l10041 012A  
                l10025 00E8                  l10033 010D                  l10017 00D5                  l10009 00B8  
                l10121 0189                  l10113 0170                  l10105 0152                  l10201 0E33  
                l10035 0113                  l10043 0131                  l10027 00EF                  l10019 00DB  
                l10131 01C6                  l10123 0197                  l10115 0175                  l10107 015D  
                l10211 0E3D                  l10203 0E37                  l10045 0135                  l10037 011C  
                l10029 00F8                  l10141 01E9                  l10133 01C8                  l10125 019D  
                l10117 017D                  l10109 0161                  l10213 0E3E                  l10205 0E38  
                l10221 03A9                  l10301 0226                  l10047 0141                  l10039 011E  
                l10071 0F26                  l10063 0F0D                  l10143 01F2                  l10135 01D1  
                l10127 01A6                  l10119 0185                  l10215 0E3F                  l10207 0E3B  
                l10231 03DF                  l10223 03C3                  l10311 0256                  l10303 0227  
                l10049 014A                  l10081 0F3E                  l10073 0F2B                  l10065 0F14  
                l10129 01B8                  l10137 01D9                  l10217 0E43                  l10209 0E3C  
                l10241 03F9                  l10233 03E0                  l10225 03C7                  l10321 0283  
                l10313 025A                  l10305 022D                  l10401 051D                  l10091 0F62  
                l10083 0F43                  l10075 0F2D                  l10067 0F1D                  l10139 01DD  
                l10219 0E46                  l10251 0418                  l10243 03FD                  l10235 03E4  
                l10227 03CD                  l10331 02BA                  l10323 028D                  l10315 0261  
                l10307 0232                  l10411 052B                  l10403 0521                  l10093 0F69  
                l10085 0F49                  l10077 0F33                  l10069 0F21                  l10253 0422  
                l10261 0448                  l10245 0402                  l10237 03EA                  l10229 03D8  
                l10325 028F                  l10317 026D                  l10309 0244                  l10341 02E7  
                l10333 02BB                  l10421 0588                  l10413 0545                  l10405 0523  
                l10087 0F5A                  l10079 0F37                  l10095 0F71                  l10191 0E23  
                l10271 0477                  l10263 044F                  l10255 0428                  l10247 0404  
                l10239 03F5                  l10327 0297                  l10319 0275                  l10351 031E  
                l10343 02EE                  l10335 02CE                  l10431 067B                  l10423 05A9  
                l10415 0566                  l10407 0525                  l10097 0F75                  l10089 0F60  
                l10193 0E26                  l10281 04BA                  l10273 0483                  l10265 0459  
                l10257 0433                  l10249 040A                  l10329 029E                  l10361 0344  
                l10353 0324                  l10345 02EF                  l10337 02D5                  l10441 0747  
                l10433 0730                  l10425 05D8                  l10417 0574                  l10409 0527  
                l10099 0F7B                  l10195 0E30                  l10283 04BE                  l10275 0494  
                l10267 045F                  l10259 0440                  l10291 01F3                  l10371 0364  
                l10363 034C                  l10355 032A                  l10347 031C                  l10339 02D6  
                l10443 074C                  l10435 0736                  l10427 0601                  l10419 0579  
                l10451 07F4                  l10197 0E31                  l10285 04CE                  l10277 0498  
                l10269 046A                  l10293 0206                  l10381 03A8                  l10373 0375  
                l10365 0354                  l10357 032F                  l10349 031D                  l10445 07DB  
                l10437 073C                  l10429 0633                  l10199 0E32                  l10287 04D2  
                l10279 04A9                  l10295 020D                  l10375 037D                  l10367 035B  
                l10359 0333                  l10383 0E73                  l10447 07DF                  l10439 0741  
                l10391 04EF                  l10289 04EE                  l10297 020E                  l10377 0385  
                l10369 0360                  l10385 0E7A                  l10449 07E8                  l10393 04F9  
                l10299 021F                  l10379 038C                  l10387 0E83                  l10395 04FF  
                l10389 0E9E                  l10397 0505                  l10399 050B        __end_of___aldiv 01F3  
                ?_main 0077        __end_of___awdiv 0F83                  _EEADR 010D        __end_of___ftadd 04EF  
                _CARRY 0018        __end_of___ftdiv 02BB        __end_of___ftmul 03A9        ___awdiv@divisor 0028  
                _T1CON 0010        __end_of___fttol 014B                  _T2CON 0012        ___awdiv@counter 002D  
                _PORTD 0008                  _TRISB 0086                  _TRISD 0088                  _SSPIF 0063  
        ___awtoft@sign 003B                  _delay 0E4A          ___ftpack@sign 0024                  main@D 00AF  
                main@I 00B3                  main@P 00B9                  main@c 00AE                  main@t 00AD  
                main@v 00B7           _BeginEncoder 0D8A                  pclath 000A       __end_of_BeginPWM 0DE0  
                status 0003                  wtemp0 007E           __end_of_main 0800             _Initialise 0E23  
               ??_main 005C          ___fttol@sign1 0030     __size_of_EncUpdate 001D       __end_of_SetPulse 0E00  
               ?_delay 0020                 _EEDATA 010C                 _CCPR2L 001B                 _EECON1 018C  
               _EECON2 018D       ___awdiv@dividend 002A                 _CMCON1 0097       __end_of___awtoft 0E9F  
     __end_of___ftpack 1000                 _COUNTS 005E                 i1l1550 0F00                 i1l1551 0ED2  
               i1l1552 0EFF                 i1l1553 0EF6                 i1l1554 0EEC                 i1l1555 0EF4  
               i1l1547 0EAA                 i1l1548 0F01                 i1l1556 0EFE                 i1l1549 0EBE  
               i1l1557 0F01                 i1l9941 0E9F                 i1l9951 0ED0                 i1l9943 0EA3  
               i1l9961 0EF4                 i1l9953 0ED6                 i1l9945 0EAE                 i1l9955 0EE8  
               i1l9963 0EF6                 i1l9947 0EBC                 i1l9965 0EF9                 i1l9957 0EEC  
               i1l9949 0EC2                 i1l9959 0EEF                 u370_20 0ED6                 u370_21 0ED5  
               u371_20 0EE8                 u371_21 0EE7                 u371_25 0EE4                 u367_20 0EA3  
               u367_21 0EA2                 u368_20 0EAE                 u368_21 0EAD                 u369_20 0EC2  
               u369_21 0EC1                 _TARGET 0064                 _TMR1IF 0060                 _TMR2IF 0061  
            ??___aldiv 0028              ??___awdiv 002C              ??___ftadd 0052              ??___ftdiv 0052  
            ??___ftmul 0042              ??___fttol 002C                 delay@x 0023       ___awdiv@quotient 002F  
___ftmul@f3_as_product 0047             _UpdateData 001D                 saved_w 007E             ___ftadd@f1 004C  
           ___ftadd@f2 004F      __end_of_EncUpdate 0DC2             ___ftdiv@f1 004F             ___ftdiv@f2 004C  
           ___ftdiv@f3 0057             ___awtoft@c 0036         __pcstackBANK1h 00AB             ___ftmul@f1 003C  
           ___ftmul@f2 003F             ___fttol@f1 0028         __pcstackCOMMON 0077          __end_of_delay 0E73  
          ?_Initialise 0077              ?_BeginPWM 0077                ??_delay 0022             __pbssBANK0 005E  
            ?_SetPulse 0020             __pmaintext 04EF             __pintentry 0004                _CCP2CON 001D  
            ?___awtoft 0036              ?___ftpack 0020             ??_BeginPWM 0020            ?_UpdateData 0020  
       main@currentPWM 00B5    __size_of_Initialise 0027             ??_SetPulse 0022                ___aldiv 014B  
              ___awdiv 0F0D                ___ftadd 03A9                ___ftdiv 01F3                ___ftmul 02BB  
            _DIRECTION 0075                ___fttol 00A5             ??___awtoft 0039             ??___ftpack 0025  
              abs@temp 0026              _T2CONbits 0012           __size_of_abs 0023           __size_of_isr 006E  
     ___aldiv@dividend 0024                main@PID 00AB   end_of_initialization 0DA1    __size_of_UpdateData 0088  
     ___aldiv@quotient 002B            UpdateData@c 0022            UpdateData@t 0020              _PORTBbits 0006  
       SetPulse@length 0020              _TRISDbits 0088            ___ftdiv@exp 005A            _CCP2CONbits 001D  
           main@counts 00BD            ___ftmul@exp 0046              _EncUpdate 0DA5           ??_Initialise 0020  
  start_initialization 0D95      __size_of_BeginPWM 001E            __end_of_abs 0E23            __end_of_isr 0F0D  
   __end_of_Initialise 0E4A             ?_EncUpdate 0020      __size_of_SetPulse 0020           SetPulse@temp 0022  
         ??_UpdateData 0024      __size_of___awtoft 002C      __size_of___ftpack 007D            __pbssCOMMON 0071  
        __pcstackBANK0 0020          ?_BeginEncoder 0077              __pnvBANK0 0064     __end_of_UpdateData 00A5  
             ?___aldiv 0020               ?___awdiv 0028               ?___ftadd 004C              __ptext700 0E23  
            __ptext701 014B              __ptext710 001D              __ptext702 0F0D              __ptext711 0DA5  
            __ptext703 00A5              __ptext712 0E9F              __ptext704 0F83              __ptext713 0000  
            __ptext705 0D8A              __ptext706 0DC2              __ptext707 0E4A              __ptext708 0DE0  
            __ptext709 0E00              __ptext696 0E73              __ptext697 02BB              __ptext698 01F3  
            __ptext699 03A9               ?___ftdiv 004C               ?___ftmul 003C               ?___fttol 0028  
       __size_of_delay 0029         ??_BeginEncoder 0020               _DIR_READ 0062        ___aldiv@divisor 0020  
    interrupt_function 0004        ___aldiv@counter 0029               _PIE1bits 008C               _PIR1bits 000C  
          ??_EncUpdate 0024              main@P_old 00B1               _BeginPWM 0DC2               _SetPulse 0DE0  
     __size_of___aldiv 00A8       __size_of___awdiv 0076       __size_of___ftadd 0146       __size_of___ftdiv 00C8  
     __size_of___ftmul 00EE       __size_of___fttol 00A6               ___awtoft 0E73               ___ftpack 0F83  
          EncUpdate@t0 0020            EncUpdate@t1 0022          __size_of_main 0311            delay@length 0020  
 __end_of_BeginEncoder 0D95               main@time 00BB               intlevel1 0000             _OPTION_REG 0081  
         ___aldiv@sign 002A  
