

HI-TECH Software PIC LITE Macro Assembler V9.83 build 10920 
                                                                                               Thu Apr 25 16:58:17 2013

HI-TECH Software Omniscient Code Generator (Lite mode) build 10920
     1  0000                     opt subtitle "HI-TECH Software Omniscient Code Generator (Lite mode) build 10920"
     2                           
     3                           opt pagewidth 120
     4                           
     5                           	opt lm
     6                           
     7                           	processor	16F887
     8                           clrc	macro
     9                           	bcf	3,0
    10  0000                     	endm
    11                           clrz	macro
    12                           	bcf	3,2
    13  0000                     	endm
    14                           setc	macro
    15                           	bsf	3,0
    16  0000                     	endm
    17                           setz	macro
    18                           	bsf	3,2
    19  0000                     	endm
    20                           skipc	macro
    21                           	btfss	3,0
    22  0000                     	endm
    23                           skipz	macro
    24                           	btfss	3,2
    25  0000                     	endm
    26                           skipnc	macro
    27                           	btfsc	3,0
    28  0000                     	endm
    29                           skipnz	macro
    30                           	btfsc	3,2
    31  0000                     	endm
    32  0000                     indf	equ	0
    33  0000                     indf0	equ	0
    34  0002                     pc	equ	2
    35  0002                     pcl	equ	2
    36  0003                     status	equ	3
    37  0004                     fsr	equ	4
    38  0004                     fsr0	equ	4
    39  0001                     c	equ	1
    40  0000                     z	equ	0
    41  000A                     pclath	equ	10
    42                           # 21 "extosc887_main.c"
    43                           	psect config,class=CONFIG,delta=2 ;#
    44                           # 21 "extosc887_main.c"
    45  2007  E0E2               	dw 0xFFFA & 0xFFF7 & 0xFFEF & 0xFFFF & 0xFFFF & 0xFFFF & 0xFCFF & 0xFBFF & 0xF7FF & 0xE
                                 FFF ;#
    46                           # 23 "extosc887_main.c"
    47                           	psect config,class=CONFIG,delta=2 ;#
    48                           # 23 "extosc887_main.c"
    49  2008  FFFF               	dw 0xFFFF & 0xFFFF ;#
    50                           	FNCALL	_main,_delay1sec
    51                           	FNROOT	_main
    52                           	global	_PORTB
    53                           psect	maintext,global,class=CODE,delta=2
    54                           global __pmaintext
    55  07D2                     __pmaintext:
    56  0006                     _PORTB	set	6
    57                           	global	_PORTC
    58  0007                     _PORTC	set	7
    59                           	global	_PORTD
    60  0008                     _PORTD	set	8
    61                           	global	_TMR0
    62  0001                     _TMR0	set	1
    63                           	global	_CARRY
    64  0018                     _CARRY	set	24
    65                           	global	_GIE
    66  005F                     _GIE	set	95
    67                           	global	_T0IF
    68  005A                     _T0IF	set	90
    69                           	global	_OPTION_REG
    70  0081                     _OPTION_REG	set	129
    71                           	global	_TRISB
    72  0086                     _TRISB	set	134
    73                           	global	_TRISC
    74  0087                     _TRISC	set	135
    75                           	global	_TRISD
    76  0088                     _TRISD	set	136
    77                           	global	_EEADR
    78  010D                     _EEADR	set	269
    79                           	global	_EEDATA
    80  010C                     _EEDATA	set	268
    81                           	global	_EECON1
    82  018C                     _EECON1	set	396
    83                           	global	_EECON2
    84  018D                     _EECON2	set	397
    85                           	global	_RD
    86  0C60                     _RD	set	3168
    87                           	global	_WR
    88  0C61                     _WR	set	3169
    89                           	global	_WREN
    90  0C62                     _WREN	set	3170
    91                           	file	"C:\Users\Alan\AppData\Local\Temp\s57g."
    92                           	line	#
    93                           psect cinit,class=CODE,delta=2
    94                           global start_initialization
    95  07A1                     start_initialization:
    96                           
    97                           psect cinit,class=CODE,delta=2
    98                           global end_of_initialization
    99                           
   100                           ;End of C runtime variable initialization code
   101                           
   102  07A1                     end_of_initialization:
   103  07A1  0183               clrf status
   104  07A2  120A  118A  2FD2   ljmp _main	;jump to C main() function
   105                           psect	cstackCOMMON,class=COMMON,space=1
   106                           global __pcstackCOMMON
   107  0070                     __pcstackCOMMON:
   108                           	global	?_delay1sec
   109  0070                     ?_delay1sec:	; 0 bytes @ 0x0
   110                           	global	??_delay1sec
   111  0070                     ??_delay1sec:	; 0 bytes @ 0x0
   112                           	global	?_main
   113  0070                     ?_main:	; 2 bytes @ 0x0
   114                           	global	delay1sec@i
   115  0070                     delay1sec@i:	; 2 bytes @ 0x0
   116  0070                     	ds	2
   117                           	global	??_main
   118  0072                     ??_main:	; 0 bytes @ 0x2
   119                           	global	main@x
   120  0072                     main@x:	; 2 bytes @ 0x2
   121  0072                     	ds	2
   122 ;;Data sizes: Strings 0, constant 0, data 0, bss 0, persistent 0 stack 0
   123 ;;Auto spaces:   Size  Autos    Used
   124 ;; COMMON          14      4       4
   125 ;; BANK0           80      0       0
   126 ;; BANK1           80      0       0
   127 ;; BANK3           96      0       0
   128 ;; BANK2           96      0       0
   129                           
   130 ;;
   131 ;; Pointer list with targets:
   132                           
   133                           
   134                           
   135 ;;
   136 ;; Critical Paths under _main in COMMON
   137 ;;
   138 ;;   _main->_delay1sec
   139 ;;
   140 ;; Critical Paths under _main in BANK0
   141 ;;
   142 ;;   None.
   143 ;;
   144 ;; Critical Paths under _main in BANK1
   145 ;;
   146 ;;   None.
   147 ;;
   148 ;; Critical Paths under _main in BANK3
   149 ;;
   150 ;;   None.
   151 ;;
   152 ;; Critical Paths under _main in BANK2
   153 ;;
   154 ;;   None.
   155                           
   156 ;;
   157 ;;Main: autosize = 0, tempsize = 0, incstack = 0, save=0
   158 ;;
   159                           
   160 ;;
   161 ;;Call Graph Tables:
   162 ;;
   163 ;; ---------------------------------------------------------------------------------
   164 ;; (Depth) Function   	        Calls       Base Space   Used Autos Params    Refs
   165 ;; ---------------------------------------------------------------------------------
   166 ;; (0) _main                                                 2     2      0      45
   167 ;;                                              2 COMMON     2     2      0
   168 ;;                          _delay1sec
   169 ;; ---------------------------------------------------------------------------------
   170 ;; (1) _delay1sec                                            2     2      0      30
   171 ;;                                              0 COMMON     2     2      0
   172 ;; ---------------------------------------------------------------------------------
   173 ;; Estimated maximum stack depth 1
   174 ;; ---------------------------------------------------------------------------------
   175                           
   176 ;; Call Graph Graphs:
   177                           
   178 ;; _main (ROOT)
   179 ;;   _delay1sec
   180 ;;
   181                           
   182 ;; Address spaces:
   183                           
   184 ;;Name               Size   Autos  Total    Cost      Usage
   185 ;;BITCOMMON            E      0       0       0        0.0%
   186 ;;EEDATA             100      0       0       0        0.0%
   187 ;;NULL                 0      0       0       0        0.0%
   188 ;;CODE                 0      0       0       0        0.0%
   189 ;;COMMON               E      4       4       1       28.6%
   190 ;;BITSFR0              0      0       0       1        0.0%
   191 ;;SFR0                 0      0       0       1        0.0%
   192 ;;BITSFR1              0      0       0       2        0.0%
   193 ;;SFR1                 0      0       0       2        0.0%
   194 ;;STACK                0      0       1       2        0.0%
   195 ;;ABS                  0      0       0       3        0.0%
   196 ;;BITBANK0            50      0       0       4        0.0%
   197 ;;BITSFR3              0      0       0       4        0.0%
   198 ;;SFR3                 0      0       0       4        0.0%
   199 ;;BANK0               50      0       0       5        0.0%
   200 ;;BITSFR2              0      0       0       5        0.0%
   201 ;;SFR2                 0      0       0       5        0.0%
   202 ;;BITBANK1            50      0       0       6        0.0%
   203 ;;BANK1               50      0       0       7        0.0%
   204 ;;BITBANK3            60      0       0       8        0.0%
   205 ;;BANK3               60      0       0       9        0.0%
   206 ;;BITBANK2            60      0       0      10        0.0%
   207 ;;BANK2               60      0       0      11        0.0%
   208 ;;DATA                 0      0       0      12        0.0%
   209                           
   210                           	global	_main
   211                           psect	maintext
   212                           
   213 ;; *************** function _main *****************
   214 ;; Defined at:
   215 ;;		line 29 in file "extosc887_main.c"
   216 ;; Parameters:    Size  Location     Type
   217 ;;		None
   218 ;; Auto vars:     Size  Location     Type
   219 ;;  x               2    2[COMMON] int 
   220 ;; Return value:  Size  Location     Type
   221 ;;                  2  1026[COMMON] int 
   222 ;; Registers used:
   223 ;;		wreg, status,2, status,0, btemp+1, pclath, cstack
   224 ;; Tracked objects:
   225 ;;		On entry : 17F/0
   226 ;;		On exit  : 0/0
   227 ;;		Unchanged: 0/0
   228 ;; Data sizes:     COMMON   BANK0   BANK1   BANK3   BANK2
   229 ;;      Params:         0       0       0       0       0
   230 ;;      Locals:         2       0       0       0       0
   231 ;;      Temps:          0       0       0       0       0
   232 ;;      Totals:         2       0       0       0       0
   233 ;;Total ram usage:        2 bytes
   234 ;; Hardware stack levels required when called:    1
   235 ;; This function calls:
   236 ;;		_delay1sec
   237 ;; This function is called by:
   238 ;;		Startup code after reset
   239 ;; This function uses a non-reentrant model
   240 ;;
   241                           psect	maintext
   242                           	file	"extosc887_main.c"
   243                           	line	29
   244                           	global	__size_of_main
   245  002E                     	__size_of_main	equ	__end_of_main-_main
   246                           	
   247  07D2                     _main:	
   248                           	opt	stack 7
   249                           ; Regs used in _main: [wreg+status,2+status,0+btemp+1+pclath+cstack]
   250                           	line	30
   251                           	
   252  07D2                     l3259:	
   253                           ;extosc887_main.c: 30: OPTION_REG = 0b10010111;
   254  07D2  3097               	movlw	(097h)
   255  07D3  1683               	bsf	status, 5	;RP0=1, select bank1
   256  07D4  1303               	bcf	status, 6	;RP1=0, select bank1
   257  07D5  0081               	movwf	(129)^080h	;volatile
   258                           	line	31
   259                           	
   260  07D6                     l3261:	
   261                           ;extosc887_main.c: 31: TRISD = 0x00;
   262  07D6  0188               	clrf	(136)^080h	;volatile
   263                           	line	32
   264                           	
   265  07D7                     l3263:	
   266                           ;extosc887_main.c: 32: PORTD = 0xFF;
   267  07D7  30FF               	movlw	(0FFh)
   268  07D8  1283               	bcf	status, 5	;RP0=0, select bank0
   269  07D9  1303               	bcf	status, 6	;RP1=0, select bank0
   270  07DA  0088               	movwf	(8)	;volatile
   271                           	line	34
   272                           ;extosc887_main.c: 34: TMR0 = 0;
   273  07DB  0181               	clrf	(1)	;volatile
   274                           	line	36
   275                           ;extosc887_main.c: 36: int x = 0;
   276  07DC  01F2               	clrf	(main@x)
   277  07DD  01F3               	clrf	(main@x+1)
   278                           	line	38
   279                           ;extosc887_main.c: 38: TRISB = 0x00;
   280  07DE  1683               	bsf	status, 5	;RP0=1, select bank1
   281  07DF  1303               	bcf	status, 6	;RP1=0, select bank1
   282  07E0  0186               	clrf	(134)^080h	;volatile
   283                           	line	39
   284                           	
   285  07E1                     l3265:	
   286                           ;extosc887_main.c: 39: PORTB = 0xFF;
   287  07E1  30FF               	movlw	(0FFh)
   288  07E2  1283               	bcf	status, 5	;RP0=0, select bank0
   289  07E3  1303               	bcf	status, 6	;RP1=0, select bank0
   290  07E4  0086               	movwf	(6)	;volatile
   291                           	line	40
   292                           	
   293  07E5                     l3267:	
   294                           ;extosc887_main.c: 40: TRISC = 0x00;
   295  07E5  1683               	bsf	status, 5	;RP0=1, select bank1
   296  07E6  1303               	bcf	status, 6	;RP1=0, select bank1
   297  07E7  0187               	clrf	(135)^080h	;volatile
   298                           	line	41
   299                           ;extosc887_main.c: 41: PORTC = 0xFF;
   300  07E8  30FF               	movlw	(0FFh)
   301  07E9  1283               	bcf	status, 5	;RP0=0, select bank0
   302  07EA  1303               	bcf	status, 6	;RP1=0, select bank0
   303  07EB  0087               	movwf	(7)	;volatile
   304                           	line	44
   305                           ;extosc887_main.c: 44: while(1)
   306                           	
   307  07EC                     l1027:	
   308                           	line	46
   309                           ;extosc887_main.c: 45: {
   310                           ;extosc887_main.c: 46: PORTD = x;
   311  07EC  0872               	movf	(main@x),w
   312  07ED  1283               	bcf	status, 5	;RP0=0, select bank0
   313  07EE  1303               	bcf	status, 6	;RP1=0, select bank0
   314  07EF  0088               	movwf	(8)	;volatile
   315                           	line	47
   316                           ;extosc887_main.c: 47: x++;
   317  07F0  3001               	movlw	low(01h)
   318  07F1  07F2               	addwf	(main@x),f
   319  07F2  1803               	skipnc
   320  07F3  0AF3               	incf	(main@x+1),f
   321  07F4  3000               	movlw	high(01h)
   322  07F5  07F3               	addwf	(main@x+1),f
   323                           	line	48
   324                           	
   325  07F6                     l3269:	
   326                           ;extosc887_main.c: 48: delay1sec();
   327  07F6  120A  118A  27A5   	fcall	_delay1sec
              120A  118A         
   328  07FB  2FEC               	goto	l1027
   329                           	line	49
   330                           	
   331  07FC                     l1028:	
   332                           	line	44
   333  07FC  2FEC               	goto	l1027
   334                           	
   335  07FD                     l1029:	
   336                           	line	53
   337                           ;extosc887_main.c: 49: }
   338                           ;extosc887_main.c: 52: return 1;
   339                           ;	Return value of _main is never used
   340                           	
   341  07FD                     l1030:	
   342                           	global	start
   343  07FD  120A  118A  2800   	ljmp	start
   344                           	opt stack 0
   345                           GLOBAL	__end_of_main
   346  0800                     	__end_of_main:
   347 ;; =============== function _main ends ============
   348                           
   349                           	signat	_main,90
   350                           	global	_delay1sec
   351                           psect	text71,local,class=CODE,delta=2
   352                           global __ptext71
   353  07A5                     __ptext71:
   354                           
   355 ;; *************** function _delay1sec *****************
   356 ;; Defined at:
   357 ;;		line 57 in file "extosc887_main.c"
   358 ;; Parameters:    Size  Location     Type
   359 ;;		None
   360 ;; Auto vars:     Size  Location     Type
   361 ;;  i               2    0[COMMON] int 
   362 ;; Return value:  Size  Location     Type
   363 ;;		None               void
   364 ;; Registers used:
   365 ;;		wreg, status,2, btemp+1
   366 ;; Tracked objects:
   367 ;;		On entry : 0/0
   368 ;;		On exit  : 0/0
   369 ;;		Unchanged: 0/0
   370 ;; Data sizes:     COMMON   BANK0   BANK1   BANK3   BANK2
   371 ;;      Params:         0       0       0       0       0
   372 ;;      Locals:         2       0       0       0       0
   373 ;;      Temps:          0       0       0       0       0
   374 ;;      Totals:         2       0       0       0       0
   375 ;;Total ram usage:        2 bytes
   376 ;; Hardware stack levels used:    1
   377 ;; This function calls:
   378 ;;		Nothing
   379 ;; This function is called by:
   380 ;;		_main
   381 ;; This function uses a non-reentrant model
   382 ;;
   383                           psect	text71
   384                           	file	"extosc887_main.c"
   385                           	line	57
   386                           	global	__size_of_delay1sec
   387  002D                     	__size_of_delay1sec	equ	__end_of_delay1sec-_delay1sec
   388                           	
   389  07A5                     _delay1sec:	
   390                           	opt	stack 7
   391                           ; Regs used in _delay1sec: [wreg+status,2+btemp+1]
   392                           	line	58
   393                           	
   394  07A5                     l2391:	
   395                           ;extosc887_main.c: 58: int i = 0;
   396  07A5  01F0               	clrf	(delay1sec@i)
   397  07A6  01F1               	clrf	(delay1sec@i+1)
   398                           	line	59
   399                           	
   400  07A7                     l2393:	
   401  07A7  0871               	movf	(delay1sec@i+1),w
   402  07A8  3A80               	xorlw	80h
   403  07A9  00FF               	movwf	btemp+1
   404  07AA  3080               	movlw	(high(04Dh))^80h
   405  07AB  027F               	subwf	btemp+1,w
   406  07AC  1D03               	skipz
   407  07AD  2FB0               	goto	u15
   408  07AE  304D               	movlw	low(04Dh)
   409  07AF  0270               	subwf	(delay1sec@i),w
   410  07B0                     u15:
   411                           
   412  07B0  1C03               	skipc
   413  07B1  2FB3               	goto	u11
   414  07B2  2FB4               	goto	u10
   415  07B3                     u11:
   416  07B3  2FB8               	goto	l1035
   417  07B4                     u10:
   418  07B4  2FD1               	goto	l1038
   419                           	
   420  07B5                     l2395:	
   421  07B5  2FD1               	goto	l1038
   422                           	line	60
   423                           	
   424  07B6                     l1033:	
   425                           	line	61
   426                           ;extosc887_main.c: 60: {
   427                           ;extosc887_main.c: 61: while (T0IF == 0)
   428  07B6  2FB8               	goto	l1035
   429                           	
   430  07B7                     l1036:	
   431                           	line	62
   432                           # 62 "extosc887_main.c"
   433  07B7  0000               nop ;#
   434                           psect	text71
   435                           	
   436  07B8                     l1035:	
   437                           	line	61
   438  07B8  1D0B               	btfss	(90/8),(90)&7
   439  07B9  2FBB               	goto	u21
   440  07BA  2FBC               	goto	u20
   441  07BB                     u21:
   442  07BB  2FB7               	goto	l1036
   443  07BC                     u20:
   444                           	
   445  07BC                     l1037:	
   446                           	line	63
   447                           ;extosc887_main.c: 63: T0IF = 0;
   448  07BC  110B               	bcf	(90/8),(90)&7
   449                           	line	59
   450                           	
   451  07BD                     l2397:	
   452  07BD  3001               	movlw	low(01h)
   453  07BE  07F0               	addwf	(delay1sec@i),f
   454  07BF  1803               	skipnc
   455  07C0  0AF1               	incf	(delay1sec@i+1),f
   456  07C1  3000               	movlw	high(01h)
   457  07C2  07F1               	addwf	(delay1sec@i+1),f
   458                           	
   459  07C3                     l2399:	
   460  07C3  0871               	movf	(delay1sec@i+1),w
   461  07C4  3A80               	xorlw	80h
   462  07C5  00FF               	movwf	btemp+1
   463  07C6  3080               	movlw	(high(04Dh))^80h
   464  07C7  027F               	subwf	btemp+1,w
   465  07C8  1D03               	skipz
   466  07C9  2FCC               	goto	u35
   467  07CA  304D               	movlw	low(04Dh)
   468  07CB  0270               	subwf	(delay1sec@i),w
   469  07CC                     u35:
   470                           
   471  07CC  1C03               	skipc
   472  07CD  2FCF               	goto	u31
   473  07CE  2FD0               	goto	u30
   474  07CF                     u31:
   475  07CF  2FB8               	goto	l1035
   476  07D0                     u30:
   477  07D0  2FD1               	goto	l1038
   478                           	
   479  07D1                     l1034:	
   480                           	line	66
   481                           	
   482  07D1                     l1038:	
   483  07D1  0008               	return
   484                           	opt stack 0
   485                           GLOBAL	__end_of_delay1sec
   486  07D2                     	__end_of_delay1sec:
   487 ;; =============== function _delay1sec ends ============
   488                           
   489                           	signat	_delay1sec,88
   490                           psect	text72,local,class=CODE,delta=2
   491                           global __ptext72
   492  0000                     __ptext72:
   493                           	global	btemp
   494  007E                     	btemp set 07Eh
   495                           
   496                           	DABS	1,126,2	;btemp
   497                           	global	wtemp0
   498  007E                     	wtemp0 set btemp


HI-TECH Software PICC Macro Assembler V9.83 build 10920 
Symbol Table                                                                                   Thu Apr 25 16:58:17 2013

                  _RD 0C60                    u10 07B4                    u11 07B3                    u20 07BC  
                  u21 07BB                    u30 07D0                    u31 07CF                    u15 07B0  
                  u35 07CC                    _WR 0C61                   _GIE 005F                  l1030 07FD  
                l1033 07B6                  l1034 07D1                  l1035 07B8                  l1027 07EC  
                l1036 07B7                  l1028 07FC                  l1037 07BC                  l1029 07FD  
                l1038 07D1                  l3261 07D6                  l2391 07A5                  l3263 07D7  
                l2393 07A7                  l3265 07E1                  l2395 07B5                  l3267 07E5  
                l3259 07D2                  l2397 07BD                  l3269 07F6                  l2399 07C3  
                _T0IF 005A                  _TMR0 0001                  _WREN 0C62                  _main 07D2  
                btemp 007E                  start 0000                 ?_main 0070                 _EEADR 010D  
               _CARRY 0018                 _PORTB 0006                 _PORTC 0007                 _PORTD 0008  
               _TRISB 0086                 _TRISC 0087                 _TRISD 0088                 main@x 0072  
               status 0003                 wtemp0 007E          __end_of_main 0800                ??_main 0072  
              _EEDATA 010C                _EECON1 018C                _EECON2 018D        __pcstackCOMMON 0070  
  __size_of_delay1sec 002D            __pmaintext 07D2     __end_of_delay1sec 07D2            delay1sec@i 0070  
end_of_initialization 07A1   start_initialization 07A1             _delay1sec 07A5            ?_delay1sec 0070  
            __ptext71 07A5              __ptext72 0000         __size_of_main 002E           ??_delay1sec 0070  
          _OPTION_REG 0081  
